
example.elf:     file format elf32-littleriscv
example.elf
architecture: riscv:rv32, flags 0x00000112:
EXEC_P, HAS_SYMS, D_PAGED
start address 0x00000000

Program Header:
    LOAD off    0x00001000 vaddr 0x00000000 paddr 0x00000000 align 2**12
         filesz 0x000028c4 memsz 0x000028c4 flags r-x
    LOAD off    0x00004000 vaddr 0x20000000 paddr 0x000028c4 align 2**12
         filesz 0x00000068 memsz 0x000000ec flags rw-
    LOAD off    0x00004e00 vaddr 0x20004e00 paddr 0x20004e00 align 2**12
         filesz 0x00000000 memsz 0x00000200 flags rw-

Sections:
Idx Name          Size      VMA       LMA       File off  Algn
  0 .init         00000038  00000000  00000000  00001000  2**1
                  CONTENTS, ALLOC, LOAD, READONLY, CODE
  1 .vector       00000108  00000038  00000038  00001038  2**1
                  CONTENTS, ALLOC, LOAD, READONLY, CODE
  2 .text         00002784  00000140  00000140  00001140  2**2
                  CONTENTS, ALLOC, LOAD, READONLY, CODE
  3 .fini         00000000  000028c4  000028c4  00004068  2**0
                  CONTENTS, ALLOC, LOAD, CODE
  4 .dalign       00000000  20000000  20000000  00004068  2**0
                  CONTENTS
  5 .dlalign      00000000  000028c4  000028c4  00004068  2**0
                  CONTENTS
  6 .data         00000068  20000000  000028c4  00004000  2**2
                  CONTENTS, ALLOC, LOAD, DATA
  7 .bss          00000084  20000068  0000292c  00004068  2**2
                  ALLOC
  8 .stack        00000200  20004e00  20004e00  00004e00  2**0
                  ALLOC
  9 .debug_info   000043c5  00000000  00000000  00004068  2**0
                  CONTENTS, READONLY, DEBUGGING
 10 .debug_abbrev 00000ac7  00000000  00000000  0000842d  2**0
                  CONTENTS, READONLY, DEBUGGING
 11 .debug_aranges 00000350  00000000  00000000  00008ef8  2**3
                  CONTENTS, READONLY, DEBUGGING
 12 .debug_ranges 000002f8  00000000  00000000  00009248  2**3
                  CONTENTS, READONLY, DEBUGGING
 13 .debug_macro  0000174b  00000000  00000000  00009540  2**0
                  CONTENTS, READONLY, DEBUGGING
 14 .debug_line   00004cf0  00000000  00000000  0000ac8b  2**0
                  CONTENTS, READONLY, DEBUGGING
 15 .debug_str    000336f0  00000000  00000000  0000f97b  2**0
                  CONTENTS, READONLY, DEBUGGING
 16 .comment      00000033  00000000  00000000  0004306b  2**0
                  CONTENTS, READONLY
 17 .debug_frame  00001540  00000000  00000000  000430a0  2**2
                  CONTENTS, READONLY, DEBUGGING
 18 .stab         00000084  00000000  00000000  000445e0  2**2
                  CONTENTS, READONLY, DEBUGGING
 19 .stabstr      00000117  00000000  00000000  00044664  2**0
                  CONTENTS, READONLY, DEBUGGING
SYMBOL TABLE:
00000000 l    d  .init	00000000 .init
00000038 l    d  .vector	00000000 .vector
00000140 l    d  .text	00000000 .text
000028c4 l    d  .fini	00000000 .fini
20000000 l    d  .dalign	00000000 .dalign
000028c4 l    d  .dlalign	00000000 .dlalign
20000000 l    d  .data	00000000 .data
20000068 l    d  .bss	00000000 .bss
20004e00 l    d  .stack	00000000 .stack
00000000 l    d  .debug_info	00000000 .debug_info
00000000 l    d  .debug_abbrev	00000000 .debug_abbrev
00000000 l    d  .debug_aranges	00000000 .debug_aranges
00000000 l    d  .debug_ranges	00000000 .debug_ranges
00000000 l    d  .debug_macro	00000000 .debug_macro
00000000 l    d  .debug_line	00000000 .debug_line
00000000 l    d  .debug_str	00000000 .debug_str
00000000 l    d  .comment	00000000 .comment
00000000 l    d  .debug_frame	00000000 .debug_frame
00000000 l    d  .stab	00000000 .stab
00000000 l    d  .stabstr	00000000 .stabstr
00000000 l    df *ABS*	00000000 ./Core/Startup/startup_ch32v20x_D6.o
00000038 l       .vector	00000000 _vector_base
00000000 l    df *ABS*	00000000 ch32v20x_usart.c
00000000 l    df *ABS*	00000000 ch32v203xx_it.c
00000000 l    df *ABS*	00000000 ch32v20x_RVMSIS.c
000005f8 l     F .text	00000032 NVIC_EnableIRQ
0000062a l     F .text	00000040 NVIC_SetPriority
00000938 l     F .text	000000ae RVMSIS_GPIO_MODE_Set
000009e6 l     F .text	000000b8 RVMSIS_GPIO_SPEED_Set
00000a9e l     F .text	00000096 RVMSIS_GPIO_CNF_Set
00000b34 l     F .text	00000178 RVMSIS_GPIO_Reg_Set
00000000 l    df *ABS*	00000000 main.c
0000142c l     F .text	0000002a NVIC_GetPriority
00000000 l    df *ABS*	00000000 syscalls.c
00000000 l    df *ABS*	00000000 printf.c
00000000 l    df *ABS*	00000000 puts.c
00000000 l    df *ABS*	00000000 wbuf.c
00000000 l    df *ABS*	00000000 wsetup.c
00000000 l    df *ABS*	00000000 fflush.c
00000000 l    df *ABS*	00000000 findfp.c
00001a7e l     F .text	00000066 std
00000000 l    df *ABS*	00000000 fwalk.c
00000000 l    df *ABS*	00000000 makebuf.c
00000000 l    df *ABS*	00000000 nano-mallocr.c
00000000 l    df *ABS*	00000000 nano-mallocr.c
00000000 l    df *ABS*	00000000 nano-vfprintf.c
00001f0c l     F .text	00000028 __sfputc_r
00000000 l    df *ABS*	00000000 nano-vfprintf_i.c
00000000 l    df *ABS*	00000000 sbrkr.c
00000000 l    df *ABS*	00000000 stdio.c
00000000 l    df *ABS*	00000000 writer.c
00000000 l    df *ABS*	00000000 closer.c
00000000 l    df *ABS*	00000000 fstatr.c
00000000 l    df *ABS*	00000000 isattyr.c
00000000 l    df *ABS*	00000000 lseekr.c
00000000 l    df *ABS*	00000000 memchr.c
00000000 l    df *ABS*	00000000 mlock.c
00000000 l    df *ABS*	00000000 readr.c
00000000 l    df *ABS*	00000000 close.c
00000000 l    df *ABS*	00000000 fstat.c
00000000 l    df *ABS*	00000000 isatty.c
00000000 l    df *ABS*	00000000 lseek.c
00000000 l    df *ABS*	00000000 read.c
00000000 l    df *ABS*	00000000 sbrk.c
20000084 l     O .bss	00000004 heap_end.1518
00000000 l    df *ABS*	00000000 impure.c
20000000 l     O .data	00000060 impure_data
00000000 l    df *ABS*	00000000 reent.c
00000276  w      .text	00000000 EXTI2_IRQHandler
000026f6 g     F .text	00000028 _isatty_r
0000164c g     F .text	000000d4 _puts_r
0000271e g     F .text	0000002c _lseek_r
2000006c g     O .bss	00000004 Delay_counter_ms
00001608 g     F .text	00000044 printf
20000860 g       .data	00000000 __global_pointer$
0000029c  w      .text	00000000 TIM1_CC_IRQHandler
00002640 g     F .text	00000030 __sseek
00001b34 g     F .text	0000006a __sinit
0000172e g     F .text	000000bc __swbuf_r
0000025a  w      .text	00000000 HardFault_Handler
20000070 g     O .bss	00000004 Timeout_counter_ms
00001aee g     F .text	00000046 __sfmoreglue
0000087c g     F .text	0000009a RVMSIS_SysTick_Timer_init
00002764 g     F .text	00000002 __malloc_unlock
00000346 g     F .text	0000005e SysTick_Handler
00001180 g     F .text	0000006c RVMSIS_FLASH_Page_erase
00001138 g     F .text	0000002a RVMSIS_FLASH_Unlock
00000268  w      .text	00000000 PVD_IRQHandler
20000074 g     O .bss	00000001 Priority
00000258  w      .text	00000000 NMI_Handler
00000278  w      .text	00000000 EXTI3_IRQHandler
00001352 g     F .text	000000da RVMSIS_FLASH_Read_data
00000264  w      .text	00000000 SW_handler
00000214 g     F .text	00000044 USART_GetFlagStatus
000026cc g     F .text	0000002a _fstat_r
200000e8 g     O .bss	00000004 errno
20000068 g       .bss	00000000 _sbss
00000200 g       *ABS*	00000000 __stack_size
00001ae4 g     F .text	0000000a _cleanup_r
00000272  w      .text	00000000 EXTI0_IRQHandler
000002a8  w      .text	00000000 I2C2_EV_IRQHandler
00001720 g     F .text	0000000e puts
0000279e g     F .text	0000000c _fstat
00000038 g       .init	00000000 _einit
0000028a  w      .text	00000000 ADC1_2_IRQHandler
00000260  w      .text	00000000 Break_Point_Handler
000002ac  w      .text	00000000 SPI1_IRQHandler
000025a4 g     F .text	00000028 _sbrk_r
0000026a  w      .text	00000000 TAMPER_IRQHandler
00002766 g     F .text	0000002c _read_r
0000025c  w      .text	00000000 Ecall_M_Mode_Handler
000027aa g     F .text	0000000c _isatty
20000064 g     O .data	00000004 _global_impure_ptr
00000282  w      .text	00000000 DMA1_Channel4_IRQHandler
000027ce g     F .text	00000020 _sbrk
00000500 g     F .text	000000ae USART3_IRQHandler
0000026c  w      .text	00000000 RTC_IRQHandler
200000ec g       .bss	00000000 _ebss
00000288  w      .text	00000000 DMA1_Channel7_IRQHandler
00000290  w      .text	00000000 CAN1_RX1_IRQHandler
000002a2  w      .text	00000000 TIM4_IRQHandler
00002828 g     O .text	00000020 __sf_fake_stderr
200000ec g       .bss	00000000 end
000002a4  w      .text	00000000 I2C1_EV_IRQHandler
000002bc  w      .text	00000000 USBHD_IRQHandler
200000b8 g     O .bss	00000018 husart3
00000286  w      .text	00000000 DMA1_Channel6_IRQHandler
00001f34 g     F .text	00000040 __sfputs_r
000002c0  w      .text	00000000 UART4_IRQHandler
0000274a g     F .text	00000018 memchr
00001d90 g     F .text	000000a8 _free_r
000005ae g     F .text	0000004a TIM3_IRQHandler
00000270  w      .text	00000000 RCC_IRQHandler
00000cac g     F .text	0000015a RVMSIS_GPIO_init
0000029a  w      .text	00000000 TIM1_TRG_COM_IRQHandler
0000027c  w      .text	00000000 DMA1_Channel1_IRQHandler
00000000 g       .init	00000000 _start
000027b6 g     F .text	0000000c _lseek
000002b6  w      .text	00000000 EXTI15_10_IRQHandler
000002c2  w      .text	00000000 DMA1_Channel8_IRQHandler
20000078 g     O .bss	00000004 Counter
000026a4 g     F .text	00000028 _close_r
20000000 g       .dalign	00000000 _data_vma
000017ea g     F .text	00000100 __swsetup_r
00000294  w      .text	00000000 EXTI9_5_IRQHandler
00001b9e g     F .text	000000a0 __sfp
00000916 g     F .text	00000022 Delay_ms
000025cc g     F .text	0000002c __sread
200000d0 g     O .bss	0000000b Flash_data_CH32
00002762 g     F .text	00000002 __malloc_lock
00001a1a g     F .text	00000064 _fflush_r
200000dc g     O .bss	0000000b Flash_data_CH32_read
000002ae  w      .text	00000000 SPI2_IRQHandler
00002848 g     O .text	00000020 __sf_fake_stdin
00000140 g     F .text	000000a8 memset
00001456 g     F .text	0000013c main
0000066a g     F .text	00000070 RVMSIS_Debug_init
00002670 g     F .text	00000006 __sclose
00001e38 g     F .text	000000d4 _malloc_r
00000284  w      .text	00000000 DMA1_Channel5_IRQHandler
0000027a  w      .text	00000000 EXTI4_IRQHandler
0000028e  w      .text	00000000 USB_LP_CAN1_RX0_IRQHandler
00001608 g     F .text	00000044 iprintf
0000028c  w      .text	00000000 USB_HP_CAN1_TX_IRQHandler
00000000 g       .init	00000000 _sinit
200000a0 g     O .bss	00000018 husart2
000002be  w      .text	00000000 USBHDWakeUp_IRQHandler
00002676 g     F .text	0000002e _write_r
00000280  w      .text	00000000 DMA1_Channel3_IRQHandler
000021f8 g     F .text	0000010c _printf_common
20000060 g     O .data	00000004 _impure_ptr
00000298  w      .text	00000000 TIM1_UP_IRQHandler
000018ea g     F .text	00000130 __sflush_r
00000266  w      .text	00000000 WWDG_IRQHandler
0000025e  w      .text	00000000 Ecall_U_Mode_Handler
0000029e  w      .text	00000000 TIM2_IRQHandler
20005000 g       .stack	00000000 _eusrstack
20000068 g     O .bss	00000004 SysTimer_ms
00000296  w      .text	00000000 TIM1_BRK_IRQHandler
00001ca8 g     F .text	00000058 __swhatbuf_r
000001e8 g     F .text	0000002c USART_SendData
00000274  w      .text	00000000 EXTI1_IRQHandler
00001592 g     F .text	00000076 _write
20000068 g       .data	00000000 _edata
00001162 g     F .text	0000001e RVMSIS_FLASH_Lock
000002b8  w      .text	00000000 RTCAlarm_IRQHandler
000028c4 g       .dlalign	00000000 _data_lma
00000452 g     F .text	000000ae USART2_IRQHandler
000025f8 g     F .text	00000048 __swrite
00001f74 g     F .text	00000284 _vfiprintf_r
00001c3e g     F .text	0000006a _fwalk_reent
000006da g     F .text	000001a2 RVMSIS_RCC_SystemClock_144MHz
000002aa  w      .text	00000000 I2C2_ER_IRQHandler
0000027e  w      .text	00000000 DMA1_Channel2_IRQHandler
00002868 g     O .text	00000020 __sf_fake_stdout
20000088 g     O .bss	00000018 husart1
000011ec g     F .text	00000166 RVMSIS_FLASH_Page_write
000027c2 g     F .text	0000000c _read
000002c4  w      .text	00000000 handle_reset
00000292  w      .text	00000000 CAN1_SCE_IRQHandler
0000026e  w      .text	00000000 FLASH_IRQHandler
000003a4 g     F .text	000000ae USART1_IRQHandler
00001d00 g     F .text	00000090 __smakebuf_r
00002304 g     F .text	000002a0 _printf_i
20000080 g     O .bss	00000004 __malloc_sbrk_start
000002a6  w      .text	00000000 I2C1_ER_IRQHandler
2000007c g     O .bss	00000004 __malloc_free_list
00000e06 g     F .text	00000332 RVMSIS_USART3_Init
00001f74 g     F .text	00000284 _vfprintf_r
000002ba  w      .text	00000000 USBWakeUp_IRQHandler
00002792 g     F .text	0000000c _close



Disassembly of section .init:

00000000 <_sinit>:
   0:	2c40006f          	j	2c4 <handle_reset>
   4:	00000013          	nop
   8:	00000013          	nop
   c:	00000013          	nop
  10:	00000013          	nop
  14:	00000013          	nop
  18:	00000013          	nop
  1c:	00000013          	nop
  20:	00000013          	nop
  24:	00000013          	nop
  28:	00000013          	nop
  2c:	00000013          	nop
  30:	00000013          	nop
  34:	00100073          	ebreak

Disassembly of section .vector:

00000038 <_vector_base>:
	...
  40:	0258                	addi	a4,sp,260
  42:	0000                	unimp
  44:	025a                	slli	tp,tp,0x16
  46:	0000                	unimp
  48:	0000                	unimp
  4a:	0000                	unimp
  4c:	025c                	addi	a5,sp,260
	...
  56:	0000                	unimp
  58:	025e                	slli	tp,tp,0x17
  5a:	0000                	unimp
  5c:	0260                	addi	s0,sp,268
	...
  66:	0000                	unimp
  68:	0346                	slli	t1,t1,0x11
  6a:	0000                	unimp
  6c:	0000                	unimp
  6e:	0000                	unimp
  70:	0264                	addi	s1,sp,268
  72:	0000                	unimp
  74:	0000                	unimp
  76:	0000                	unimp
  78:	0266                	slli	tp,tp,0x19
  7a:	0000                	unimp
  7c:	0268                	addi	a0,sp,268
  7e:	0000                	unimp
  80:	026a                	slli	tp,tp,0x1a
  82:	0000                	unimp
  84:	026c                	addi	a1,sp,268
  86:	0000                	unimp
  88:	026e                	slli	tp,tp,0x1b
  8a:	0000                	unimp
  8c:	0270                	addi	a2,sp,268
  8e:	0000                	unimp
  90:	0272                	slli	tp,tp,0x1c
  92:	0000                	unimp
  94:	0274                	addi	a3,sp,268
  96:	0000                	unimp
  98:	0276                	slli	tp,tp,0x1d
  9a:	0000                	unimp
  9c:	0278                	addi	a4,sp,268
  9e:	0000                	unimp
  a0:	027a                	slli	tp,tp,0x1e
  a2:	0000                	unimp
  a4:	027c                	addi	a5,sp,268
  a6:	0000                	unimp
  a8:	027e                	slli	tp,tp,0x1f
  aa:	0000                	unimp
  ac:	0280                	addi	s0,sp,320
  ae:	0000                	unimp
  b0:	0282                	c.slli64	t0
  b2:	0000                	unimp
  b4:	0284                	addi	s1,sp,320
  b6:	0000                	unimp
  b8:	0286                	slli	t0,t0,0x1
  ba:	0000                	unimp
  bc:	0288                	addi	a0,sp,320
  be:	0000                	unimp
  c0:	028a                	slli	t0,t0,0x2
  c2:	0000                	unimp
  c4:	028c                	addi	a1,sp,320
  c6:	0000                	unimp
  c8:	028e                	slli	t0,t0,0x3
  ca:	0000                	unimp
  cc:	0290                	addi	a2,sp,320
  ce:	0000                	unimp
  d0:	0292                	slli	t0,t0,0x4
  d2:	0000                	unimp
  d4:	0294                	addi	a3,sp,320
  d6:	0000                	unimp
  d8:	0296                	slli	t0,t0,0x5
  da:	0000                	unimp
  dc:	0298                	addi	a4,sp,320
  de:	0000                	unimp
  e0:	029a                	slli	t0,t0,0x6
  e2:	0000                	unimp
  e4:	029c                	addi	a5,sp,320
  e6:	0000                	unimp
  e8:	029e                	slli	t0,t0,0x7
  ea:	0000                	unimp
  ec:	05ae                	slli	a1,a1,0xb
  ee:	0000                	unimp
  f0:	02a2                	slli	t0,t0,0x8
  f2:	0000                	unimp
  f4:	02a4                	addi	s1,sp,328
  f6:	0000                	unimp
  f8:	02a6                	slli	t0,t0,0x9
  fa:	0000                	unimp
  fc:	02a8                	addi	a0,sp,328
  fe:	0000                	unimp
 100:	02aa                	slli	t0,t0,0xa
 102:	0000                	unimp
 104:	02ac                	addi	a1,sp,328
 106:	0000                	unimp
 108:	02ae                	slli	t0,t0,0xb
 10a:	0000                	unimp
 10c:	03a4                	addi	s1,sp,456
 10e:	0000                	unimp
 110:	0452                	slli	s0,s0,0x14
 112:	0000                	unimp
 114:	0500                	addi	s0,sp,640
 116:	0000                	unimp
 118:	02b6                	slli	t0,t0,0xd
 11a:	0000                	unimp
 11c:	02b8                	addi	a4,sp,328
 11e:	0000                	unimp
 120:	02ba                	slli	t0,t0,0xe
 122:	0000                	unimp
 124:	02bc                	addi	a5,sp,328
 126:	0000                	unimp
 128:	02be                	slli	t0,t0,0xf
 12a:	0000                	unimp
 12c:	02c0                	addi	s0,sp,324
 12e:	0000                	unimp
 130:	02c2                	slli	t0,t0,0x10
	...

Disassembly of section .text:

00000140 <memset>:
     140:	433d                	li	t1,15
     142:	872a                	mv	a4,a0
     144:	02c37363          	bgeu	t1,a2,16a <memset+0x2a>
     148:	00f77793          	andi	a5,a4,15
     14c:	efbd                	bnez	a5,1ca <memset+0x8a>
     14e:	e5ad                	bnez	a1,1b8 <memset+0x78>
     150:	ff067693          	andi	a3,a2,-16
     154:	8a3d                	andi	a2,a2,15
     156:	96ba                	add	a3,a3,a4
     158:	c30c                	sw	a1,0(a4)
     15a:	c34c                	sw	a1,4(a4)
     15c:	c70c                	sw	a1,8(a4)
     15e:	c74c                	sw	a1,12(a4)
     160:	0741                	addi	a4,a4,16
     162:	fed76be3          	bltu	a4,a3,158 <memset+0x18>
     166:	e211                	bnez	a2,16a <memset+0x2a>
     168:	8082                	ret
     16a:	40c306b3          	sub	a3,t1,a2
     16e:	068a                	slli	a3,a3,0x2
     170:	00000297          	auipc	t0,0x0
     174:	9696                	add	a3,a3,t0
     176:	00a68067          	jr	10(a3)
     17a:	00b70723          	sb	a1,14(a4)
     17e:	00b706a3          	sb	a1,13(a4)
     182:	00b70623          	sb	a1,12(a4)
     186:	00b705a3          	sb	a1,11(a4)
     18a:	00b70523          	sb	a1,10(a4)
     18e:	00b704a3          	sb	a1,9(a4)
     192:	00b70423          	sb	a1,8(a4)
     196:	00b703a3          	sb	a1,7(a4)
     19a:	00b70323          	sb	a1,6(a4)
     19e:	00b702a3          	sb	a1,5(a4)
     1a2:	00b70223          	sb	a1,4(a4)
     1a6:	00b701a3          	sb	a1,3(a4)
     1aa:	00b70123          	sb	a1,2(a4)
     1ae:	00b700a3          	sb	a1,1(a4)
     1b2:	00b70023          	sb	a1,0(a4)
     1b6:	8082                	ret
     1b8:	0ff5f593          	andi	a1,a1,255
     1bc:	00859693          	slli	a3,a1,0x8
     1c0:	8dd5                	or	a1,a1,a3
     1c2:	01059693          	slli	a3,a1,0x10
     1c6:	8dd5                	or	a1,a1,a3
     1c8:	b761                	j	150 <memset+0x10>
     1ca:	00279693          	slli	a3,a5,0x2
     1ce:	00000297          	auipc	t0,0x0
     1d2:	9696                	add	a3,a3,t0
     1d4:	8286                	mv	t0,ra
     1d6:	fa8680e7          	jalr	-88(a3)
     1da:	8096                	mv	ra,t0
     1dc:	17c1                	addi	a5,a5,-16
     1de:	8f1d                	sub	a4,a4,a5
     1e0:	963e                	add	a2,a2,a5
     1e2:	f8c374e3          	bgeu	t1,a2,16a <memset+0x2a>
     1e6:	b7a5                	j	14e <memset+0xe>

000001e8 <USART_SendData>:
     1e8:	1101                	addi	sp,sp,-32
     1ea:	ce22                	sw	s0,28(sp)
     1ec:	1000                	addi	s0,sp,32
     1ee:	fea42623          	sw	a0,-20(s0)
     1f2:	87ae                	mv	a5,a1
     1f4:	fef41523          	sh	a5,-22(s0)
     1f8:	fea45783          	lhu	a5,-22(s0)
     1fc:	1ff7f793          	andi	a5,a5,511
     200:	01079713          	slli	a4,a5,0x10
     204:	8341                	srli	a4,a4,0x10
     206:	fec42783          	lw	a5,-20(s0)
     20a:	a3da                	sh	a4,4(a5)
     20c:	0001                	nop
     20e:	4472                	lw	s0,28(sp)
     210:	6105                	addi	sp,sp,32
     212:	8082                	ret

00000214 <USART_GetFlagStatus>:
     214:	7179                	addi	sp,sp,-48
     216:	d622                	sw	s0,44(sp)
     218:	1800                	addi	s0,sp,48
     21a:	fca42e23          	sw	a0,-36(s0)
     21e:	87ae                	mv	a5,a1
     220:	fcf41d23          	sh	a5,-38(s0)
     224:	fe042623          	sw	zero,-20(s0)
     228:	fdc42783          	lw	a5,-36(s0)
     22c:	239e                	lhu	a5,0(a5)
     22e:	01079713          	slli	a4,a5,0x10
     232:	8341                	srli	a4,a4,0x10
     234:	fda45783          	lhu	a5,-38(s0)
     238:	8ff9                	and	a5,a5,a4
     23a:	07c2                	slli	a5,a5,0x10
     23c:	83c1                	srli	a5,a5,0x10
     23e:	c789                	beqz	a5,248 <USART_GetFlagStatus+0x34>
     240:	4785                	li	a5,1
     242:	fef42623          	sw	a5,-20(s0)
     246:	a019                	j	24c <USART_GetFlagStatus+0x38>
     248:	fe042623          	sw	zero,-20(s0)
     24c:	fec42783          	lw	a5,-20(s0)
     250:	853e                	mv	a0,a5
     252:	5432                	lw	s0,44(sp)
     254:	6145                	addi	sp,sp,48
     256:	8082                	ret

00000258 <NMI_Handler>:
     258:	a001                	j	258 <NMI_Handler>

0000025a <HardFault_Handler>:
     25a:	a001                	j	25a <HardFault_Handler>

0000025c <Ecall_M_Mode_Handler>:
     25c:	a001                	j	25c <Ecall_M_Mode_Handler>

0000025e <Ecall_U_Mode_Handler>:
     25e:	a001                	j	25e <Ecall_U_Mode_Handler>

00000260 <Break_Point_Handler>:
     260:	a001                	j	260 <Break_Point_Handler>
     262:	a001                	j	262 <Break_Point_Handler+0x2>

00000264 <SW_handler>:
     264:	a001                	j	264 <SW_handler>

00000266 <WWDG_IRQHandler>:
     266:	a001                	j	266 <WWDG_IRQHandler>

00000268 <PVD_IRQHandler>:
     268:	a001                	j	268 <PVD_IRQHandler>

0000026a <TAMPER_IRQHandler>:
     26a:	a001                	j	26a <TAMPER_IRQHandler>

0000026c <RTC_IRQHandler>:
     26c:	a001                	j	26c <RTC_IRQHandler>

0000026e <FLASH_IRQHandler>:
     26e:	a001                	j	26e <FLASH_IRQHandler>

00000270 <RCC_IRQHandler>:
     270:	a001                	j	270 <RCC_IRQHandler>

00000272 <EXTI0_IRQHandler>:
     272:	a001                	j	272 <EXTI0_IRQHandler>

00000274 <EXTI1_IRQHandler>:
     274:	a001                	j	274 <EXTI1_IRQHandler>

00000276 <EXTI2_IRQHandler>:
     276:	a001                	j	276 <EXTI2_IRQHandler>

00000278 <EXTI3_IRQHandler>:
     278:	a001                	j	278 <EXTI3_IRQHandler>

0000027a <EXTI4_IRQHandler>:
     27a:	a001                	j	27a <EXTI4_IRQHandler>

0000027c <DMA1_Channel1_IRQHandler>:
     27c:	a001                	j	27c <DMA1_Channel1_IRQHandler>

0000027e <DMA1_Channel2_IRQHandler>:
     27e:	a001                	j	27e <DMA1_Channel2_IRQHandler>

00000280 <DMA1_Channel3_IRQHandler>:
     280:	a001                	j	280 <DMA1_Channel3_IRQHandler>

00000282 <DMA1_Channel4_IRQHandler>:
     282:	a001                	j	282 <DMA1_Channel4_IRQHandler>

00000284 <DMA1_Channel5_IRQHandler>:
     284:	a001                	j	284 <DMA1_Channel5_IRQHandler>

00000286 <DMA1_Channel6_IRQHandler>:
     286:	a001                	j	286 <DMA1_Channel6_IRQHandler>

00000288 <DMA1_Channel7_IRQHandler>:
     288:	a001                	j	288 <DMA1_Channel7_IRQHandler>

0000028a <ADC1_2_IRQHandler>:
     28a:	a001                	j	28a <ADC1_2_IRQHandler>

0000028c <USB_HP_CAN1_TX_IRQHandler>:
     28c:	a001                	j	28c <USB_HP_CAN1_TX_IRQHandler>

0000028e <USB_LP_CAN1_RX0_IRQHandler>:
     28e:	a001                	j	28e <USB_LP_CAN1_RX0_IRQHandler>

00000290 <CAN1_RX1_IRQHandler>:
     290:	a001                	j	290 <CAN1_RX1_IRQHandler>

00000292 <CAN1_SCE_IRQHandler>:
     292:	a001                	j	292 <CAN1_SCE_IRQHandler>

00000294 <EXTI9_5_IRQHandler>:
     294:	a001                	j	294 <EXTI9_5_IRQHandler>

00000296 <TIM1_BRK_IRQHandler>:
     296:	a001                	j	296 <TIM1_BRK_IRQHandler>

00000298 <TIM1_UP_IRQHandler>:
     298:	a001                	j	298 <TIM1_UP_IRQHandler>

0000029a <TIM1_TRG_COM_IRQHandler>:
     29a:	a001                	j	29a <TIM1_TRG_COM_IRQHandler>

0000029c <TIM1_CC_IRQHandler>:
     29c:	a001                	j	29c <TIM1_CC_IRQHandler>

0000029e <TIM2_IRQHandler>:
     29e:	a001                	j	29e <TIM2_IRQHandler>
     2a0:	a001                	j	2a0 <TIM2_IRQHandler+0x2>

000002a2 <TIM4_IRQHandler>:
     2a2:	a001                	j	2a2 <TIM4_IRQHandler>

000002a4 <I2C1_EV_IRQHandler>:
     2a4:	a001                	j	2a4 <I2C1_EV_IRQHandler>

000002a6 <I2C1_ER_IRQHandler>:
     2a6:	a001                	j	2a6 <I2C1_ER_IRQHandler>

000002a8 <I2C2_EV_IRQHandler>:
     2a8:	a001                	j	2a8 <I2C2_EV_IRQHandler>

000002aa <I2C2_ER_IRQHandler>:
     2aa:	a001                	j	2aa <I2C2_ER_IRQHandler>

000002ac <SPI1_IRQHandler>:
     2ac:	a001                	j	2ac <SPI1_IRQHandler>

000002ae <SPI2_IRQHandler>:
     2ae:	a001                	j	2ae <SPI2_IRQHandler>
     2b0:	a001                	j	2b0 <SPI2_IRQHandler+0x2>
     2b2:	a001                	j	2b2 <SPI2_IRQHandler+0x4>
     2b4:	a001                	j	2b4 <SPI2_IRQHandler+0x6>

000002b6 <EXTI15_10_IRQHandler>:
     2b6:	a001                	j	2b6 <EXTI15_10_IRQHandler>

000002b8 <RTCAlarm_IRQHandler>:
     2b8:	a001                	j	2b8 <RTCAlarm_IRQHandler>

000002ba <USBWakeUp_IRQHandler>:
     2ba:	a001                	j	2ba <USBWakeUp_IRQHandler>

000002bc <USBHD_IRQHandler>:
     2bc:	a001                	j	2bc <USBHD_IRQHandler>

000002be <USBHDWakeUp_IRQHandler>:
     2be:	a001                	j	2be <USBHDWakeUp_IRQHandler>

000002c0 <UART4_IRQHandler>:
     2c0:	a001                	j	2c0 <UART4_IRQHandler>

000002c2 <DMA1_Channel8_IRQHandler>:
     2c2:	a001                	j	2c2 <DMA1_Channel8_IRQHandler>

000002c4 <handle_reset>:
     2c4:	20000197          	auipc	gp,0x20000
     2c8:	59c18193          	addi	gp,gp,1436 # 20000860 <__global_pointer$>
     2cc:	20005117          	auipc	sp,0x20005
     2d0:	d3410113          	addi	sp,sp,-716 # 20005000 <_eusrstack>
     2d4:	00002517          	auipc	a0,0x2
     2d8:	5f050513          	addi	a0,a0,1520 # 28c4 <_data_lma>
     2dc:	20000597          	auipc	a1,0x20000
     2e0:	d2458593          	addi	a1,a1,-732 # 20000000 <_data_vma>
     2e4:	80818613          	addi	a2,gp,-2040 # 20000068 <_edata>
     2e8:	00c5fa63          	bgeu	a1,a2,2fc <handle_reset+0x38>
     2ec:	00052283          	lw	t0,0(a0)
     2f0:	0055a023          	sw	t0,0(a1)
     2f4:	0511                	addi	a0,a0,4
     2f6:	0591                	addi	a1,a1,4
     2f8:	fec5eae3          	bltu	a1,a2,2ec <handle_reset+0x28>
     2fc:	80818513          	addi	a0,gp,-2040 # 20000068 <_edata>
     300:	88c18593          	addi	a1,gp,-1908 # 200000ec <_ebss>
     304:	00b57763          	bgeu	a0,a1,312 <handle_reset+0x4e>
     308:	00052023          	sw	zero,0(a0)
     30c:	0511                	addi	a0,a0,4
     30e:	feb56de3          	bltu	a0,a1,308 <handle_reset+0x44>
     312:	42fd                	li	t0,31
     314:	bc029073          	csrw	0xbc0,t0
     318:	428d                	li	t0,3
     31a:	80429073          	csrw	0x804,t0
     31e:	08800293          	li	t0,136
     322:	3002a073          	csrs	mstatus,t0
     326:	00000297          	auipc	t0,0x0
     32a:	d1228293          	addi	t0,t0,-750 # 38 <_einit>
     32e:	0032e293          	ori	t0,t0,3
     332:	30529073          	csrw	mtvec,t0
     336:	00001297          	auipc	t0,0x1
     33a:	12028293          	addi	t0,t0,288 # 1456 <main>
     33e:	34129073          	csrw	mepc,t0
     342:	30200073          	mret

00000346 <SysTick_Handler>:
     346:	1141                	addi	sp,sp,-16
     348:	c622                	sw	s0,12(sp)
     34a:	c43a                	sw	a4,8(sp)
     34c:	c23e                	sw	a5,4(sp)
     34e:	0800                	addi	s0,sp,16
     350:	e000f7b7          	lui	a5,0xe000f
     354:	43d8                	lw	a4,4(a5)
     356:	e000f7b7          	lui	a5,0xe000f
     35a:	9b79                	andi	a4,a4,-2
     35c:	c3d8                	sw	a4,4(a5)
     35e:	200007b7          	lui	a5,0x20000
     362:	0687a783          	lw	a5,104(a5) # 20000068 <_edata>
     366:	00178713          	addi	a4,a5,1
     36a:	200007b7          	lui	a5,0x20000
     36e:	06e7a423          	sw	a4,104(a5) # 20000068 <_edata>
     372:	80c1a783          	lw	a5,-2036(gp) # 2000006c <Delay_counter_ms>
     376:	c799                	beqz	a5,384 <SysTick_Handler+0x3e>
     378:	80c1a783          	lw	a5,-2036(gp) # 2000006c <Delay_counter_ms>
     37c:	fff78713          	addi	a4,a5,-1
     380:	80e1a623          	sw	a4,-2036(gp) # 2000006c <Delay_counter_ms>
     384:	8101a783          	lw	a5,-2032(gp) # 20000070 <Timeout_counter_ms>
     388:	c799                	beqz	a5,396 <SysTick_Handler+0x50>
     38a:	8101a783          	lw	a5,-2032(gp) # 20000070 <Timeout_counter_ms>
     38e:	fff78713          	addi	a4,a5,-1
     392:	80e1a823          	sw	a4,-2032(gp) # 20000070 <Timeout_counter_ms>
     396:	0001                	nop
     398:	4432                	lw	s0,12(sp)
     39a:	4722                	lw	a4,8(sp)
     39c:	4792                	lw	a5,4(sp)
     39e:	0141                	addi	sp,sp,16
     3a0:	30200073          	mret

000003a4 <USART1_IRQHandler>:
     3a4:	1141                	addi	sp,sp,-16
     3a6:	c622                	sw	s0,12(sp)
     3a8:	c436                	sw	a3,8(sp)
     3aa:	c23a                	sw	a4,4(sp)
     3ac:	c03e                	sw	a5,0(sp)
     3ae:	0800                	addi	s0,sp,16
     3b0:	400147b7          	lui	a5,0x40014
     3b4:	80078793          	addi	a5,a5,-2048 # 40013800 <_eusrstack+0x2000e800>
     3b8:	239e                	lhu	a5,0(a5)
     3ba:	07c2                	slli	a5,a5,0x10
     3bc:	83c1                	srli	a5,a5,0x10
     3be:	0207f793          	andi	a5,a5,32
     3c2:	cba1                	beqz	a5,412 <USART1_IRQHandler+0x6e>
     3c4:	82818793          	addi	a5,gp,-2008 # 20000088 <husart1>
     3c8:	2bda                	lhu	a4,20(a5)
     3ca:	47cd                	li	a5,19
     3cc:	02e7ef63          	bltu	a5,a4,40a <USART1_IRQHandler+0x66>
     3d0:	400147b7          	lui	a5,0x40014
     3d4:	80078793          	addi	a5,a5,-2048 # 40013800 <_eusrstack+0x2000e800>
     3d8:	23de                	lhu	a5,4(a5)
     3da:	01079713          	slli	a4,a5,0x10
     3de:	8341                	srli	a4,a4,0x10
     3e0:	82818793          	addi	a5,gp,-2008 # 20000088 <husart1>
     3e4:	2bde                	lhu	a5,20(a5)
     3e6:	86be                	mv	a3,a5
     3e8:	0ff77713          	andi	a4,a4,255
     3ec:	82818793          	addi	a5,gp,-2008 # 20000088 <husart1>
     3f0:	97b6                	add	a5,a5,a3
     3f2:	a398                	sb	a4,0(a5)
     3f4:	82818793          	addi	a5,gp,-2008 # 20000088 <husart1>
     3f8:	2bde                	lhu	a5,20(a5)
     3fa:	0785                	addi	a5,a5,1
     3fc:	01079713          	slli	a4,a5,0x10
     400:	8341                	srli	a4,a4,0x10
     402:	82818793          	addi	a5,gp,-2008 # 20000088 <husart1>
     406:	abda                	sh	a4,20(a5)
     408:	a029                	j	412 <USART1_IRQHandler+0x6e>
     40a:	82818793          	addi	a5,gp,-2008 # 20000088 <husart1>
     40e:	00079a23          	sh	zero,20(a5)
     412:	400147b7          	lui	a5,0x40014
     416:	80078793          	addi	a5,a5,-2048 # 40013800 <_eusrstack+0x2000e800>
     41a:	239e                	lhu	a5,0(a5)
     41c:	07c2                	slli	a5,a5,0x10
     41e:	83c1                	srli	a5,a5,0x10
     420:	8bc1                	andi	a5,a5,16
     422:	c385                	beqz	a5,442 <USART1_IRQHandler+0x9e>
     424:	400147b7          	lui	a5,0x40014
     428:	80078793          	addi	a5,a5,-2048 # 40013800 <_eusrstack+0x2000e800>
     42c:	23de                	lhu	a5,4(a5)
     42e:	82818793          	addi	a5,gp,-2008 # 20000088 <husart1>
     432:	2bda                	lhu	a4,20(a5)
     434:	82818793          	addi	a5,gp,-2008 # 20000088 <husart1>
     438:	abfa                	sh	a4,22(a5)
     43a:	82818793          	addi	a5,gp,-2008 # 20000088 <husart1>
     43e:	00079a23          	sh	zero,20(a5)
     442:	0001                	nop
     444:	4432                	lw	s0,12(sp)
     446:	46a2                	lw	a3,8(sp)
     448:	4712                	lw	a4,4(sp)
     44a:	4782                	lw	a5,0(sp)
     44c:	0141                	addi	sp,sp,16
     44e:	30200073          	mret

00000452 <USART2_IRQHandler>:
     452:	1141                	addi	sp,sp,-16
     454:	c622                	sw	s0,12(sp)
     456:	c436                	sw	a3,8(sp)
     458:	c23a                	sw	a4,4(sp)
     45a:	c03e                	sw	a5,0(sp)
     45c:	0800                	addi	s0,sp,16
     45e:	400047b7          	lui	a5,0x40004
     462:	40078793          	addi	a5,a5,1024 # 40004400 <_eusrstack+0x1ffff400>
     466:	239e                	lhu	a5,0(a5)
     468:	07c2                	slli	a5,a5,0x10
     46a:	83c1                	srli	a5,a5,0x10
     46c:	0207f793          	andi	a5,a5,32
     470:	cba1                	beqz	a5,4c0 <USART2_IRQHandler+0x6e>
     472:	84018793          	addi	a5,gp,-1984 # 200000a0 <husart2>
     476:	2bda                	lhu	a4,20(a5)
     478:	47cd                	li	a5,19
     47a:	02e7ef63          	bltu	a5,a4,4b8 <USART2_IRQHandler+0x66>
     47e:	400047b7          	lui	a5,0x40004
     482:	40078793          	addi	a5,a5,1024 # 40004400 <_eusrstack+0x1ffff400>
     486:	23de                	lhu	a5,4(a5)
     488:	01079713          	slli	a4,a5,0x10
     48c:	8341                	srli	a4,a4,0x10
     48e:	84018793          	addi	a5,gp,-1984 # 200000a0 <husart2>
     492:	2bde                	lhu	a5,20(a5)
     494:	86be                	mv	a3,a5
     496:	0ff77713          	andi	a4,a4,255
     49a:	84018793          	addi	a5,gp,-1984 # 200000a0 <husart2>
     49e:	97b6                	add	a5,a5,a3
     4a0:	a398                	sb	a4,0(a5)
     4a2:	84018793          	addi	a5,gp,-1984 # 200000a0 <husart2>
     4a6:	2bde                	lhu	a5,20(a5)
     4a8:	0785                	addi	a5,a5,1
     4aa:	01079713          	slli	a4,a5,0x10
     4ae:	8341                	srli	a4,a4,0x10
     4b0:	84018793          	addi	a5,gp,-1984 # 200000a0 <husart2>
     4b4:	abda                	sh	a4,20(a5)
     4b6:	a029                	j	4c0 <USART2_IRQHandler+0x6e>
     4b8:	84018793          	addi	a5,gp,-1984 # 200000a0 <husart2>
     4bc:	00079a23          	sh	zero,20(a5)
     4c0:	400047b7          	lui	a5,0x40004
     4c4:	40078793          	addi	a5,a5,1024 # 40004400 <_eusrstack+0x1ffff400>
     4c8:	239e                	lhu	a5,0(a5)
     4ca:	07c2                	slli	a5,a5,0x10
     4cc:	83c1                	srli	a5,a5,0x10
     4ce:	8bc1                	andi	a5,a5,16
     4d0:	c385                	beqz	a5,4f0 <USART2_IRQHandler+0x9e>
     4d2:	400047b7          	lui	a5,0x40004
     4d6:	40078793          	addi	a5,a5,1024 # 40004400 <_eusrstack+0x1ffff400>
     4da:	23de                	lhu	a5,4(a5)
     4dc:	84018793          	addi	a5,gp,-1984 # 200000a0 <husart2>
     4e0:	2bda                	lhu	a4,20(a5)
     4e2:	84018793          	addi	a5,gp,-1984 # 200000a0 <husart2>
     4e6:	abfa                	sh	a4,22(a5)
     4e8:	84018793          	addi	a5,gp,-1984 # 200000a0 <husart2>
     4ec:	00079a23          	sh	zero,20(a5)
     4f0:	0001                	nop
     4f2:	4432                	lw	s0,12(sp)
     4f4:	46a2                	lw	a3,8(sp)
     4f6:	4712                	lw	a4,4(sp)
     4f8:	4782                	lw	a5,0(sp)
     4fa:	0141                	addi	sp,sp,16
     4fc:	30200073          	mret

00000500 <USART3_IRQHandler>:
     500:	1141                	addi	sp,sp,-16
     502:	c622                	sw	s0,12(sp)
     504:	c436                	sw	a3,8(sp)
     506:	c23a                	sw	a4,4(sp)
     508:	c03e                	sw	a5,0(sp)
     50a:	0800                	addi	s0,sp,16
     50c:	400057b7          	lui	a5,0x40005
     510:	80078793          	addi	a5,a5,-2048 # 40004800 <_eusrstack+0x1ffff800>
     514:	239e                	lhu	a5,0(a5)
     516:	07c2                	slli	a5,a5,0x10
     518:	83c1                	srli	a5,a5,0x10
     51a:	0207f793          	andi	a5,a5,32
     51e:	cba1                	beqz	a5,56e <USART3_IRQHandler+0x6e>
     520:	85818793          	addi	a5,gp,-1960 # 200000b8 <husart3>
     524:	2bda                	lhu	a4,20(a5)
     526:	47cd                	li	a5,19
     528:	02e7ef63          	bltu	a5,a4,566 <USART3_IRQHandler+0x66>
     52c:	400057b7          	lui	a5,0x40005
     530:	80078793          	addi	a5,a5,-2048 # 40004800 <_eusrstack+0x1ffff800>
     534:	23de                	lhu	a5,4(a5)
     536:	01079713          	slli	a4,a5,0x10
     53a:	8341                	srli	a4,a4,0x10
     53c:	85818793          	addi	a5,gp,-1960 # 200000b8 <husart3>
     540:	2bde                	lhu	a5,20(a5)
     542:	86be                	mv	a3,a5
     544:	0ff77713          	andi	a4,a4,255
     548:	85818793          	addi	a5,gp,-1960 # 200000b8 <husart3>
     54c:	97b6                	add	a5,a5,a3
     54e:	a398                	sb	a4,0(a5)
     550:	85818793          	addi	a5,gp,-1960 # 200000b8 <husart3>
     554:	2bde                	lhu	a5,20(a5)
     556:	0785                	addi	a5,a5,1
     558:	01079713          	slli	a4,a5,0x10
     55c:	8341                	srli	a4,a4,0x10
     55e:	85818793          	addi	a5,gp,-1960 # 200000b8 <husart3>
     562:	abda                	sh	a4,20(a5)
     564:	a029                	j	56e <USART3_IRQHandler+0x6e>
     566:	85818793          	addi	a5,gp,-1960 # 200000b8 <husart3>
     56a:	00079a23          	sh	zero,20(a5)
     56e:	400057b7          	lui	a5,0x40005
     572:	80078793          	addi	a5,a5,-2048 # 40004800 <_eusrstack+0x1ffff800>
     576:	239e                	lhu	a5,0(a5)
     578:	07c2                	slli	a5,a5,0x10
     57a:	83c1                	srli	a5,a5,0x10
     57c:	8bc1                	andi	a5,a5,16
     57e:	c385                	beqz	a5,59e <USART3_IRQHandler+0x9e>
     580:	400057b7          	lui	a5,0x40005
     584:	80078793          	addi	a5,a5,-2048 # 40004800 <_eusrstack+0x1ffff800>
     588:	23de                	lhu	a5,4(a5)
     58a:	85818793          	addi	a5,gp,-1960 # 200000b8 <husart3>
     58e:	2bda                	lhu	a4,20(a5)
     590:	85818793          	addi	a5,gp,-1960 # 200000b8 <husart3>
     594:	abfa                	sh	a4,22(a5)
     596:	85818793          	addi	a5,gp,-1960 # 200000b8 <husart3>
     59a:	00079a23          	sh	zero,20(a5)
     59e:	0001                	nop
     5a0:	4432                	lw	s0,12(sp)
     5a2:	46a2                	lw	a3,8(sp)
     5a4:	4712                	lw	a4,4(sp)
     5a6:	4782                	lw	a5,0(sp)
     5a8:	0141                	addi	sp,sp,16
     5aa:	30200073          	mret

000005ae <TIM3_IRQHandler>:
     5ae:	1141                	addi	sp,sp,-16
     5b0:	c622                	sw	s0,12(sp)
     5b2:	c43a                	sw	a4,8(sp)
     5b4:	c23e                	sw	a5,4(sp)
     5b6:	0800                	addi	s0,sp,16
     5b8:	400007b7          	lui	a5,0x40000
     5bc:	40078793          	addi	a5,a5,1024 # 40000400 <_eusrstack+0x1fffb400>
     5c0:	2b9e                	lhu	a5,16(a5)
     5c2:	07c2                	slli	a5,a5,0x10
     5c4:	83c1                	srli	a5,a5,0x10
     5c6:	8b85                	andi	a5,a5,1
     5c8:	c38d                	beqz	a5,5ea <TIM3_IRQHandler+0x3c>
     5ca:	400007b7          	lui	a5,0x40000
     5ce:	40078793          	addi	a5,a5,1024 # 40000400 <_eusrstack+0x1fffb400>
     5d2:	2b9e                	lhu	a5,16(a5)
     5d4:	01079713          	slli	a4,a5,0x10
     5d8:	8341                	srli	a4,a4,0x10
     5da:	400007b7          	lui	a5,0x40000
     5de:	40078793          	addi	a5,a5,1024 # 40000400 <_eusrstack+0x1fffb400>
     5e2:	9b79                	andi	a4,a4,-2
     5e4:	0742                	slli	a4,a4,0x10
     5e6:	8341                	srli	a4,a4,0x10
     5e8:	ab9a                	sh	a4,16(a5)
     5ea:	0001                	nop
     5ec:	4432                	lw	s0,12(sp)
     5ee:	4722                	lw	a4,8(sp)
     5f0:	4792                	lw	a5,4(sp)
     5f2:	0141                	addi	sp,sp,16
     5f4:	30200073          	mret

000005f8 <NVIC_EnableIRQ>:
     5f8:	1101                	addi	sp,sp,-32
     5fa:	ce22                	sw	s0,28(sp)
     5fc:	1000                	addi	s0,sp,32
     5fe:	fea42623          	sw	a0,-20(s0)
     602:	fec42783          	lw	a5,-20(s0)
     606:	8bfd                	andi	a5,a5,31
     608:	4705                	li	a4,1
     60a:	00f716b3          	sll	a3,a4,a5
     60e:	e000e737          	lui	a4,0xe000e
     612:	fec42783          	lw	a5,-20(s0)
     616:	8395                	srli	a5,a5,0x5
     618:	04078793          	addi	a5,a5,64
     61c:	078a                	slli	a5,a5,0x2
     61e:	97ba                	add	a5,a5,a4
     620:	c394                	sw	a3,0(a5)
     622:	0001                	nop
     624:	4472                	lw	s0,28(sp)
     626:	6105                	addi	sp,sp,32
     628:	8082                	ret

0000062a <NVIC_SetPriority>:
     62a:	1101                	addi	sp,sp,-32
     62c:	ce22                	sw	s0,28(sp)
     62e:	1000                	addi	s0,sp,32
     630:	fea42623          	sw	a0,-20(s0)
     634:	87ae                	mv	a5,a1
     636:	fef405a3          	sb	a5,-21(s0)
     63a:	feb44703          	lbu	a4,-21(s0)
     63e:	479d                	li	a5,7
     640:	00e7f563          	bgeu	a5,a4,64a <NVIC_SetPriority+0x20>
     644:	479d                	li	a5,7
     646:	fef405a3          	sb	a5,-21(s0)
     64a:	e000e6b7          	lui	a3,0xe000e
     64e:	feb44783          	lbu	a5,-21(s0)
     652:	0796                	slli	a5,a5,0x5
     654:	0ff7f713          	andi	a4,a5,255
     658:	fec42783          	lw	a5,-20(s0)
     65c:	97b6                	add	a5,a5,a3
     65e:	40e78023          	sb	a4,1024(a5)
     662:	0001                	nop
     664:	4472                	lw	s0,28(sp)
     666:	6105                	addi	sp,sp,32
     668:	8082                	ret

0000066a <RVMSIS_Debug_init>:
     66a:	1141                	addi	sp,sp,-16
     66c:	c622                	sw	s0,12(sp)
     66e:	0800                	addi	s0,sp,16
     670:	400217b7          	lui	a5,0x40021
     674:	4f98                	lw	a4,24(a5)
     676:	400217b7          	lui	a5,0x40021
     67a:	00476713          	ori	a4,a4,4
     67e:	cf98                	sw	a4,24(a5)
     680:	400217b7          	lui	a5,0x40021
     684:	4f98                	lw	a4,24(a5)
     686:	400217b7          	lui	a5,0x40021
     68a:	00176713          	ori	a4,a4,1
     68e:	cf98                	sw	a4,24(a5)
     690:	400107b7          	lui	a5,0x40010
     694:	43d4                	lw	a3,4(a5)
     696:	400107b7          	lui	a5,0x40010
     69a:	f9000737          	lui	a4,0xf9000
     69e:	177d                	addi	a4,a4,-1
     6a0:	8f75                	and	a4,a4,a3
     6a2:	c3d8                	sw	a4,4(a5)
     6a4:	400117b7          	lui	a5,0x40011
     6a8:	80078793          	addi	a5,a5,-2048 # 40010800 <_eusrstack+0x2000b800>
     6ac:	6759                	lui	a4,0x16
     6ae:	cf98                	sw	a4,24(a5)
     6b0:	400117b7          	lui	a5,0x40011
     6b4:	80078793          	addi	a5,a5,-2048 # 40010800 <_eusrstack+0x2000b800>
     6b8:	6719                	lui	a4,0x6
     6ba:	cf98                	sw	a4,24(a5)
     6bc:	400117b7          	lui	a5,0x40011
     6c0:	80078793          	addi	a5,a5,-2048 # 40010800 <_eusrstack+0x2000b800>
     6c4:	6759                	lui	a4,0x16
     6c6:	cf98                	sw	a4,24(a5)
     6c8:	400117b7          	lui	a5,0x40011
     6cc:	80078793          	addi	a5,a5,-2048 # 40010800 <_eusrstack+0x2000b800>
     6d0:	4f9c                	lw	a5,24(a5)
     6d2:	0001                	nop
     6d4:	4432                	lw	s0,12(sp)
     6d6:	0141                	addi	sp,sp,16
     6d8:	8082                	ret

000006da <RVMSIS_RCC_SystemClock_144MHz>:
     6da:	1141                	addi	sp,sp,-16
     6dc:	c622                	sw	s0,12(sp)
     6de:	0800                	addi	s0,sp,16
     6e0:	400217b7          	lui	a5,0x40021
     6e4:	4398                	lw	a4,0(a5)
     6e6:	400217b7          	lui	a5,0x40021
     6ea:	00176713          	ori	a4,a4,1
     6ee:	c398                	sw	a4,0(a5)
     6f0:	0001                	nop
     6f2:	400217b7          	lui	a5,0x40021
     6f6:	439c                	lw	a5,0(a5)
     6f8:	8b89                	andi	a5,a5,2
     6fa:	dfe5                	beqz	a5,6f2 <RVMSIS_RCC_SystemClock_144MHz+0x18>
     6fc:	400217b7          	lui	a5,0x40021
     700:	4394                	lw	a3,0(a5)
     702:	400217b7          	lui	a5,0x40021
     706:	fffc0737          	lui	a4,0xfffc0
     70a:	177d                	addi	a4,a4,-1
     70c:	8f75                	and	a4,a4,a3
     70e:	c398                	sw	a4,0(a5)
     710:	400217b7          	lui	a5,0x40021
     714:	4394                	lw	a3,0(a5)
     716:	400217b7          	lui	a5,0x40021
     71a:	6741                	lui	a4,0x10
     71c:	8f55                	or	a4,a4,a3
     71e:	c398                	sw	a4,0(a5)
     720:	0001                	nop
     722:	400217b7          	lui	a5,0x40021
     726:	4398                	lw	a4,0(a5)
     728:	000207b7          	lui	a5,0x20
     72c:	8ff9                	and	a5,a5,a4
     72e:	dbf5                	beqz	a5,722 <RVMSIS_RCC_SystemClock_144MHz+0x48>
     730:	400217b7          	lui	a5,0x40021
     734:	4394                	lw	a3,0(a5)
     736:	400217b7          	lui	a5,0x40021
     73a:	00080737          	lui	a4,0x80
     73e:	8f55                	or	a4,a4,a3
     740:	c398                	sw	a4,0(a5)
     742:	400217b7          	lui	a5,0x40021
     746:	43dc                	lw	a5,4(a5)
     748:	ffc7f713          	andi	a4,a5,-4
     74c:	400217b7          	lui	a5,0x40021
     750:	00176713          	ori	a4,a4,1
     754:	c3d8                	sw	a4,4(a5)
     756:	400217b7          	lui	a5,0x40021
     75a:	4394                	lw	a3,0(a5)
     75c:	400217b7          	lui	a5,0x40021
     760:	ff000737          	lui	a4,0xff000
     764:	177d                	addi	a4,a4,-1
     766:	8f75                	and	a4,a4,a3
     768:	c398                	sw	a4,0(a5)
     76a:	400217b7          	lui	a5,0x40021
     76e:	43dc                	lw	a5,4(a5)
     770:	f0f7f713          	andi	a4,a5,-241
     774:	400217b7          	lui	a5,0x40021
     778:	08076713          	ori	a4,a4,128
     77c:	c3d8                	sw	a4,4(a5)
     77e:	400227b7          	lui	a5,0x40022
     782:	4b94                	lw	a3,16(a5)
     784:	400227b7          	lui	a5,0x40022
     788:	fe000737          	lui	a4,0xfe000
     78c:	177d                	addi	a4,a4,-1
     78e:	8f75                	and	a4,a4,a3
     790:	cb98                	sw	a4,16(a5)
     792:	400217b7          	lui	a5,0x40021
     796:	43dc                	lw	a5,4(a5)
     798:	8ff7f713          	andi	a4,a5,-1793
     79c:	400217b7          	lui	a5,0x40021
     7a0:	40076713          	ori	a4,a4,1024
     7a4:	c3d8                	sw	a4,4(a5)
     7a6:	400217b7          	lui	a5,0x40021
     7aa:	43d4                	lw	a3,4(a5)
     7ac:	400217b7          	lui	a5,0x40021
     7b0:	7771                	lui	a4,0xffffc
     7b2:	7ff70713          	addi	a4,a4,2047 # ffffc7ff <_eusrstack+0xdfff77ff>
     7b6:	8f75                	and	a4,a4,a3
     7b8:	c3d8                	sw	a4,4(a5)
     7ba:	400217b7          	lui	a5,0x40021
     7be:	43d8                	lw	a4,4(a5)
     7c0:	77d1                	lui	a5,0xffff4
     7c2:	17fd                	addi	a5,a5,-1
     7c4:	00f776b3          	and	a3,a4,a5
     7c8:	400217b7          	lui	a5,0x40021
     7cc:	6721                	lui	a4,0x8
     7ce:	8f55                	or	a4,a4,a3
     7d0:	c3d8                	sw	a4,4(a5)
     7d2:	400217b7          	lui	a5,0x40021
     7d6:	43d4                	lw	a3,4(a5)
     7d8:	400217b7          	lui	a5,0x40021
     7dc:	7701                	lui	a4,0xfffe0
     7de:	177d                	addi	a4,a4,-1
     7e0:	8f75                	and	a4,a4,a3
     7e2:	c3d8                	sw	a4,4(a5)
     7e4:	400217b7          	lui	a5,0x40021
     7e8:	43d4                	lw	a3,4(a5)
     7ea:	400217b7          	lui	a5,0x40021
     7ee:	6741                	lui	a4,0x10
     7f0:	8f55                	or	a4,a4,a3
     7f2:	c3d8                	sw	a4,4(a5)
     7f4:	400217b7          	lui	a5,0x40021
     7f8:	43d4                	lw	a3,4(a5)
     7fa:	400217b7          	lui	a5,0x40021
     7fe:	003c0737          	lui	a4,0x3c0
     802:	8f55                	or	a4,a4,a3
     804:	c3d8                	sw	a4,4(a5)
     806:	400217b7          	lui	a5,0x40021
     80a:	43d8                	lw	a4,4(a5)
     80c:	ff4007b7          	lui	a5,0xff400
     810:	17fd                	addi	a5,a5,-1
     812:	00f776b3          	and	a3,a4,a5
     816:	400217b7          	lui	a5,0x40021
     81a:	00800737          	lui	a4,0x800
     81e:	8f55                	or	a4,a4,a3
     820:	c3d8                	sw	a4,4(a5)
     822:	400217b7          	lui	a5,0x40021
     826:	43d8                	lw	a4,4(a5)
     828:	f90007b7          	lui	a5,0xf9000
     82c:	17fd                	addi	a5,a5,-1
     82e:	00f776b3          	and	a3,a4,a5
     832:	400217b7          	lui	a5,0x40021
     836:	06000737          	lui	a4,0x6000
     83a:	8f55                	or	a4,a4,a3
     83c:	c3d8                	sw	a4,4(a5)
     83e:	400217b7          	lui	a5,0x40021
     842:	4394                	lw	a3,0(a5)
     844:	400217b7          	lui	a5,0x40021
     848:	01000737          	lui	a4,0x1000
     84c:	8f55                	or	a4,a4,a3
     84e:	c398                	sw	a4,0(a5)
     850:	400217b7          	lui	a5,0x40021
     854:	43dc                	lw	a5,4(a5)
     856:	ffc7f713          	andi	a4,a5,-4
     85a:	400217b7          	lui	a5,0x40021
     85e:	00276713          	ori	a4,a4,2
     862:	c3d8                	sw	a4,4(a5)
     864:	0001                	nop
     866:	400217b7          	lui	a5,0x40021
     86a:	4398                	lw	a4,0(a5)
     86c:	020007b7          	lui	a5,0x2000
     870:	8ff9                	and	a5,a5,a4
     872:	dbf5                	beqz	a5,866 <RVMSIS_RCC_SystemClock_144MHz+0x18c>
     874:	0001                	nop
     876:	4432                	lw	s0,12(sp)
     878:	0141                	addi	sp,sp,16
     87a:	8082                	ret

0000087c <RVMSIS_SysTick_Timer_init>:
     87c:	1141                	addi	sp,sp,-16
     87e:	c606                	sw	ra,12(sp)
     880:	c422                	sw	s0,8(sp)
     882:	0800                	addi	s0,sp,16
     884:	e000f7b7          	lui	a5,0xe000f
     888:	4398                	lw	a4,0(a5)
     88a:	e000f7b7          	lui	a5,0xe000f
     88e:	9b79                	andi	a4,a4,-2
     890:	c398                	sw	a4,0(a5)
     892:	e000f7b7          	lui	a5,0xe000f
     896:	4398                	lw	a4,0(a5)
     898:	e000f7b7          	lui	a5,0xe000f
     89c:	00276713          	ori	a4,a4,2
     8a0:	c398                	sw	a4,0(a5)
     8a2:	e000f7b7          	lui	a5,0xe000f
     8a6:	4398                	lw	a4,0(a5)
     8a8:	e000f7b7          	lui	a5,0xe000f
     8ac:	9b6d                	andi	a4,a4,-5
     8ae:	c398                	sw	a4,0(a5)
     8b0:	e000f7b7          	lui	a5,0xe000f
     8b4:	4398                	lw	a4,0(a5)
     8b6:	e000f7b7          	lui	a5,0xe000f
     8ba:	00876713          	ori	a4,a4,8
     8be:	c398                	sw	a4,0(a5)
     8c0:	e000f7b7          	lui	a5,0xe000f
     8c4:	4398                	lw	a4,0(a5)
     8c6:	e000f7b7          	lui	a5,0xe000f
     8ca:	01076713          	ori	a4,a4,16
     8ce:	c398                	sw	a4,0(a5)
     8d0:	e000f7b7          	lui	a5,0xe000f
     8d4:	4398                	lw	a4,0(a5)
     8d6:	e000f7b7          	lui	a5,0xe000f
     8da:	02076713          	ori	a4,a4,32
     8de:	c398                	sw	a4,0(a5)
     8e0:	e000f737          	lui	a4,0xe000f
     8e4:	6789                	lui	a5,0x2
     8e6:	32778793          	addi	a5,a5,807 # 2327 <_printf_i+0x23>
     8ea:	4801                	li	a6,0
     8ec:	cb1c                	sw	a5,16(a4)
     8ee:	01072a23          	sw	a6,20(a4) # e000f014 <_eusrstack+0xc000a014>
     8f2:	4531                	li	a0,12
     8f4:	3311                	jal	5f8 <NVIC_EnableIRQ>
     8f6:	459d                	li	a1,7
     8f8:	4531                	li	a0,12
     8fa:	3b05                	jal	62a <NVIC_SetPriority>
     8fc:	e000f7b7          	lui	a5,0xe000f
     900:	4398                	lw	a4,0(a5)
     902:	e000f7b7          	lui	a5,0xe000f
     906:	00176713          	ori	a4,a4,1
     90a:	c398                	sw	a4,0(a5)
     90c:	0001                	nop
     90e:	40b2                	lw	ra,12(sp)
     910:	4422                	lw	s0,8(sp)
     912:	0141                	addi	sp,sp,16
     914:	8082                	ret

00000916 <Delay_ms>:
     916:	1101                	addi	sp,sp,-32
     918:	ce22                	sw	s0,28(sp)
     91a:	1000                	addi	s0,sp,32
     91c:	fea42623          	sw	a0,-20(s0)
     920:	fec42703          	lw	a4,-20(s0)
     924:	80e1a623          	sw	a4,-2036(gp) # 2000006c <Delay_counter_ms>
     928:	0001                	nop
     92a:	80c1a783          	lw	a5,-2036(gp) # 2000006c <Delay_counter_ms>
     92e:	fff5                	bnez	a5,92a <Delay_ms+0x14>
     930:	0001                	nop
     932:	4472                	lw	s0,28(sp)
     934:	6105                	addi	sp,sp,32
     936:	8082                	ret

00000938 <RVMSIS_GPIO_MODE_Set>:
     938:	7179                	addi	sp,sp,-48
     93a:	d622                	sw	s0,44(sp)
     93c:	1800                	addi	s0,sp,48
     93e:	fca42e23          	sw	a0,-36(s0)
     942:	87ae                	mv	a5,a1
     944:	8736                	mv	a4,a3
     946:	fcf40da3          	sb	a5,-37(s0)
     94a:	87b2                	mv	a5,a2
     94c:	fcf40d23          	sb	a5,-38(s0)
     950:	87ba                	mv	a5,a4
     952:	fcf40ca3          	sb	a5,-39(s0)
     956:	fe0407a3          	sb	zero,-17(s0)
     95a:	fda44783          	lbu	a5,-38(s0)
     95e:	c789                	beqz	a5,968 <RVMSIS_GPIO_MODE_Set+0x30>
     960:	4705                	li	a4,1
     962:	02e78e63          	beq	a5,a4,99e <RVMSIS_GPIO_MODE_Set+0x66>
     966:	a8a5                	j	9de <RVMSIS_GPIO_MODE_Set+0xa6>
     968:	fdb44783          	lbu	a5,-37(s0)
     96c:	078a                	slli	a5,a5,0x2
     96e:	fef407a3          	sb	a5,-17(s0)
     972:	fdc42783          	lw	a5,-36(s0)
     976:	4398                	lw	a4,0(a5)
     978:	fef44783          	lbu	a5,-17(s0)
     97c:	468d                	li	a3,3
     97e:	00f697b3          	sll	a5,a3,a5
     982:	fff7c793          	not	a5,a5
     986:	8ff9                	and	a5,a5,a4
     988:	fd944683          	lbu	a3,-39(s0)
     98c:	fef44703          	lbu	a4,-17(s0)
     990:	00e69733          	sll	a4,a3,a4
     994:	8f5d                	or	a4,a4,a5
     996:	fdc42783          	lw	a5,-36(s0)
     99a:	c398                	sw	a4,0(a5)
     99c:	a089                	j	9de <RVMSIS_GPIO_MODE_Set+0xa6>
     99e:	fdb44783          	lbu	a5,-37(s0)
     9a2:	17e1                	addi	a5,a5,-8
     9a4:	fcf40da3          	sb	a5,-37(s0)
     9a8:	fdb44783          	lbu	a5,-37(s0)
     9ac:	078a                	slli	a5,a5,0x2
     9ae:	fef407a3          	sb	a5,-17(s0)
     9b2:	fdc42783          	lw	a5,-36(s0)
     9b6:	43d8                	lw	a4,4(a5)
     9b8:	fef44783          	lbu	a5,-17(s0)
     9bc:	468d                	li	a3,3
     9be:	00f697b3          	sll	a5,a3,a5
     9c2:	fff7c793          	not	a5,a5
     9c6:	8ff9                	and	a5,a5,a4
     9c8:	fd944683          	lbu	a3,-39(s0)
     9cc:	fef44703          	lbu	a4,-17(s0)
     9d0:	00e69733          	sll	a4,a3,a4
     9d4:	8f5d                	or	a4,a4,a5
     9d6:	fdc42783          	lw	a5,-36(s0)
     9da:	c3d8                	sw	a4,4(a5)
     9dc:	0001                	nop
     9de:	0001                	nop
     9e0:	5432                	lw	s0,44(sp)
     9e2:	6145                	addi	sp,sp,48
     9e4:	8082                	ret

000009e6 <RVMSIS_GPIO_SPEED_Set>:
     9e6:	7179                	addi	sp,sp,-48
     9e8:	d606                	sw	ra,44(sp)
     9ea:	d422                	sw	s0,40(sp)
     9ec:	1800                	addi	s0,sp,48
     9ee:	fca42e23          	sw	a0,-36(s0)
     9f2:	87ae                	mv	a5,a1
     9f4:	8732                	mv	a4,a2
     9f6:	fcf40da3          	sb	a5,-37(s0)
     9fa:	87ba                	mv	a5,a4
     9fc:	fcf40d23          	sb	a5,-38(s0)
     a00:	fe0407a3          	sb	zero,-17(s0)
     a04:	fdb44703          	lbu	a4,-37(s0)
     a08:	479d                	li	a5,7
     a0a:	00e7e563          	bltu	a5,a4,a14 <RVMSIS_GPIO_SPEED_Set+0x2e>
     a0e:	fe0407a3          	sb	zero,-17(s0)
     a12:	a021                	j	a1a <RVMSIS_GPIO_SPEED_Set+0x34>
     a14:	4785                	li	a5,1
     a16:	fef407a3          	sb	a5,-17(s0)
     a1a:	fda44783          	lbu	a5,-38(s0)
     a1e:	ef81                	bnez	a5,a36 <RVMSIS_GPIO_SPEED_Set+0x50>
     a20:	fef44703          	lbu	a4,-17(s0)
     a24:	fdb44783          	lbu	a5,-37(s0)
     a28:	4681                	li	a3,0
     a2a:	863a                	mv	a2,a4
     a2c:	85be                	mv	a1,a5
     a2e:	fdc42503          	lw	a0,-36(s0)
     a32:	3719                	jal	938 <RVMSIS_GPIO_MODE_Set>
     a34:	a085                	j	a94 <RVMSIS_GPIO_SPEED_Set+0xae>
     a36:	fda44703          	lbu	a4,-38(s0)
     a3a:	4785                	li	a5,1
     a3c:	00f71d63          	bne	a4,a5,a56 <RVMSIS_GPIO_SPEED_Set+0x70>
     a40:	fef44703          	lbu	a4,-17(s0)
     a44:	fdb44783          	lbu	a5,-37(s0)
     a48:	4685                	li	a3,1
     a4a:	863a                	mv	a2,a4
     a4c:	85be                	mv	a1,a5
     a4e:	fdc42503          	lw	a0,-36(s0)
     a52:	35dd                	jal	938 <RVMSIS_GPIO_MODE_Set>
     a54:	a081                	j	a94 <RVMSIS_GPIO_SPEED_Set+0xae>
     a56:	fda44703          	lbu	a4,-38(s0)
     a5a:	4789                	li	a5,2
     a5c:	00f71d63          	bne	a4,a5,a76 <RVMSIS_GPIO_SPEED_Set+0x90>
     a60:	fef44703          	lbu	a4,-17(s0)
     a64:	fdb44783          	lbu	a5,-37(s0)
     a68:	4689                	li	a3,2
     a6a:	863a                	mv	a2,a4
     a6c:	85be                	mv	a1,a5
     a6e:	fdc42503          	lw	a0,-36(s0)
     a72:	35d9                	jal	938 <RVMSIS_GPIO_MODE_Set>
     a74:	a005                	j	a94 <RVMSIS_GPIO_SPEED_Set+0xae>
     a76:	fda44703          	lbu	a4,-38(s0)
     a7a:	478d                	li	a5,3
     a7c:	00f71c63          	bne	a4,a5,a94 <RVMSIS_GPIO_SPEED_Set+0xae>
     a80:	fef44703          	lbu	a4,-17(s0)
     a84:	fdb44783          	lbu	a5,-37(s0)
     a88:	468d                	li	a3,3
     a8a:	863a                	mv	a2,a4
     a8c:	85be                	mv	a1,a5
     a8e:	fdc42503          	lw	a0,-36(s0)
     a92:	355d                	jal	938 <RVMSIS_GPIO_MODE_Set>
     a94:	0001                	nop
     a96:	50b2                	lw	ra,44(sp)
     a98:	5422                	lw	s0,40(sp)
     a9a:	6145                	addi	sp,sp,48
     a9c:	8082                	ret

00000a9e <RVMSIS_GPIO_CNF_Set>:
     a9e:	1101                	addi	sp,sp,-32
     aa0:	ce22                	sw	s0,28(sp)
     aa2:	1000                	addi	s0,sp,32
     aa4:	fea42623          	sw	a0,-20(s0)
     aa8:	87ae                	mv	a5,a1
     aaa:	8732                	mv	a4,a2
     aac:	fed42223          	sw	a3,-28(s0)
     ab0:	fef405a3          	sb	a5,-21(s0)
     ab4:	87ba                	mv	a5,a4
     ab6:	fef40523          	sb	a5,-22(s0)
     aba:	feb44783          	lbu	a5,-21(s0)
     abe:	c789                	beqz	a5,ac8 <RVMSIS_GPIO_CNF_Set+0x2a>
     ac0:	4705                	li	a4,1
     ac2:	02e78d63          	beq	a5,a4,afc <RVMSIS_GPIO_CNF_Set+0x5e>
     ac6:	a09d                	j	b2c <RVMSIS_GPIO_CNF_Set+0x8e>
     ac8:	fec42783          	lw	a5,-20(s0)
     acc:	4398                	lw	a4,0(a5)
     ace:	fe442783          	lw	a5,-28(s0)
     ad2:	239c                	lbu	a5,0(a5)
     ad4:	86be                	mv	a3,a5
     ad6:	478d                	li	a5,3
     ad8:	00d797b3          	sll	a5,a5,a3
     adc:	fff7c793          	not	a5,a5
     ae0:	8ff9                	and	a5,a5,a4
     ae2:	fea44703          	lbu	a4,-22(s0)
     ae6:	fe442683          	lw	a3,-28(s0)
     aea:	2294                	lbu	a3,0(a3)
     aec:	00d71733          	sll	a4,a4,a3
     af0:	8f5d                	or	a4,a4,a5
     af2:	fec42783          	lw	a5,-20(s0)
     af6:	c398                	sw	a4,0(a5)
     af8:	0001                	nop
     afa:	a80d                	j	b2c <RVMSIS_GPIO_CNF_Set+0x8e>
     afc:	fec42783          	lw	a5,-20(s0)
     b00:	43d8                	lw	a4,4(a5)
     b02:	fe442783          	lw	a5,-28(s0)
     b06:	239c                	lbu	a5,0(a5)
     b08:	86be                	mv	a3,a5
     b0a:	478d                	li	a5,3
     b0c:	00d797b3          	sll	a5,a5,a3
     b10:	fff7c793          	not	a5,a5
     b14:	8ff9                	and	a5,a5,a4
     b16:	fea44703          	lbu	a4,-22(s0)
     b1a:	fe442683          	lw	a3,-28(s0)
     b1e:	2294                	lbu	a3,0(a3)
     b20:	00d71733          	sll	a4,a4,a3
     b24:	8f5d                	or	a4,a4,a5
     b26:	fec42783          	lw	a5,-20(s0)
     b2a:	c3d8                	sw	a4,4(a5)
     b2c:	0001                	nop
     b2e:	4472                	lw	s0,28(sp)
     b30:	6105                	addi	sp,sp,32
     b32:	8082                	ret

00000b34 <RVMSIS_GPIO_Reg_Set>:
     b34:	1101                	addi	sp,sp,-32
     b36:	ce06                	sw	ra,28(sp)
     b38:	cc22                	sw	s0,24(sp)
     b3a:	1000                	addi	s0,sp,32
     b3c:	fea42623          	sw	a0,-20(s0)
     b40:	feb42423          	sw	a1,-24(s0)
     b44:	fef42023          	sw	a5,-32(s0)
     b48:	87b2                	mv	a5,a2
     b4a:	fef403a3          	sb	a5,-25(s0)
     b4e:	87b6                	mv	a5,a3
     b50:	fef40323          	sb	a5,-26(s0)
     b54:	87ba                	mv	a5,a4
     b56:	fef402a3          	sb	a5,-27(s0)
     b5a:	fe744783          	lbu	a5,-25(s0)
     b5e:	4705                	li	a4,1
     b60:	04e78563          	beq	a5,a4,baa <RVMSIS_GPIO_Reg_Set+0x76>
     b64:	4709                	li	a4,2
     b66:	08e78063          	beq	a5,a4,be6 <RVMSIS_GPIO_Reg_Set+0xb2>
     b6a:	12079c63          	bnez	a5,ca2 <RVMSIS_GPIO_Reg_Set+0x16e>
     b6e:	fe644783          	lbu	a5,-26(s0)
     b72:	c789                	beqz	a5,b7c <RVMSIS_GPIO_Reg_Set+0x48>
     b74:	4705                	li	a4,1
     b76:	00e78e63          	beq	a5,a4,b92 <RVMSIS_GPIO_Reg_Set+0x5e>
     b7a:	a225                	j	ca2 <RVMSIS_GPIO_Reg_Set+0x16e>
     b7c:	fe042703          	lw	a4,-32(s0)
     b80:	fe544783          	lbu	a5,-27(s0)
     b84:	86ba                	mv	a3,a4
     b86:	4601                	li	a2,0
     b88:	85be                	mv	a1,a5
     b8a:	fec42503          	lw	a0,-20(s0)
     b8e:	3f01                	jal	a9e <RVMSIS_GPIO_CNF_Set>
     b90:	a821                	j	ba8 <RVMSIS_GPIO_Reg_Set+0x74>
     b92:	fe042703          	lw	a4,-32(s0)
     b96:	fe544783          	lbu	a5,-27(s0)
     b9a:	86ba                	mv	a3,a4
     b9c:	4605                	li	a2,1
     b9e:	85be                	mv	a1,a5
     ba0:	fec42503          	lw	a0,-20(s0)
     ba4:	3ded                	jal	a9e <RVMSIS_GPIO_CNF_Set>
     ba6:	0001                	nop
     ba8:	a8ed                	j	ca2 <RVMSIS_GPIO_Reg_Set+0x16e>
     baa:	fe644783          	lbu	a5,-26(s0)
     bae:	c789                	beqz	a5,bb8 <RVMSIS_GPIO_Reg_Set+0x84>
     bb0:	4705                	li	a4,1
     bb2:	00e78e63          	beq	a5,a4,bce <RVMSIS_GPIO_Reg_Set+0x9a>
     bb6:	a0f5                	j	ca2 <RVMSIS_GPIO_Reg_Set+0x16e>
     bb8:	fe042703          	lw	a4,-32(s0)
     bbc:	fe544783          	lbu	a5,-27(s0)
     bc0:	86ba                	mv	a3,a4
     bc2:	4609                	li	a2,2
     bc4:	85be                	mv	a1,a5
     bc6:	fec42503          	lw	a0,-20(s0)
     bca:	3dd1                	jal	a9e <RVMSIS_GPIO_CNF_Set>
     bcc:	a821                	j	be4 <RVMSIS_GPIO_Reg_Set+0xb0>
     bce:	fe042703          	lw	a4,-32(s0)
     bd2:	fe544783          	lbu	a5,-27(s0)
     bd6:	86ba                	mv	a3,a4
     bd8:	460d                	li	a2,3
     bda:	85be                	mv	a1,a5
     bdc:	fec42503          	lw	a0,-20(s0)
     be0:	3d7d                	jal	a9e <RVMSIS_GPIO_CNF_Set>
     be2:	0001                	nop
     be4:	a87d                	j	ca2 <RVMSIS_GPIO_Reg_Set+0x16e>
     be6:	fe644783          	lbu	a5,-26(s0)
     bea:	470d                	li	a4,3
     bec:	02e78b63          	beq	a5,a4,c22 <RVMSIS_GPIO_Reg_Set+0xee>
     bf0:	470d                	li	a4,3
     bf2:	00f74663          	blt	a4,a5,bfe <RVMSIS_GPIO_Reg_Set+0xca>
     bf6:	4709                	li	a4,2
     bf8:	00e78a63          	beq	a5,a4,c0c <RVMSIS_GPIO_Reg_Set+0xd8>
     bfc:	a055                	j	ca0 <RVMSIS_GPIO_Reg_Set+0x16c>
     bfe:	4711                	li	a4,4
     c00:	02e78c63          	beq	a5,a4,c38 <RVMSIS_GPIO_Reg_Set+0x104>
     c04:	4715                	li	a4,5
     c06:	06e78463          	beq	a5,a4,c6e <RVMSIS_GPIO_Reg_Set+0x13a>
     c0a:	a859                	j	ca0 <RVMSIS_GPIO_Reg_Set+0x16c>
     c0c:	fe042703          	lw	a4,-32(s0)
     c10:	fe544783          	lbu	a5,-27(s0)
     c14:	86ba                	mv	a3,a4
     c16:	4601                	li	a2,0
     c18:	85be                	mv	a1,a5
     c1a:	fec42503          	lw	a0,-20(s0)
     c1e:	3541                	jal	a9e <RVMSIS_GPIO_CNF_Set>
     c20:	a041                	j	ca0 <RVMSIS_GPIO_Reg_Set+0x16c>
     c22:	fe042703          	lw	a4,-32(s0)
     c26:	fe544783          	lbu	a5,-27(s0)
     c2a:	86ba                	mv	a3,a4
     c2c:	4605                	li	a2,1
     c2e:	85be                	mv	a1,a5
     c30:	fec42503          	lw	a0,-20(s0)
     c34:	35ad                	jal	a9e <RVMSIS_GPIO_CNF_Set>
     c36:	a0ad                	j	ca0 <RVMSIS_GPIO_Reg_Set+0x16c>
     c38:	fe042703          	lw	a4,-32(s0)
     c3c:	fe544783          	lbu	a5,-27(s0)
     c40:	86ba                	mv	a3,a4
     c42:	4609                	li	a2,2
     c44:	85be                	mv	a1,a5
     c46:	fec42503          	lw	a0,-20(s0)
     c4a:	3d91                	jal	a9e <RVMSIS_GPIO_CNF_Set>
     c4c:	fec42783          	lw	a5,-20(s0)
     c50:	47d8                	lw	a4,12(a5)
     c52:	fe842783          	lw	a5,-24(s0)
     c56:	239c                	lbu	a5,0(a5)
     c58:	86be                	mv	a3,a5
     c5a:	4785                	li	a5,1
     c5c:	00d797b3          	sll	a5,a5,a3
     c60:	fff7c793          	not	a5,a5
     c64:	8f7d                	and	a4,a4,a5
     c66:	fec42783          	lw	a5,-20(s0)
     c6a:	c7d8                	sw	a4,12(a5)
     c6c:	a815                	j	ca0 <RVMSIS_GPIO_Reg_Set+0x16c>
     c6e:	fe042703          	lw	a4,-32(s0)
     c72:	fe544783          	lbu	a5,-27(s0)
     c76:	86ba                	mv	a3,a4
     c78:	4609                	li	a2,2
     c7a:	85be                	mv	a1,a5
     c7c:	fec42503          	lw	a0,-20(s0)
     c80:	3d39                	jal	a9e <RVMSIS_GPIO_CNF_Set>
     c82:	fec42783          	lw	a5,-20(s0)
     c86:	47d8                	lw	a4,12(a5)
     c88:	fe842783          	lw	a5,-24(s0)
     c8c:	239c                	lbu	a5,0(a5)
     c8e:	86be                	mv	a3,a5
     c90:	4785                	li	a5,1
     c92:	00d797b3          	sll	a5,a5,a3
     c96:	8f5d                	or	a4,a4,a5
     c98:	fec42783          	lw	a5,-20(s0)
     c9c:	c7d8                	sw	a4,12(a5)
     c9e:	0001                	nop
     ca0:	0001                	nop
     ca2:	0001                	nop
     ca4:	40f2                	lw	ra,28(sp)
     ca6:	4462                	lw	s0,24(sp)
     ca8:	6105                	addi	sp,sp,32
     caa:	8082                	ret

00000cac <RVMSIS_GPIO_init>:
     cac:	7179                	addi	sp,sp,-48
     cae:	d606                	sw	ra,44(sp)
     cb0:	d422                	sw	s0,40(sp)
     cb2:	1800                	addi	s0,sp,48
     cb4:	fca42e23          	sw	a0,-36(s0)
     cb8:	87ae                	mv	a5,a1
     cba:	fcf40da3          	sb	a5,-37(s0)
     cbe:	87b2                	mv	a5,a2
     cc0:	fcf40d23          	sb	a5,-38(s0)
     cc4:	87b6                	mv	a5,a3
     cc6:	fcf40ca3          	sb	a5,-39(s0)
     cca:	87ba                	mv	a5,a4
     ccc:	fcf40c23          	sb	a5,-40(s0)
     cd0:	fe0407a3          	sb	zero,-17(s0)
     cd4:	fdc42703          	lw	a4,-36(s0)
     cd8:	400117b7          	lui	a5,0x40011
     cdc:	80078793          	addi	a5,a5,-2048 # 40010800 <_eusrstack+0x2000b800>
     ce0:	00f71b63          	bne	a4,a5,cf6 <RVMSIS_GPIO_init+0x4a>
     ce4:	400217b7          	lui	a5,0x40021
     ce8:	4f98                	lw	a4,24(a5)
     cea:	400217b7          	lui	a5,0x40021
     cee:	00476713          	ori	a4,a4,4
     cf2:	cf98                	sw	a4,24(a5)
     cf4:	a051                	j	d78 <RVMSIS_GPIO_init+0xcc>
     cf6:	fdc42703          	lw	a4,-36(s0)
     cfa:	400117b7          	lui	a5,0x40011
     cfe:	c0078793          	addi	a5,a5,-1024 # 40010c00 <_eusrstack+0x2000bc00>
     d02:	00f71b63          	bne	a4,a5,d18 <RVMSIS_GPIO_init+0x6c>
     d06:	400217b7          	lui	a5,0x40021
     d0a:	4f98                	lw	a4,24(a5)
     d0c:	400217b7          	lui	a5,0x40021
     d10:	00876713          	ori	a4,a4,8
     d14:	cf98                	sw	a4,24(a5)
     d16:	a08d                	j	d78 <RVMSIS_GPIO_init+0xcc>
     d18:	fdc42703          	lw	a4,-36(s0)
     d1c:	400117b7          	lui	a5,0x40011
     d20:	00f71b63          	bne	a4,a5,d36 <RVMSIS_GPIO_init+0x8a>
     d24:	400217b7          	lui	a5,0x40021
     d28:	4f98                	lw	a4,24(a5)
     d2a:	400217b7          	lui	a5,0x40021
     d2e:	01076713          	ori	a4,a4,16
     d32:	cf98                	sw	a4,24(a5)
     d34:	a091                	j	d78 <RVMSIS_GPIO_init+0xcc>
     d36:	fdc42703          	lw	a4,-36(s0)
     d3a:	400117b7          	lui	a5,0x40011
     d3e:	40078793          	addi	a5,a5,1024 # 40011400 <_eusrstack+0x2000c400>
     d42:	00f71b63          	bne	a4,a5,d58 <RVMSIS_GPIO_init+0xac>
     d46:	400217b7          	lui	a5,0x40021
     d4a:	4f98                	lw	a4,24(a5)
     d4c:	400217b7          	lui	a5,0x40021
     d50:	02076713          	ori	a4,a4,32
     d54:	cf98                	sw	a4,24(a5)
     d56:	a00d                	j	d78 <RVMSIS_GPIO_init+0xcc>
     d58:	fdc42703          	lw	a4,-36(s0)
     d5c:	400127b7          	lui	a5,0x40012
     d60:	80078793          	addi	a5,a5,-2048 # 40011800 <_eusrstack+0x2000c800>
     d64:	00f71a63          	bne	a4,a5,d78 <RVMSIS_GPIO_init+0xcc>
     d68:	400217b7          	lui	a5,0x40021
     d6c:	4f98                	lw	a4,24(a5)
     d6e:	400217b7          	lui	a5,0x40021
     d72:	04076713          	ori	a4,a4,64
     d76:	cf98                	sw	a4,24(a5)
     d78:	fdb44783          	lbu	a5,-37(s0)
     d7c:	fd844703          	lbu	a4,-40(s0)
     d80:	863a                	mv	a2,a4
     d82:	85be                	mv	a1,a5
     d84:	fdc42503          	lw	a0,-36(s0)
     d88:	39b9                	jal	9e6 <RVMSIS_GPIO_SPEED_Set>
     d8a:	fdb44703          	lbu	a4,-37(s0)
     d8e:	479d                	li	a5,7
     d90:	02e7e963          	bltu	a5,a4,dc2 <RVMSIS_GPIO_init+0x116>
     d94:	fdb44783          	lbu	a5,-37(s0)
     d98:	078a                	slli	a5,a5,0x2
     d9a:	0ff7f793          	andi	a5,a5,255
     d9e:	0789                	addi	a5,a5,2
     da0:	0ff7f793          	andi	a5,a5,255
     da4:	fef407a3          	sb	a5,-17(s0)
     da8:	fef40793          	addi	a5,s0,-17
     dac:	fd944683          	lbu	a3,-39(s0)
     db0:	fda44603          	lbu	a2,-38(s0)
     db4:	fdb40593          	addi	a1,s0,-37
     db8:	4701                	li	a4,0
     dba:	fdc42503          	lw	a0,-36(s0)
     dbe:	3b9d                	jal	b34 <RVMSIS_GPIO_Reg_Set>
     dc0:	a835                	j	dfc <RVMSIS_GPIO_init+0x150>
     dc2:	fdb44783          	lbu	a5,-37(s0)
     dc6:	17e1                	addi	a5,a5,-8
     dc8:	0ff7f793          	andi	a5,a5,255
     dcc:	fcf40da3          	sb	a5,-37(s0)
     dd0:	fdb44783          	lbu	a5,-37(s0)
     dd4:	078a                	slli	a5,a5,0x2
     dd6:	0ff7f793          	andi	a5,a5,255
     dda:	0789                	addi	a5,a5,2
     ddc:	0ff7f793          	andi	a5,a5,255
     de0:	fef407a3          	sb	a5,-17(s0)
     de4:	fef40793          	addi	a5,s0,-17
     de8:	fd944683          	lbu	a3,-39(s0)
     dec:	fda44603          	lbu	a2,-38(s0)
     df0:	fdb40593          	addi	a1,s0,-37
     df4:	4705                	li	a4,1
     df6:	fdc42503          	lw	a0,-36(s0)
     dfa:	3b2d                	jal	b34 <RVMSIS_GPIO_Reg_Set>
     dfc:	0001                	nop
     dfe:	50b2                	lw	ra,44(sp)
     e00:	5422                	lw	s0,40(sp)
     e02:	6145                	addi	sp,sp,48
     e04:	8082                	ret

00000e06 <RVMSIS_USART3_Init>:
     e06:	1141                	addi	sp,sp,-16
     e08:	c606                	sw	ra,12(sp)
     e0a:	c422                	sw	s0,8(sp)
     e0c:	0800                	addi	s0,sp,16
     e0e:	400217b7          	lui	a5,0x40021
     e12:	4f98                	lw	a4,24(a5)
     e14:	400217b7          	lui	a5,0x40021
     e18:	00876713          	ori	a4,a4,8
     e1c:	cf98                	sw	a4,24(a5)
     e1e:	400217b7          	lui	a5,0x40021
     e22:	4f98                	lw	a4,24(a5)
     e24:	400217b7          	lui	a5,0x40021
     e28:	00176713          	ori	a4,a4,1
     e2c:	cf98                	sw	a4,24(a5)
     e2e:	400117b7          	lui	a5,0x40011
     e32:	c0078793          	addi	a5,a5,-1024 # 40010c00 <_eusrstack+0x2000bc00>
     e36:	43d8                	lw	a4,4(a5)
     e38:	77fd                	lui	a5,0xfffff
     e3a:	3ff78793          	addi	a5,a5,1023 # fffff3ff <_eusrstack+0xdfffa3ff>
     e3e:	00f776b3          	and	a3,a4,a5
     e42:	400117b7          	lui	a5,0x40011
     e46:	c0078793          	addi	a5,a5,-1024 # 40010c00 <_eusrstack+0x2000bc00>
     e4a:	6705                	lui	a4,0x1
     e4c:	80070713          	addi	a4,a4,-2048 # 800 <RVMSIS_RCC_SystemClock_144MHz+0x126>
     e50:	8f55                	or	a4,a4,a3
     e52:	c3d8                	sw	a4,4(a5)
     e54:	400117b7          	lui	a5,0x40011
     e58:	c0078793          	addi	a5,a5,-1024 # 40010c00 <_eusrstack+0x2000bc00>
     e5c:	43d8                	lw	a4,4(a5)
     e5e:	400117b7          	lui	a5,0x40011
     e62:	c0078793          	addi	a5,a5,-1024 # 40010c00 <_eusrstack+0x2000bc00>
     e66:	30076713          	ori	a4,a4,768
     e6a:	c3d8                	sw	a4,4(a5)
     e6c:	400117b7          	lui	a5,0x40011
     e70:	c0078793          	addi	a5,a5,-1024 # 40010c00 <_eusrstack+0x2000bc00>
     e74:	43d8                	lw	a4,4(a5)
     e76:	77d1                	lui	a5,0xffff4
     e78:	17fd                	addi	a5,a5,-1
     e7a:	00f776b3          	and	a3,a4,a5
     e7e:	400117b7          	lui	a5,0x40011
     e82:	c0078793          	addi	a5,a5,-1024 # 40010c00 <_eusrstack+0x2000bc00>
     e86:	6711                	lui	a4,0x4
     e88:	8f55                	or	a4,a4,a3
     e8a:	c3d8                	sw	a4,4(a5)
     e8c:	400117b7          	lui	a5,0x40011
     e90:	c0078793          	addi	a5,a5,-1024 # 40010c00 <_eusrstack+0x2000bc00>
     e94:	43d4                	lw	a3,4(a5)
     e96:	400117b7          	lui	a5,0x40011
     e9a:	c0078793          	addi	a5,a5,-1024 # 40010c00 <_eusrstack+0x2000bc00>
     e9e:	7775                	lui	a4,0xffffd
     ea0:	177d                	addi	a4,a4,-1
     ea2:	8f75                	and	a4,a4,a3
     ea4:	c3d8                	sw	a4,4(a5)
     ea6:	400217b7          	lui	a5,0x40021
     eaa:	4fd4                	lw	a3,28(a5)
     eac:	400217b7          	lui	a5,0x40021
     eb0:	00040737          	lui	a4,0x40
     eb4:	8f55                	or	a4,a4,a3
     eb6:	cfd8                	sw	a4,28(a5)
     eb8:	400057b7          	lui	a5,0x40005
     ebc:	80078793          	addi	a5,a5,-2048 # 40004800 <_eusrstack+0x1ffff800>
     ec0:	279e                	lhu	a5,8(a5)
     ec2:	07c2                	slli	a5,a5,0x10
     ec4:	83c1                	srli	a5,a5,0x10
     ec6:	07c2                	slli	a5,a5,0x10
     ec8:	87c1                	srai	a5,a5,0x10
     eca:	8bbd                	andi	a5,a5,15
     ecc:	07c2                	slli	a5,a5,0x10
     ece:	87c1                	srai	a5,a5,0x10
     ed0:	1307e793          	ori	a5,a5,304
     ed4:	01079713          	slli	a4,a5,0x10
     ed8:	8741                	srai	a4,a4,0x10
     eda:	400057b7          	lui	a5,0x40005
     ede:	80078793          	addi	a5,a5,-2048 # 40004800 <_eusrstack+0x1ffff800>
     ee2:	0742                	slli	a4,a4,0x10
     ee4:	8341                	srli	a4,a4,0x10
     ee6:	a79a                	sh	a4,8(a5)
     ee8:	400057b7          	lui	a5,0x40005
     eec:	80078793          	addi	a5,a5,-2048 # 40004800 <_eusrstack+0x1ffff800>
     ef0:	279e                	lhu	a5,8(a5)
     ef2:	07c2                	slli	a5,a5,0x10
     ef4:	83c1                	srli	a5,a5,0x10
     ef6:	07c2                	slli	a5,a5,0x10
     ef8:	87c1                	srai	a5,a5,0x10
     efa:	9bc1                	andi	a5,a5,-16
     efc:	07c2                	slli	a5,a5,0x10
     efe:	87c1                	srai	a5,a5,0x10
     f00:	0087e793          	ori	a5,a5,8
     f04:	01079713          	slli	a4,a5,0x10
     f08:	8741                	srai	a4,a4,0x10
     f0a:	400057b7          	lui	a5,0x40005
     f0e:	80078793          	addi	a5,a5,-2048 # 40004800 <_eusrstack+0x1ffff800>
     f12:	0742                	slli	a4,a4,0x10
     f14:	8341                	srli	a4,a4,0x10
     f16:	a79a                	sh	a4,8(a5)
     f18:	400057b7          	lui	a5,0x40005
     f1c:	80078793          	addi	a5,a5,-2048 # 40004800 <_eusrstack+0x1ffff800>
     f20:	27de                	lhu	a5,12(a5)
     f22:	01079693          	slli	a3,a5,0x10
     f26:	82c1                	srli	a3,a3,0x10
     f28:	400057b7          	lui	a5,0x40005
     f2c:	80078793          	addi	a5,a5,-2048 # 40004800 <_eusrstack+0x1ffff800>
     f30:	6709                	lui	a4,0x2
     f32:	8f55                	or	a4,a4,a3
     f34:	0742                	slli	a4,a4,0x10
     f36:	8341                	srli	a4,a4,0x10
     f38:	a7da                	sh	a4,12(a5)
     f3a:	400057b7          	lui	a5,0x40005
     f3e:	80078793          	addi	a5,a5,-2048 # 40004800 <_eusrstack+0x1ffff800>
     f42:	27de                	lhu	a5,12(a5)
     f44:	01079693          	slli	a3,a5,0x10
     f48:	82c1                	srli	a3,a3,0x10
     f4a:	400057b7          	lui	a5,0x40005
     f4e:	80078793          	addi	a5,a5,-2048 # 40004800 <_eusrstack+0x1ffff800>
     f52:	777d                	lui	a4,0xfffff
     f54:	177d                	addi	a4,a4,-1
     f56:	8f75                	and	a4,a4,a3
     f58:	0742                	slli	a4,a4,0x10
     f5a:	8341                	srli	a4,a4,0x10
     f5c:	a7da                	sh	a4,12(a5)
     f5e:	400057b7          	lui	a5,0x40005
     f62:	80078793          	addi	a5,a5,-2048 # 40004800 <_eusrstack+0x1ffff800>
     f66:	27de                	lhu	a5,12(a5)
     f68:	01079693          	slli	a3,a5,0x10
     f6c:	82c1                	srli	a3,a3,0x10
     f6e:	400057b7          	lui	a5,0x40005
     f72:	80078793          	addi	a5,a5,-2048 # 40004800 <_eusrstack+0x1ffff800>
     f76:	777d                	lui	a4,0xfffff
     f78:	7ff70713          	addi	a4,a4,2047 # fffff7ff <_eusrstack+0xdfffa7ff>
     f7c:	8f75                	and	a4,a4,a3
     f7e:	0742                	slli	a4,a4,0x10
     f80:	8341                	srli	a4,a4,0x10
     f82:	a7da                	sh	a4,12(a5)
     f84:	400057b7          	lui	a5,0x40005
     f88:	80078793          	addi	a5,a5,-2048 # 40004800 <_eusrstack+0x1ffff800>
     f8c:	27de                	lhu	a5,12(a5)
     f8e:	01079713          	slli	a4,a5,0x10
     f92:	8341                	srli	a4,a4,0x10
     f94:	400057b7          	lui	a5,0x40005
     f98:	80078793          	addi	a5,a5,-2048 # 40004800 <_eusrstack+0x1ffff800>
     f9c:	bff77713          	andi	a4,a4,-1025
     fa0:	0742                	slli	a4,a4,0x10
     fa2:	8341                	srli	a4,a4,0x10
     fa4:	a7da                	sh	a4,12(a5)
     fa6:	400057b7          	lui	a5,0x40005
     faa:	80078793          	addi	a5,a5,-2048 # 40004800 <_eusrstack+0x1ffff800>
     fae:	27de                	lhu	a5,12(a5)
     fb0:	01079713          	slli	a4,a5,0x10
     fb4:	8341                	srli	a4,a4,0x10
     fb6:	400057b7          	lui	a5,0x40005
     fba:	80078793          	addi	a5,a5,-2048 # 40004800 <_eusrstack+0x1ffff800>
     fbe:	eff77713          	andi	a4,a4,-257
     fc2:	0742                	slli	a4,a4,0x10
     fc4:	8341                	srli	a4,a4,0x10
     fc6:	a7da                	sh	a4,12(a5)
     fc8:	400057b7          	lui	a5,0x40005
     fcc:	80078793          	addi	a5,a5,-2048 # 40004800 <_eusrstack+0x1ffff800>
     fd0:	27de                	lhu	a5,12(a5)
     fd2:	01079713          	slli	a4,a5,0x10
     fd6:	8341                	srli	a4,a4,0x10
     fd8:	400057b7          	lui	a5,0x40005
     fdc:	80078793          	addi	a5,a5,-2048 # 40004800 <_eusrstack+0x1ffff800>
     fe0:	f7f77713          	andi	a4,a4,-129
     fe4:	0742                	slli	a4,a4,0x10
     fe6:	8341                	srli	a4,a4,0x10
     fe8:	a7da                	sh	a4,12(a5)
     fea:	400057b7          	lui	a5,0x40005
     fee:	80078793          	addi	a5,a5,-2048 # 40004800 <_eusrstack+0x1ffff800>
     ff2:	27de                	lhu	a5,12(a5)
     ff4:	01079713          	slli	a4,a5,0x10
     ff8:	8341                	srli	a4,a4,0x10
     ffa:	400057b7          	lui	a5,0x40005
     ffe:	80078793          	addi	a5,a5,-2048 # 40004800 <_eusrstack+0x1ffff800>
    1002:	fbf77713          	andi	a4,a4,-65
    1006:	0742                	slli	a4,a4,0x10
    1008:	8341                	srli	a4,a4,0x10
    100a:	a7da                	sh	a4,12(a5)
    100c:	400057b7          	lui	a5,0x40005
    1010:	80078793          	addi	a5,a5,-2048 # 40004800 <_eusrstack+0x1ffff800>
    1014:	27de                	lhu	a5,12(a5)
    1016:	01079713          	slli	a4,a5,0x10
    101a:	8341                	srli	a4,a4,0x10
    101c:	400057b7          	lui	a5,0x40005
    1020:	80078793          	addi	a5,a5,-2048 # 40004800 <_eusrstack+0x1ffff800>
    1024:	02076713          	ori	a4,a4,32
    1028:	0742                	slli	a4,a4,0x10
    102a:	8341                	srli	a4,a4,0x10
    102c:	a7da                	sh	a4,12(a5)
    102e:	400057b7          	lui	a5,0x40005
    1032:	80078793          	addi	a5,a5,-2048 # 40004800 <_eusrstack+0x1ffff800>
    1036:	27de                	lhu	a5,12(a5)
    1038:	01079713          	slli	a4,a5,0x10
    103c:	8341                	srli	a4,a4,0x10
    103e:	400057b7          	lui	a5,0x40005
    1042:	80078793          	addi	a5,a5,-2048 # 40004800 <_eusrstack+0x1ffff800>
    1046:	01076713          	ori	a4,a4,16
    104a:	0742                	slli	a4,a4,0x10
    104c:	8341                	srli	a4,a4,0x10
    104e:	a7da                	sh	a4,12(a5)
    1050:	400057b7          	lui	a5,0x40005
    1054:	80078793          	addi	a5,a5,-2048 # 40004800 <_eusrstack+0x1ffff800>
    1058:	27de                	lhu	a5,12(a5)
    105a:	01079713          	slli	a4,a5,0x10
    105e:	8341                	srli	a4,a4,0x10
    1060:	400057b7          	lui	a5,0x40005
    1064:	80078793          	addi	a5,a5,-2048 # 40004800 <_eusrstack+0x1ffff800>
    1068:	00876713          	ori	a4,a4,8
    106c:	0742                	slli	a4,a4,0x10
    106e:	8341                	srli	a4,a4,0x10
    1070:	a7da                	sh	a4,12(a5)
    1072:	400057b7          	lui	a5,0x40005
    1076:	80078793          	addi	a5,a5,-2048 # 40004800 <_eusrstack+0x1ffff800>
    107a:	27de                	lhu	a5,12(a5)
    107c:	01079713          	slli	a4,a5,0x10
    1080:	8341                	srli	a4,a4,0x10
    1082:	400057b7          	lui	a5,0x40005
    1086:	80078793          	addi	a5,a5,-2048 # 40004800 <_eusrstack+0x1ffff800>
    108a:	00476713          	ori	a4,a4,4
    108e:	0742                	slli	a4,a4,0x10
    1090:	8341                	srli	a4,a4,0x10
    1092:	a7da                	sh	a4,12(a5)
    1094:	400057b7          	lui	a5,0x40005
    1098:	80078793          	addi	a5,a5,-2048 # 40004800 <_eusrstack+0x1ffff800>
    109c:	27de                	lhu	a5,12(a5)
    109e:	01079713          	slli	a4,a5,0x10
    10a2:	8341                	srli	a4,a4,0x10
    10a4:	400057b7          	lui	a5,0x40005
    10a8:	80078793          	addi	a5,a5,-2048 # 40004800 <_eusrstack+0x1ffff800>
    10ac:	9b75                	andi	a4,a4,-3
    10ae:	0742                	slli	a4,a4,0x10
    10b0:	8341                	srli	a4,a4,0x10
    10b2:	a7da                	sh	a4,12(a5)
    10b4:	400057b7          	lui	a5,0x40005
    10b8:	80078793          	addi	a5,a5,-2048 # 40004800 <_eusrstack+0x1ffff800>
    10bc:	27de                	lhu	a5,12(a5)
    10be:	01079713          	slli	a4,a5,0x10
    10c2:	8341                	srli	a4,a4,0x10
    10c4:	400057b7          	lui	a5,0x40005
    10c8:	80078793          	addi	a5,a5,-2048 # 40004800 <_eusrstack+0x1ffff800>
    10cc:	9b79                	andi	a4,a4,-2
    10ce:	0742                	slli	a4,a4,0x10
    10d0:	8341                	srli	a4,a4,0x10
    10d2:	a7da                	sh	a4,12(a5)
    10d4:	400057b7          	lui	a5,0x40005
    10d8:	80078793          	addi	a5,a5,-2048 # 40004800 <_eusrstack+0x1ffff800>
    10dc:	00079823          	sh	zero,16(a5)
    10e0:	400057b7          	lui	a5,0x40005
    10e4:	80078793          	addi	a5,a5,-2048 # 40004800 <_eusrstack+0x1ffff800>
    10e8:	2b9e                	lhu	a5,16(a5)
    10ea:	01079693          	slli	a3,a5,0x10
    10ee:	82c1                	srli	a3,a3,0x10
    10f0:	400057b7          	lui	a5,0x40005
    10f4:	80078793          	addi	a5,a5,-2048 # 40004800 <_eusrstack+0x1ffff800>
    10f8:	7775                	lui	a4,0xffffd
    10fa:	177d                	addi	a4,a4,-1
    10fc:	8f75                	and	a4,a4,a3
    10fe:	0742                	slli	a4,a4,0x10
    1100:	8341                	srli	a4,a4,0x10
    1102:	ab9a                	sh	a4,16(a5)
    1104:	400057b7          	lui	a5,0x40005
    1108:	80078793          	addi	a5,a5,-2048 # 40004800 <_eusrstack+0x1ffff800>
    110c:	00079a23          	sh	zero,20(a5)
    1110:	400057b7          	lui	a5,0x40005
    1114:	80078793          	addi	a5,a5,-2048 # 40004800 <_eusrstack+0x1ffff800>
    1118:	00079c23          	sh	zero,24(a5)
    111c:	03700513          	li	a0,55
    1120:	cd8ff0ef          	jal	ra,5f8 <NVIC_EnableIRQ>
    1124:	4591                	li	a1,4
    1126:	03700513          	li	a0,55
    112a:	d00ff0ef          	jal	ra,62a <NVIC_SetPriority>
    112e:	0001                	nop
    1130:	40b2                	lw	ra,12(sp)
    1132:	4422                	lw	s0,8(sp)
    1134:	0141                	addi	sp,sp,16
    1136:	8082                	ret

00001138 <RVMSIS_FLASH_Unlock>:
    1138:	1141                	addi	sp,sp,-16
    113a:	c622                	sw	s0,12(sp)
    113c:	0800                	addi	s0,sp,16
    113e:	400227b7          	lui	a5,0x40022
    1142:	45670737          	lui	a4,0x45670
    1146:	12370713          	addi	a4,a4,291 # 45670123 <_eusrstack+0x2566b123>
    114a:	c3d8                	sw	a4,4(a5)
    114c:	400227b7          	lui	a5,0x40022
    1150:	cdef9737          	lui	a4,0xcdef9
    1154:	9ab70713          	addi	a4,a4,-1621 # cdef89ab <_eusrstack+0xadef39ab>
    1158:	c3d8                	sw	a4,4(a5)
    115a:	0001                	nop
    115c:	4432                	lw	s0,12(sp)
    115e:	0141                	addi	sp,sp,16
    1160:	8082                	ret

00001162 <RVMSIS_FLASH_Lock>:
    1162:	1141                	addi	sp,sp,-16
    1164:	c622                	sw	s0,12(sp)
    1166:	0800                	addi	s0,sp,16
    1168:	400227b7          	lui	a5,0x40022
    116c:	4b98                	lw	a4,16(a5)
    116e:	400227b7          	lui	a5,0x40022
    1172:	08076713          	ori	a4,a4,128
    1176:	cb98                	sw	a4,16(a5)
    1178:	0001                	nop
    117a:	4432                	lw	s0,12(sp)
    117c:	0141                	addi	sp,sp,16
    117e:	8082                	ret

00001180 <RVMSIS_FLASH_Page_erase>:
    1180:	1101                	addi	sp,sp,-32
    1182:	ce06                	sw	ra,28(sp)
    1184:	cc22                	sw	s0,24(sp)
    1186:	1000                	addi	s0,sp,32
    1188:	87aa                	mv	a5,a0
    118a:	fef41723          	sh	a5,-18(s0)
    118e:	400227b7          	lui	a5,0x40022
    1192:	4b9c                	lw	a5,16(a5)
    1194:	0807f793          	andi	a5,a5,128
    1198:	c391                	beqz	a5,119c <RVMSIS_FLASH_Page_erase+0x1c>
    119a:	3f79                	jal	1138 <RVMSIS_FLASH_Unlock>
    119c:	400227b7          	lui	a5,0x40022
    11a0:	4b98                	lw	a4,16(a5)
    11a2:	400227b7          	lui	a5,0x40022
    11a6:	00276713          	ori	a4,a4,2
    11aa:	cb98                	sw	a4,16(a5)
    11ac:	400227b7          	lui	a5,0x40022
    11b0:	fee45703          	lhu	a4,-18(s0)
    11b4:	cbd8                	sw	a4,20(a5)
    11b6:	400227b7          	lui	a5,0x40022
    11ba:	4b98                	lw	a4,16(a5)
    11bc:	400227b7          	lui	a5,0x40022
    11c0:	04076713          	ori	a4,a4,64
    11c4:	cb98                	sw	a4,16(a5)
    11c6:	0001                	nop
    11c8:	400227b7          	lui	a5,0x40022
    11cc:	47dc                	lw	a5,12(a5)
    11ce:	8b85                	andi	a5,a5,1
    11d0:	ffe5                	bnez	a5,11c8 <RVMSIS_FLASH_Page_erase+0x48>
    11d2:	400227b7          	lui	a5,0x40022
    11d6:	4b98                	lw	a4,16(a5)
    11d8:	400227b7          	lui	a5,0x40022
    11dc:	9b75                	andi	a4,a4,-3
    11de:	cb98                	sw	a4,16(a5)
    11e0:	3749                	jal	1162 <RVMSIS_FLASH_Lock>
    11e2:	0001                	nop
    11e4:	40f2                	lw	ra,28(sp)
    11e6:	4462                	lw	s0,24(sp)
    11e8:	6105                	addi	sp,sp,32
    11ea:	8082                	ret

000011ec <RVMSIS_FLASH_Page_write>:
    11ec:	7179                	addi	sp,sp,-48
    11ee:	d606                	sw	ra,44(sp)
    11f0:	d422                	sw	s0,40(sp)
    11f2:	1800                	addi	s0,sp,48
    11f4:	fca42e23          	sw	a0,-36(s0)
    11f8:	fcb42c23          	sw	a1,-40(s0)
    11fc:	87b2                	mv	a5,a2
    11fe:	fcf41b23          	sh	a5,-42(s0)
    1202:	fd645783          	lhu	a5,-42(s0)
    1206:	8b85                	andi	a5,a5,1
    1208:	07c2                	slli	a5,a5,0x10
    120a:	83c1                	srli	a5,a5,0x10
    120c:	c3dd                	beqz	a5,12b2 <RVMSIS_FLASH_Page_write+0xc6>
    120e:	fd645783          	lhu	a5,-42(s0)
    1212:	8385                	srli	a5,a5,0x1
    1214:	fcf41b23          	sh	a5,-42(s0)
    1218:	fdc42783          	lw	a5,-36(s0)
    121c:	07c2                	slli	a5,a5,0x10
    121e:	83c1                	srli	a5,a5,0x10
    1220:	853e                	mv	a0,a5
    1222:	3fb9                	jal	1180 <RVMSIS_FLASH_Page_erase>
    1224:	400227b7          	lui	a5,0x40022
    1228:	4b9c                	lw	a5,16(a5)
    122a:	0807f793          	andi	a5,a5,128
    122e:	c391                	beqz	a5,1232 <RVMSIS_FLASH_Page_write+0x46>
    1230:	3721                	jal	1138 <RVMSIS_FLASH_Unlock>
    1232:	400227b7          	lui	a5,0x40022
    1236:	4b98                	lw	a4,16(a5)
    1238:	400227b7          	lui	a5,0x40022
    123c:	00176713          	ori	a4,a4,1
    1240:	cb98                	sw	a4,16(a5)
    1242:	fe042623          	sw	zero,-20(s0)
    1246:	a81d                	j	127c <RVMSIS_FLASH_Page_write+0x90>
    1248:	fec42783          	lw	a5,-20(s0)
    124c:	0786                	slli	a5,a5,0x1
    124e:	fd842703          	lw	a4,-40(s0)
    1252:	97ba                	add	a5,a5,a4
    1254:	fec42703          	lw	a4,-20(s0)
    1258:	0706                	slli	a4,a4,0x1
    125a:	86ba                	mv	a3,a4
    125c:	fdc42703          	lw	a4,-36(s0)
    1260:	9736                	add	a4,a4,a3
    1262:	239e                	lhu	a5,0(a5)
    1264:	a31e                	sh	a5,0(a4)
    1266:	0001                	nop
    1268:	400227b7          	lui	a5,0x40022
    126c:	47dc                	lw	a5,12(a5)
    126e:	8b85                	andi	a5,a5,1
    1270:	ffe5                	bnez	a5,1268 <RVMSIS_FLASH_Page_write+0x7c>
    1272:	fec42783          	lw	a5,-20(s0)
    1276:	0785                	addi	a5,a5,1
    1278:	fef42623          	sw	a5,-20(s0)
    127c:	fd645783          	lhu	a5,-42(s0)
    1280:	fec42703          	lw	a4,-20(s0)
    1284:	fcf742e3          	blt	a4,a5,1248 <RVMSIS_FLASH_Page_write+0x5c>
    1288:	fd645783          	lhu	a5,-42(s0)
    128c:	0786                	slli	a5,a5,0x1
    128e:	873e                	mv	a4,a5
    1290:	fd842783          	lw	a5,-40(s0)
    1294:	97ba                	add	a5,a5,a4
    1296:	2394                	lbu	a3,0(a5)
    1298:	fd645783          	lhu	a5,-42(s0)
    129c:	0786                	slli	a5,a5,0x1
    129e:	873e                	mv	a4,a5
    12a0:	fdc42783          	lw	a5,-36(s0)
    12a4:	97ba                	add	a5,a5,a4
    12a6:	873e                	mv	a4,a5
    12a8:	01069793          	slli	a5,a3,0x10
    12ac:	83c1                	srli	a5,a5,0x10
    12ae:	a31e                	sh	a5,0(a4)
    12b0:	a8b5                	j	132c <RVMSIS_FLASH_Page_write+0x140>
    12b2:	fd645783          	lhu	a5,-42(s0)
    12b6:	8385                	srli	a5,a5,0x1
    12b8:	fcf41b23          	sh	a5,-42(s0)
    12bc:	fdc42783          	lw	a5,-36(s0)
    12c0:	07c2                	slli	a5,a5,0x10
    12c2:	83c1                	srli	a5,a5,0x10
    12c4:	853e                	mv	a0,a5
    12c6:	3d6d                	jal	1180 <RVMSIS_FLASH_Page_erase>
    12c8:	400227b7          	lui	a5,0x40022
    12cc:	4b9c                	lw	a5,16(a5)
    12ce:	0807f793          	andi	a5,a5,128
    12d2:	c391                	beqz	a5,12d6 <RVMSIS_FLASH_Page_write+0xea>
    12d4:	3595                	jal	1138 <RVMSIS_FLASH_Unlock>
    12d6:	400227b7          	lui	a5,0x40022
    12da:	4b98                	lw	a4,16(a5)
    12dc:	400227b7          	lui	a5,0x40022
    12e0:	00176713          	ori	a4,a4,1
    12e4:	cb98                	sw	a4,16(a5)
    12e6:	fe042423          	sw	zero,-24(s0)
    12ea:	a81d                	j	1320 <RVMSIS_FLASH_Page_write+0x134>
    12ec:	fe842783          	lw	a5,-24(s0)
    12f0:	0786                	slli	a5,a5,0x1
    12f2:	fd842703          	lw	a4,-40(s0)
    12f6:	97ba                	add	a5,a5,a4
    12f8:	fe842703          	lw	a4,-24(s0)
    12fc:	0706                	slli	a4,a4,0x1
    12fe:	86ba                	mv	a3,a4
    1300:	fdc42703          	lw	a4,-36(s0)
    1304:	9736                	add	a4,a4,a3
    1306:	239e                	lhu	a5,0(a5)
    1308:	a31e                	sh	a5,0(a4)
    130a:	0001                	nop
    130c:	400227b7          	lui	a5,0x40022
    1310:	47dc                	lw	a5,12(a5)
    1312:	8b85                	andi	a5,a5,1
    1314:	ffe5                	bnez	a5,130c <RVMSIS_FLASH_Page_write+0x120>
    1316:	fe842783          	lw	a5,-24(s0)
    131a:	0785                	addi	a5,a5,1
    131c:	fef42423          	sw	a5,-24(s0)
    1320:	fd645783          	lhu	a5,-42(s0)
    1324:	fe842703          	lw	a4,-24(s0)
    1328:	fcf742e3          	blt	a4,a5,12ec <RVMSIS_FLASH_Page_write+0x100>
    132c:	0001                	nop
    132e:	400227b7          	lui	a5,0x40022
    1332:	47dc                	lw	a5,12(a5)
    1334:	8b85                	andi	a5,a5,1
    1336:	ffe5                	bnez	a5,132e <RVMSIS_FLASH_Page_write+0x142>
    1338:	400227b7          	lui	a5,0x40022
    133c:	4b98                	lw	a4,16(a5)
    133e:	400227b7          	lui	a5,0x40022
    1342:	9b79                	andi	a4,a4,-2
    1344:	cb98                	sw	a4,16(a5)
    1346:	3d31                	jal	1162 <RVMSIS_FLASH_Lock>
    1348:	0001                	nop
    134a:	50b2                	lw	ra,44(sp)
    134c:	5422                	lw	s0,40(sp)
    134e:	6145                	addi	sp,sp,48
    1350:	8082                	ret

00001352 <RVMSIS_FLASH_Read_data>:
    1352:	7179                	addi	sp,sp,-48
    1354:	d622                	sw	s0,44(sp)
    1356:	1800                	addi	s0,sp,48
    1358:	fca42e23          	sw	a0,-36(s0)
    135c:	fcb42c23          	sw	a1,-40(s0)
    1360:	87b2                	mv	a5,a2
    1362:	fcf41b23          	sh	a5,-42(s0)
    1366:	fd645783          	lhu	a5,-42(s0)
    136a:	8b85                	andi	a5,a5,1
    136c:	07c2                	slli	a5,a5,0x10
    136e:	83c1                	srli	a5,a5,0x10
    1370:	c7bd                	beqz	a5,13de <RVMSIS_FLASH_Read_data+0x8c>
    1372:	fd645783          	lhu	a5,-42(s0)
    1376:	8385                	srli	a5,a5,0x1
    1378:	fcf41b23          	sh	a5,-42(s0)
    137c:	fe041723          	sh	zero,-18(s0)
    1380:	a035                	j	13ac <RVMSIS_FLASH_Read_data+0x5a>
    1382:	fee45783          	lhu	a5,-18(s0)
    1386:	0786                	slli	a5,a5,0x1
    1388:	873e                	mv	a4,a5
    138a:	fdc42783          	lw	a5,-36(s0)
    138e:	97ba                	add	a5,a5,a4
    1390:	86be                	mv	a3,a5
    1392:	fee45783          	lhu	a5,-18(s0)
    1396:	0786                	slli	a5,a5,0x1
    1398:	fd842703          	lw	a4,-40(s0)
    139c:	97ba                	add	a5,a5,a4
    139e:	229a                	lhu	a4,0(a3)
    13a0:	a39a                	sh	a4,0(a5)
    13a2:	fee45783          	lhu	a5,-18(s0)
    13a6:	0785                	addi	a5,a5,1
    13a8:	fef41723          	sh	a5,-18(s0)
    13ac:	fee45703          	lhu	a4,-18(s0)
    13b0:	fd645783          	lhu	a5,-42(s0)
    13b4:	fcf767e3          	bltu	a4,a5,1382 <RVMSIS_FLASH_Read_data+0x30>
    13b8:	fd645783          	lhu	a5,-42(s0)
    13bc:	0786                	slli	a5,a5,0x1
    13be:	873e                	mv	a4,a5
    13c0:	fdc42783          	lw	a5,-36(s0)
    13c4:	97ba                	add	a5,a5,a4
    13c6:	239a                	lhu	a4,0(a5)
    13c8:	fd645783          	lhu	a5,-42(s0)
    13cc:	0786                	slli	a5,a5,0x1
    13ce:	86be                	mv	a3,a5
    13d0:	fd842783          	lw	a5,-40(s0)
    13d4:	97b6                	add	a5,a5,a3
    13d6:	0ff77713          	andi	a4,a4,255
    13da:	a398                	sb	a4,0(a5)
    13dc:	a0a1                	j	1424 <RVMSIS_FLASH_Read_data+0xd2>
    13de:	fd645783          	lhu	a5,-42(s0)
    13e2:	8385                	srli	a5,a5,0x1
    13e4:	fcf41b23          	sh	a5,-42(s0)
    13e8:	fe041623          	sh	zero,-20(s0)
    13ec:	a035                	j	1418 <RVMSIS_FLASH_Read_data+0xc6>
    13ee:	fec45783          	lhu	a5,-20(s0)
    13f2:	0786                	slli	a5,a5,0x1
    13f4:	873e                	mv	a4,a5
    13f6:	fdc42783          	lw	a5,-36(s0)
    13fa:	97ba                	add	a5,a5,a4
    13fc:	86be                	mv	a3,a5
    13fe:	fec45783          	lhu	a5,-20(s0)
    1402:	0786                	slli	a5,a5,0x1
    1404:	fd842703          	lw	a4,-40(s0)
    1408:	97ba                	add	a5,a5,a4
    140a:	229a                	lhu	a4,0(a3)
    140c:	a39a                	sh	a4,0(a5)
    140e:	fec45783          	lhu	a5,-20(s0)
    1412:	0785                	addi	a5,a5,1
    1414:	fef41623          	sh	a5,-20(s0)
    1418:	fec45703          	lhu	a4,-20(s0)
    141c:	fd645783          	lhu	a5,-42(s0)
    1420:	fcf767e3          	bltu	a4,a5,13ee <RVMSIS_FLASH_Read_data+0x9c>
    1424:	0001                	nop
    1426:	5432                	lw	s0,44(sp)
    1428:	6145                	addi	sp,sp,48
    142a:	8082                	ret

0000142c <NVIC_GetPriority>:
    142c:	1101                	addi	sp,sp,-32
    142e:	ce22                	sw	s0,28(sp)
    1430:	1000                	addi	s0,sp,32
    1432:	fea42623          	sw	a0,-20(s0)
    1436:	e000e737          	lui	a4,0xe000e
    143a:	fec42783          	lw	a5,-20(s0)
    143e:	97ba                	add	a5,a5,a4
    1440:	4007c783          	lbu	a5,1024(a5) # 40022400 <_eusrstack+0x2001d400>
    1444:	0ff7f793          	andi	a5,a5,255
    1448:	8395                	srli	a5,a5,0x5
    144a:	0ff7f793          	andi	a5,a5,255
    144e:	853e                	mv	a0,a5
    1450:	4472                	lw	s0,28(sp)
    1452:	6105                	addi	sp,sp,32
    1454:	8082                	ret

00001456 <main>:
    1456:	1141                	addi	sp,sp,-16
    1458:	c606                	sw	ra,12(sp)
    145a:	c422                	sw	s0,8(sp)
    145c:	0800                	addi	s0,sp,16
    145e:	a0cff0ef          	jal	ra,66a <RVMSIS_Debug_init>
    1462:	a78ff0ef          	jal	ra,6da <RVMSIS_RCC_SystemClock_144MHz>
    1466:	c16ff0ef          	jal	ra,87c <RVMSIS_SysTick_Timer_init>
    146a:	3a71                	jal	e06 <RVMSIS_USART3_Init>
    146c:	470d                	li	a4,3
    146e:	4681                	li	a3,0
    1470:	4601                	li	a2,0
    1472:	45b5                	li	a1,13
    1474:	40011537          	lui	a0,0x40011
    1478:	835ff0ef          	jal	ra,cac <RVMSIS_GPIO_init>
    147c:	577d                	li	a4,-1
    147e:	86e18823          	sb	a4,-1936(gp) # 200000d0 <Flash_data_CH32>
    1482:	8711c703          	lbu	a4,-1935(gp) # 200000d1 <Flash_data_CH32+0x1>
    1486:	8b01                	andi	a4,a4,0
    1488:	06776713          	ori	a4,a4,103
    148c:	86e188a3          	sb	a4,-1935(gp) # 200000d1 <Flash_data_CH32+0x1>
    1490:	8721c703          	lbu	a4,-1934(gp) # 200000d2 <Flash_data_CH32+0x2>
    1494:	8b01                	andi	a4,a4,0
    1496:	04576713          	ori	a4,a4,69
    149a:	86e18923          	sb	a4,-1934(gp) # 200000d2 <Flash_data_CH32+0x2>
    149e:	8731c703          	lbu	a4,-1933(gp) # 200000d3 <Flash_data_CH32+0x3>
    14a2:	8b01                	andi	a4,a4,0
    14a4:	01276713          	ori	a4,a4,18
    14a8:	86e189a3          	sb	a4,-1933(gp) # 200000d3 <Flash_data_CH32+0x3>
    14ac:	8741c703          	lbu	a4,-1932(gp) # 200000d4 <Flash_data_CH32+0x4>
    14b0:	8b01                	andi	a4,a4,0
    14b2:	01176713          	ori	a4,a4,17
    14b6:	86e18a23          	sb	a4,-1932(gp) # 200000d4 <Flash_data_CH32+0x4>
    14ba:	8751c703          	lbu	a4,-1931(gp) # 200000d5 <Flash_data_CH32+0x5>
    14be:	8b01                	andi	a4,a4,0
    14c0:	01076713          	ori	a4,a4,16
    14c4:	86e18aa3          	sb	a4,-1931(gp) # 200000d5 <Flash_data_CH32+0x5>
    14c8:	8761c703          	lbu	a4,-1930(gp) # 200000d6 <Flash_data_CH32+0x6>
    14cc:	8b01                	andi	a4,a4,0
    14ce:	f8976713          	ori	a4,a4,-119
    14d2:	86e18b23          	sb	a4,-1930(gp) # 200000d6 <Flash_data_CH32+0x6>
    14d6:	87018793          	addi	a5,gp,-1936 # 200000d0 <Flash_data_CH32>
    14da:	670d                	lui	a4,0x3
    14dc:	82472703          	lw	a4,-2012(a4) # 2824 <_sbrk+0x56>
    14e0:	0ff77593          	andi	a1,a4,255
    14e4:	33f4                	lbu	a3,7(a5)
    14e6:	8a81                	andi	a3,a3,0
    14e8:	8636                	mv	a2,a3
    14ea:	86ae                	mv	a3,a1
    14ec:	8ed1                	or	a3,a3,a2
    14ee:	b3f4                	sb	a3,7(a5)
    14f0:	00875693          	srli	a3,a4,0x8
    14f4:	0ff6f593          	andi	a1,a3,255
    14f8:	2794                	lbu	a3,8(a5)
    14fa:	8a81                	andi	a3,a3,0
    14fc:	8636                	mv	a2,a3
    14fe:	86ae                	mv	a3,a1
    1500:	8ed1                	or	a3,a3,a2
    1502:	a794                	sb	a3,8(a5)
    1504:	01075693          	srli	a3,a4,0x10
    1508:	0ff6f593          	andi	a1,a3,255
    150c:	3794                	lbu	a3,9(a5)
    150e:	8a81                	andi	a3,a3,0
    1510:	8636                	mv	a2,a3
    1512:	86ae                	mv	a3,a1
    1514:	8ed1                	or	a3,a3,a2
    1516:	b794                	sb	a3,9(a5)
    1518:	01875613          	srli	a2,a4,0x18
    151c:	27b8                	lbu	a4,10(a5)
    151e:	8b01                	andi	a4,a4,0
    1520:	86ba                	mv	a3,a4
    1522:	8732                	mv	a4,a2
    1524:	8f55                	or	a4,a4,a3
    1526:	a7b8                	sb	a4,10(a5)
    1528:	462d                	li	a2,11
    152a:	87018593          	addi	a1,gp,-1936 # 200000d0 <Flash_data_CH32>
    152e:	0800f537          	lui	a0,0x800f
    1532:	396d                	jal	11ec <RVMSIS_FLASH_Page_write>
    1534:	462d                	li	a2,11
    1536:	87c18593          	addi	a1,gp,-1924 # 200000dc <Flash_data_CH32_read>
    153a:	0800f537          	lui	a0,0x800f
    153e:	3d11                	jal	1352 <RVMSIS_FLASH_Read_data>
    1540:	4531                	li	a0,12
    1542:	35ed                	jal	142c <NVIC_GetPriority>
    1544:	87aa                	mv	a5,a0
    1546:	873e                	mv	a4,a5
    1548:	80e18a23          	sb	a4,-2028(gp) # 20000074 <Priority>
    154c:	6789                	lui	a5,0x2
    154e:	7f078513          	addi	a0,a5,2032 # 27f0 <_sbrk+0x22>
    1552:	22f9                	jal	1720 <puts>
    1554:	8181a783          	lw	a5,-2024(gp) # 20000078 <Counter>
    1558:	85be                	mv	a1,a5
    155a:	678d                	lui	a5,0x3
    155c:	80078513          	addi	a0,a5,-2048 # 2800 <_sbrk+0x32>
    1560:	2065                	jal	1608 <iprintf>
    1562:	8181a783          	lw	a5,-2024(gp) # 20000078 <Counter>
    1566:	00178713          	addi	a4,a5,1
    156a:	80e1ac23          	sw	a4,-2024(gp) # 20000078 <Counter>
    156e:	400117b7          	lui	a5,0x40011
    1572:	6709                	lui	a4,0x2
    1574:	cb98                	sw	a4,16(a5)
    1576:	06400513          	li	a0,100
    157a:	b9cff0ef          	jal	ra,916 <Delay_ms>
    157e:	400117b7          	lui	a5,0x40011
    1582:	20000737          	lui	a4,0x20000
    1586:	cb98                	sw	a4,16(a5)
    1588:	06400513          	li	a0,100
    158c:	b8aff0ef          	jal	ra,916 <Delay_ms>
    1590:	b7d1                	j	1554 <main+0xfe>

00001592 <_write>:
    1592:	7179                	addi	sp,sp,-48
    1594:	d606                	sw	ra,44(sp)
    1596:	d422                	sw	s0,40(sp)
    1598:	1800                	addi	s0,sp,48
    159a:	fca42e23          	sw	a0,-36(s0)
    159e:	fcb42c23          	sw	a1,-40(s0)
    15a2:	fcc42a23          	sw	a2,-44(s0)
    15a6:	fe042623          	sw	zero,-20(s0)
    15aa:	a091                	j	15ee <_write+0x5c>
    15ac:	0001                	nop
    15ae:	04000593          	li	a1,64
    15b2:	400057b7          	lui	a5,0x40005
    15b6:	80078513          	addi	a0,a5,-2048 # 40004800 <_eusrstack+0x1ffff800>
    15ba:	c5bfe0ef          	jal	ra,214 <USART_GetFlagStatus>
    15be:	87aa                	mv	a5,a0
    15c0:	d7fd                	beqz	a5,15ae <_write+0x1c>
    15c2:	fd842783          	lw	a5,-40(s0)
    15c6:	00178713          	addi	a4,a5,1
    15ca:	fce42c23          	sw	a4,-40(s0)
    15ce:	00078783          	lb	a5,0(a5)
    15d2:	07c2                	slli	a5,a5,0x10
    15d4:	83c1                	srli	a5,a5,0x10
    15d6:	85be                	mv	a1,a5
    15d8:	400057b7          	lui	a5,0x40005
    15dc:	80078513          	addi	a0,a5,-2048 # 40004800 <_eusrstack+0x1ffff800>
    15e0:	c09fe0ef          	jal	ra,1e8 <USART_SendData>
    15e4:	fec42783          	lw	a5,-20(s0)
    15e8:	0785                	addi	a5,a5,1
    15ea:	fef42623          	sw	a5,-20(s0)
    15ee:	fec42703          	lw	a4,-20(s0)
    15f2:	fd442783          	lw	a5,-44(s0)
    15f6:	faf74be3          	blt	a4,a5,15ac <_write+0x1a>
    15fa:	fd442783          	lw	a5,-44(s0)
    15fe:	853e                	mv	a0,a5
    1600:	50b2                	lw	ra,44(sp)
    1602:	5422                	lw	s0,40(sp)
    1604:	6145                	addi	sp,sp,48
    1606:	8082                	ret

00001608 <iprintf>:
    1608:	7139                	addi	sp,sp,-64
    160a:	da3e                	sw	a5,52(sp)
    160c:	d22e                	sw	a1,36(sp)
    160e:	d432                	sw	a2,40(sp)
    1610:	d636                	sw	a3,44(sp)
    1612:	d83a                	sw	a4,48(sp)
    1614:	dc42                	sw	a6,56(sp)
    1616:	de46                	sw	a7,60(sp)
    1618:	1ffff797          	auipc	a5,0x1ffff
    161c:	a4878793          	addi	a5,a5,-1464 # 20000060 <_impure_ptr>
    1620:	cc22                	sw	s0,24(sp)
    1622:	4380                	lw	s0,0(a5)
    1624:	ca26                	sw	s1,20(sp)
    1626:	ce06                	sw	ra,28(sp)
    1628:	84aa                	mv	s1,a0
    162a:	c409                	beqz	s0,1634 <iprintf+0x2c>
    162c:	4c1c                	lw	a5,24(s0)
    162e:	e399                	bnez	a5,1634 <iprintf+0x2c>
    1630:	8522                	mv	a0,s0
    1632:	2309                	jal	1b34 <__sinit>
    1634:	440c                	lw	a1,8(s0)
    1636:	1054                	addi	a3,sp,36
    1638:	8626                	mv	a2,s1
    163a:	8522                	mv	a0,s0
    163c:	c636                	sw	a3,12(sp)
    163e:	137000ef          	jal	ra,1f74 <_vfiprintf_r>
    1642:	40f2                	lw	ra,28(sp)
    1644:	4462                	lw	s0,24(sp)
    1646:	44d2                	lw	s1,20(sp)
    1648:	6121                	addi	sp,sp,64
    164a:	8082                	ret

0000164c <_puts_r>:
    164c:	1101                	addi	sp,sp,-32
    164e:	ca26                	sw	s1,20(sp)
    1650:	c84a                	sw	s2,16(sp)
    1652:	ce06                	sw	ra,28(sp)
    1654:	cc22                	sw	s0,24(sp)
    1656:	c64e                	sw	s3,12(sp)
    1658:	c452                	sw	s4,8(sp)
    165a:	84aa                	mv	s1,a0
    165c:	892e                	mv	s2,a1
    165e:	c501                	beqz	a0,1666 <_puts_r+0x1a>
    1660:	4d1c                	lw	a5,24(a0)
    1662:	e391                	bnez	a5,1666 <_puts_r+0x1a>
    1664:	29c1                	jal	1b34 <__sinit>
    1666:	4c9c                	lw	a5,24(s1)
    1668:	4480                	lw	s0,8(s1)
    166a:	e399                	bnez	a5,1670 <_puts_r+0x24>
    166c:	8526                	mv	a0,s1
    166e:	21d9                	jal	1b34 <__sinit>
    1670:	00001797          	auipc	a5,0x1
    1674:	1d878793          	addi	a5,a5,472 # 2848 <__sf_fake_stdin>
    1678:	02f41b63          	bne	s0,a5,16ae <_puts_r+0x62>
    167c:	40c0                	lw	s0,4(s1)
    167e:	245e                	lhu	a5,12(s0)
    1680:	8ba1                	andi	a5,a5,8
    1682:	c7b1                	beqz	a5,16ce <_puts_r+0x82>
    1684:	481c                	lw	a5,16(s0)
    1686:	c7a1                	beqz	a5,16ce <_puts_r+0x82>
    1688:	59fd                	li	s3,-1
    168a:	4a29                	li	s4,10
    168c:	441c                	lw	a5,8(s0)
    168e:	00094583          	lbu	a1,0(s2)
    1692:	17fd                	addi	a5,a5,-1
    1694:	e9b1                	bnez	a1,16e8 <_puts_r+0x9c>
    1696:	c41c                	sw	a5,8(s0)
    1698:	0607dd63          	bgez	a5,1712 <_puts_r+0xc6>
    169c:	8622                	mv	a2,s0
    169e:	45a9                	li	a1,10
    16a0:	8526                	mv	a0,s1
    16a2:	2071                	jal	172e <__swbuf_r>
    16a4:	57fd                	li	a5,-1
    16a6:	02f50863          	beq	a0,a5,16d6 <_puts_r+0x8a>
    16aa:	4529                	li	a0,10
    16ac:	a035                	j	16d8 <_puts_r+0x8c>
    16ae:	00001797          	auipc	a5,0x1
    16b2:	1ba78793          	addi	a5,a5,442 # 2868 <__sf_fake_stdout>
    16b6:	00f41463          	bne	s0,a5,16be <_puts_r+0x72>
    16ba:	4480                	lw	s0,8(s1)
    16bc:	b7c9                	j	167e <_puts_r+0x32>
    16be:	00001797          	auipc	a5,0x1
    16c2:	16a78793          	addi	a5,a5,362 # 2828 <__sf_fake_stderr>
    16c6:	faf41ce3          	bne	s0,a5,167e <_puts_r+0x32>
    16ca:	44c0                	lw	s0,12(s1)
    16cc:	bf4d                	j	167e <_puts_r+0x32>
    16ce:	85a2                	mv	a1,s0
    16d0:	8526                	mv	a0,s1
    16d2:	2a21                	jal	17ea <__swsetup_r>
    16d4:	d955                	beqz	a0,1688 <_puts_r+0x3c>
    16d6:	557d                	li	a0,-1
    16d8:	40f2                	lw	ra,28(sp)
    16da:	4462                	lw	s0,24(sp)
    16dc:	44d2                	lw	s1,20(sp)
    16de:	4942                	lw	s2,16(sp)
    16e0:	49b2                	lw	s3,12(sp)
    16e2:	4a22                	lw	s4,8(sp)
    16e4:	6105                	addi	sp,sp,32
    16e6:	8082                	ret
    16e8:	c41c                	sw	a5,8(s0)
    16ea:	0905                	addi	s2,s2,1
    16ec:	0007d763          	bgez	a5,16fa <_puts_r+0xae>
    16f0:	4c18                	lw	a4,24(s0)
    16f2:	00e7ca63          	blt	a5,a4,1706 <_puts_r+0xba>
    16f6:	01458863          	beq	a1,s4,1706 <_puts_r+0xba>
    16fa:	401c                	lw	a5,0(s0)
    16fc:	00178713          	addi	a4,a5,1
    1700:	c018                	sw	a4,0(s0)
    1702:	a38c                	sb	a1,0(a5)
    1704:	b761                	j	168c <_puts_r+0x40>
    1706:	8622                	mv	a2,s0
    1708:	8526                	mv	a0,s1
    170a:	2015                	jal	172e <__swbuf_r>
    170c:	f93510e3          	bne	a0,s3,168c <_puts_r+0x40>
    1710:	b7d9                	j	16d6 <_puts_r+0x8a>
    1712:	401c                	lw	a5,0(s0)
    1714:	00178713          	addi	a4,a5,1
    1718:	c018                	sw	a4,0(s0)
    171a:	4729                	li	a4,10
    171c:	a398                	sb	a4,0(a5)
    171e:	b771                	j	16aa <_puts_r+0x5e>

00001720 <puts>:
    1720:	1ffff797          	auipc	a5,0x1ffff
    1724:	94078793          	addi	a5,a5,-1728 # 20000060 <_impure_ptr>
    1728:	85aa                	mv	a1,a0
    172a:	4388                	lw	a0,0(a5)
    172c:	b705                	j	164c <_puts_r>

0000172e <__swbuf_r>:
    172e:	1101                	addi	sp,sp,-32
    1730:	cc22                	sw	s0,24(sp)
    1732:	ca26                	sw	s1,20(sp)
    1734:	c84a                	sw	s2,16(sp)
    1736:	ce06                	sw	ra,28(sp)
    1738:	c64e                	sw	s3,12(sp)
    173a:	84aa                	mv	s1,a0
    173c:	892e                	mv	s2,a1
    173e:	8432                	mv	s0,a2
    1740:	c501                	beqz	a0,1748 <__swbuf_r+0x1a>
    1742:	4d1c                	lw	a5,24(a0)
    1744:	e391                	bnez	a5,1748 <__swbuf_r+0x1a>
    1746:	26fd                	jal	1b34 <__sinit>
    1748:	00001797          	auipc	a5,0x1
    174c:	10078793          	addi	a5,a5,256 # 2848 <__sf_fake_stdin>
    1750:	06f41763          	bne	s0,a5,17be <__swbuf_r+0x90>
    1754:	40c0                	lw	s0,4(s1)
    1756:	4c1c                	lw	a5,24(s0)
    1758:	c41c                	sw	a5,8(s0)
    175a:	245e                	lhu	a5,12(s0)
    175c:	8ba1                	andi	a5,a5,8
    175e:	c3c1                	beqz	a5,17de <__swbuf_r+0xb0>
    1760:	481c                	lw	a5,16(s0)
    1762:	cfb5                	beqz	a5,17de <__swbuf_r+0xb0>
    1764:	481c                	lw	a5,16(s0)
    1766:	4008                	lw	a0,0(s0)
    1768:	0ff97993          	andi	s3,s2,255
    176c:	0ff97913          	andi	s2,s2,255
    1770:	8d1d                	sub	a0,a0,a5
    1772:	485c                	lw	a5,20(s0)
    1774:	00f54663          	blt	a0,a5,1780 <__swbuf_r+0x52>
    1778:	85a2                	mv	a1,s0
    177a:	8526                	mv	a0,s1
    177c:	2c79                	jal	1a1a <_fflush_r>
    177e:	e525                	bnez	a0,17e6 <__swbuf_r+0xb8>
    1780:	441c                	lw	a5,8(s0)
    1782:	0505                	addi	a0,a0,1
    1784:	17fd                	addi	a5,a5,-1
    1786:	c41c                	sw	a5,8(s0)
    1788:	401c                	lw	a5,0(s0)
    178a:	00178713          	addi	a4,a5,1
    178e:	c018                	sw	a4,0(s0)
    1790:	01378023          	sb	s3,0(a5)
    1794:	485c                	lw	a5,20(s0)
    1796:	00a78863          	beq	a5,a0,17a6 <__swbuf_r+0x78>
    179a:	245e                	lhu	a5,12(s0)
    179c:	8b85                	andi	a5,a5,1
    179e:	cb81                	beqz	a5,17ae <__swbuf_r+0x80>
    17a0:	47a9                	li	a5,10
    17a2:	00f91663          	bne	s2,a5,17ae <__swbuf_r+0x80>
    17a6:	85a2                	mv	a1,s0
    17a8:	8526                	mv	a0,s1
    17aa:	2c85                	jal	1a1a <_fflush_r>
    17ac:	ed0d                	bnez	a0,17e6 <__swbuf_r+0xb8>
    17ae:	40f2                	lw	ra,28(sp)
    17b0:	4462                	lw	s0,24(sp)
    17b2:	854a                	mv	a0,s2
    17b4:	44d2                	lw	s1,20(sp)
    17b6:	4942                	lw	s2,16(sp)
    17b8:	49b2                	lw	s3,12(sp)
    17ba:	6105                	addi	sp,sp,32
    17bc:	8082                	ret
    17be:	00001797          	auipc	a5,0x1
    17c2:	0aa78793          	addi	a5,a5,170 # 2868 <__sf_fake_stdout>
    17c6:	00f41463          	bne	s0,a5,17ce <__swbuf_r+0xa0>
    17ca:	4480                	lw	s0,8(s1)
    17cc:	b769                	j	1756 <__swbuf_r+0x28>
    17ce:	00001797          	auipc	a5,0x1
    17d2:	05a78793          	addi	a5,a5,90 # 2828 <__sf_fake_stderr>
    17d6:	f8f410e3          	bne	s0,a5,1756 <__swbuf_r+0x28>
    17da:	44c0                	lw	s0,12(s1)
    17dc:	bfad                	j	1756 <__swbuf_r+0x28>
    17de:	85a2                	mv	a1,s0
    17e0:	8526                	mv	a0,s1
    17e2:	2021                	jal	17ea <__swsetup_r>
    17e4:	d141                	beqz	a0,1764 <__swbuf_r+0x36>
    17e6:	597d                	li	s2,-1
    17e8:	b7d9                	j	17ae <__swbuf_r+0x80>

000017ea <__swsetup_r>:
    17ea:	1141                	addi	sp,sp,-16
    17ec:	1ffff797          	auipc	a5,0x1ffff
    17f0:	87478793          	addi	a5,a5,-1932 # 20000060 <_impure_ptr>
    17f4:	c226                	sw	s1,4(sp)
    17f6:	4384                	lw	s1,0(a5)
    17f8:	c422                	sw	s0,8(sp)
    17fa:	c04a                	sw	s2,0(sp)
    17fc:	c606                	sw	ra,12(sp)
    17fe:	892a                	mv	s2,a0
    1800:	842e                	mv	s0,a1
    1802:	c489                	beqz	s1,180c <__swsetup_r+0x22>
    1804:	4c9c                	lw	a5,24(s1)
    1806:	e399                	bnez	a5,180c <__swsetup_r+0x22>
    1808:	8526                	mv	a0,s1
    180a:	262d                	jal	1b34 <__sinit>
    180c:	00001797          	auipc	a5,0x1
    1810:	03c78793          	addi	a5,a5,60 # 2848 <__sf_fake_stdin>
    1814:	02f41b63          	bne	s0,a5,184a <__swsetup_r+0x60>
    1818:	40c0                	lw	s0,4(s1)
    181a:	00c41703          	lh	a4,12(s0)
    181e:	01071793          	slli	a5,a4,0x10
    1822:	83c1                	srli	a5,a5,0x10
    1824:	0087f693          	andi	a3,a5,8
    1828:	eaad                	bnez	a3,189a <__swsetup_r+0xb0>
    182a:	0107f693          	andi	a3,a5,16
    182e:	ee95                	bnez	a3,186a <__swsetup_r+0x80>
    1830:	47a5                	li	a5,9
    1832:	00f92023          	sw	a5,0(s2)
    1836:	04076713          	ori	a4,a4,64
    183a:	a45a                	sh	a4,12(s0)
    183c:	557d                	li	a0,-1
    183e:	40b2                	lw	ra,12(sp)
    1840:	4422                	lw	s0,8(sp)
    1842:	4492                	lw	s1,4(sp)
    1844:	4902                	lw	s2,0(sp)
    1846:	0141                	addi	sp,sp,16
    1848:	8082                	ret
    184a:	00001797          	auipc	a5,0x1
    184e:	01e78793          	addi	a5,a5,30 # 2868 <__sf_fake_stdout>
    1852:	00f41463          	bne	s0,a5,185a <__swsetup_r+0x70>
    1856:	4480                	lw	s0,8(s1)
    1858:	b7c9                	j	181a <__swsetup_r+0x30>
    185a:	00001797          	auipc	a5,0x1
    185e:	fce78793          	addi	a5,a5,-50 # 2828 <__sf_fake_stderr>
    1862:	faf41ce3          	bne	s0,a5,181a <__swsetup_r+0x30>
    1866:	44c0                	lw	s0,12(s1)
    1868:	bf4d                	j	181a <__swsetup_r+0x30>
    186a:	8b91                	andi	a5,a5,4
    186c:	c39d                	beqz	a5,1892 <__swsetup_r+0xa8>
    186e:	584c                	lw	a1,52(s0)
    1870:	c989                	beqz	a1,1882 <__swsetup_r+0x98>
    1872:	04440793          	addi	a5,s0,68
    1876:	00f58463          	beq	a1,a5,187e <__swsetup_r+0x94>
    187a:	854a                	mv	a0,s2
    187c:	2b11                	jal	1d90 <_free_r>
    187e:	02042a23          	sw	zero,52(s0)
    1882:	245e                	lhu	a5,12(s0)
    1884:	00042223          	sw	zero,4(s0)
    1888:	fdb7f793          	andi	a5,a5,-37
    188c:	a45e                	sh	a5,12(s0)
    188e:	481c                	lw	a5,16(s0)
    1890:	c01c                	sw	a5,0(s0)
    1892:	245e                	lhu	a5,12(s0)
    1894:	0087e793          	ori	a5,a5,8
    1898:	a45e                	sh	a5,12(s0)
    189a:	481c                	lw	a5,16(s0)
    189c:	eb99                	bnez	a5,18b2 <__swsetup_r+0xc8>
    189e:	245e                	lhu	a5,12(s0)
    18a0:	20000713          	li	a4,512
    18a4:	2807f793          	andi	a5,a5,640
    18a8:	00e78563          	beq	a5,a4,18b2 <__swsetup_r+0xc8>
    18ac:	85a2                	mv	a1,s0
    18ae:	854a                	mv	a0,s2
    18b0:	2981                	jal	1d00 <__smakebuf_r>
    18b2:	245e                	lhu	a5,12(s0)
    18b4:	0017f713          	andi	a4,a5,1
    18b8:	c31d                	beqz	a4,18de <__swsetup_r+0xf4>
    18ba:	485c                	lw	a5,20(s0)
    18bc:	00042423          	sw	zero,8(s0)
    18c0:	40f007b3          	neg	a5,a5
    18c4:	cc1c                	sw	a5,24(s0)
    18c6:	481c                	lw	a5,16(s0)
    18c8:	4501                	li	a0,0
    18ca:	fbb5                	bnez	a5,183e <__swsetup_r+0x54>
    18cc:	00c41783          	lh	a5,12(s0)
    18d0:	0807f713          	andi	a4,a5,128
    18d4:	d72d                	beqz	a4,183e <__swsetup_r+0x54>
    18d6:	0407e793          	ori	a5,a5,64
    18da:	a45e                	sh	a5,12(s0)
    18dc:	b785                	j	183c <__swsetup_r+0x52>
    18de:	8b89                	andi	a5,a5,2
    18e0:	4701                	li	a4,0
    18e2:	e391                	bnez	a5,18e6 <__swsetup_r+0xfc>
    18e4:	4858                	lw	a4,20(s0)
    18e6:	c418                	sw	a4,8(s0)
    18e8:	bff9                	j	18c6 <__swsetup_r+0xdc>

000018ea <__sflush_r>:
    18ea:	25de                	lhu	a5,12(a1)
    18ec:	1101                	addi	sp,sp,-32
    18ee:	cc22                	sw	s0,24(sp)
    18f0:	ca26                	sw	s1,20(sp)
    18f2:	ce06                	sw	ra,28(sp)
    18f4:	c84a                	sw	s2,16(sp)
    18f6:	c64e                	sw	s3,12(sp)
    18f8:	0087f713          	andi	a4,a5,8
    18fc:	84aa                	mv	s1,a0
    18fe:	842e                	mv	s0,a1
    1900:	eb79                	bnez	a4,19d6 <__sflush_r+0xec>
    1902:	41d8                	lw	a4,4(a1)
    1904:	00e04d63          	bgtz	a4,191e <__sflush_r+0x34>
    1908:	41b8                	lw	a4,64(a1)
    190a:	00e04a63          	bgtz	a4,191e <__sflush_r+0x34>
    190e:	4501                	li	a0,0
    1910:	40f2                	lw	ra,28(sp)
    1912:	4462                	lw	s0,24(sp)
    1914:	44d2                	lw	s1,20(sp)
    1916:	4942                	lw	s2,16(sp)
    1918:	49b2                	lw	s3,12(sp)
    191a:	6105                	addi	sp,sp,32
    191c:	8082                	ret
    191e:	5458                	lw	a4,44(s0)
    1920:	d77d                	beqz	a4,190e <__sflush_r+0x24>
    1922:	0004a903          	lw	s2,0(s1)
    1926:	01379693          	slli	a3,a5,0x13
    192a:	0004a023          	sw	zero,0(s1)
    192e:	0606db63          	bgez	a3,19a4 <__sflush_r+0xba>
    1932:	4870                	lw	a2,84(s0)
    1934:	245e                	lhu	a5,12(s0)
    1936:	8b91                	andi	a5,a5,4
    1938:	c799                	beqz	a5,1946 <__sflush_r+0x5c>
    193a:	405c                	lw	a5,4(s0)
    193c:	8e1d                	sub	a2,a2,a5
    193e:	585c                	lw	a5,52(s0)
    1940:	c399                	beqz	a5,1946 <__sflush_r+0x5c>
    1942:	403c                	lw	a5,64(s0)
    1944:	8e1d                	sub	a2,a2,a5
    1946:	545c                	lw	a5,44(s0)
    1948:	500c                	lw	a1,32(s0)
    194a:	4681                	li	a3,0
    194c:	8526                	mv	a0,s1
    194e:	9782                	jalr	a5
    1950:	57fd                	li	a5,-1
    1952:	245a                	lhu	a4,12(s0)
    1954:	00f51d63          	bne	a0,a5,196e <__sflush_r+0x84>
    1958:	4094                	lw	a3,0(s1)
    195a:	47f5                	li	a5,29
    195c:	06d7e863          	bltu	a5,a3,19cc <__sflush_r+0xe2>
    1960:	204007b7          	lui	a5,0x20400
    1964:	0785                	addi	a5,a5,1
    1966:	00d7d7b3          	srl	a5,a5,a3
    196a:	8b85                	andi	a5,a5,1
    196c:	c3a5                	beqz	a5,19cc <__sflush_r+0xe2>
    196e:	481c                	lw	a5,16(s0)
    1970:	00042223          	sw	zero,4(s0)
    1974:	c01c                	sw	a5,0(s0)
    1976:	01371793          	slli	a5,a4,0x13
    197a:	0007d863          	bgez	a5,198a <__sflush_r+0xa0>
    197e:	57fd                	li	a5,-1
    1980:	00f51463          	bne	a0,a5,1988 <__sflush_r+0x9e>
    1984:	409c                	lw	a5,0(s1)
    1986:	e391                	bnez	a5,198a <__sflush_r+0xa0>
    1988:	c868                	sw	a0,84(s0)
    198a:	584c                	lw	a1,52(s0)
    198c:	0124a023          	sw	s2,0(s1)
    1990:	ddbd                	beqz	a1,190e <__sflush_r+0x24>
    1992:	04440793          	addi	a5,s0,68
    1996:	00f58463          	beq	a1,a5,199e <__sflush_r+0xb4>
    199a:	8526                	mv	a0,s1
    199c:	2ed5                	jal	1d90 <_free_r>
    199e:	02042a23          	sw	zero,52(s0)
    19a2:	b7b5                	j	190e <__sflush_r+0x24>
    19a4:	500c                	lw	a1,32(s0)
    19a6:	4601                	li	a2,0
    19a8:	4685                	li	a3,1
    19aa:	8526                	mv	a0,s1
    19ac:	9702                	jalr	a4
    19ae:	57fd                	li	a5,-1
    19b0:	862a                	mv	a2,a0
    19b2:	f8f511e3          	bne	a0,a5,1934 <__sflush_r+0x4a>
    19b6:	409c                	lw	a5,0(s1)
    19b8:	dfb5                	beqz	a5,1934 <__sflush_r+0x4a>
    19ba:	4775                	li	a4,29
    19bc:	00e78563          	beq	a5,a4,19c6 <__sflush_r+0xdc>
    19c0:	4759                	li	a4,22
    19c2:	04e79363          	bne	a5,a4,1a08 <__sflush_r+0x11e>
    19c6:	0124a023          	sw	s2,0(s1)
    19ca:	b791                	j	190e <__sflush_r+0x24>
    19cc:	04076713          	ori	a4,a4,64
    19d0:	a45a                	sh	a4,12(s0)
    19d2:	557d                	li	a0,-1
    19d4:	bf35                	j	1910 <__sflush_r+0x26>
    19d6:	0105a983          	lw	s3,16(a1)
    19da:	f2098ae3          	beqz	s3,190e <__sflush_r+0x24>
    19de:	0005a903          	lw	s2,0(a1)
    19e2:	8b8d                	andi	a5,a5,3
    19e4:	0135a023          	sw	s3,0(a1)
    19e8:	41390933          	sub	s2,s2,s3
    19ec:	4701                	li	a4,0
    19ee:	e391                	bnez	a5,19f2 <__sflush_r+0x108>
    19f0:	49d8                	lw	a4,20(a1)
    19f2:	c418                	sw	a4,8(s0)
    19f4:	f1205de3          	blez	s2,190e <__sflush_r+0x24>
    19f8:	541c                	lw	a5,40(s0)
    19fa:	500c                	lw	a1,32(s0)
    19fc:	86ca                	mv	a3,s2
    19fe:	864e                	mv	a2,s3
    1a00:	8526                	mv	a0,s1
    1a02:	9782                	jalr	a5
    1a04:	00a04763          	bgtz	a0,1a12 <__sflush_r+0x128>
    1a08:	245e                	lhu	a5,12(s0)
    1a0a:	0407e793          	ori	a5,a5,64
    1a0e:	a45e                	sh	a5,12(s0)
    1a10:	b7c9                	j	19d2 <__sflush_r+0xe8>
    1a12:	99aa                	add	s3,s3,a0
    1a14:	40a90933          	sub	s2,s2,a0
    1a18:	bff1                	j	19f4 <__sflush_r+0x10a>

00001a1a <_fflush_r>:
    1a1a:	499c                	lw	a5,16(a1)
    1a1c:	cfb9                	beqz	a5,1a7a <_fflush_r+0x60>
    1a1e:	1101                	addi	sp,sp,-32
    1a20:	cc22                	sw	s0,24(sp)
    1a22:	ce06                	sw	ra,28(sp)
    1a24:	842a                	mv	s0,a0
    1a26:	c511                	beqz	a0,1a32 <_fflush_r+0x18>
    1a28:	4d1c                	lw	a5,24(a0)
    1a2a:	e781                	bnez	a5,1a32 <_fflush_r+0x18>
    1a2c:	c62e                	sw	a1,12(sp)
    1a2e:	2219                	jal	1b34 <__sinit>
    1a30:	45b2                	lw	a1,12(sp)
    1a32:	00001797          	auipc	a5,0x1
    1a36:	e1678793          	addi	a5,a5,-490 # 2848 <__sf_fake_stdin>
    1a3a:	00f59b63          	bne	a1,a5,1a50 <_fflush_r+0x36>
    1a3e:	404c                	lw	a1,4(s0)
    1a40:	00c59783          	lh	a5,12(a1)
    1a44:	c795                	beqz	a5,1a70 <_fflush_r+0x56>
    1a46:	8522                	mv	a0,s0
    1a48:	4462                	lw	s0,24(sp)
    1a4a:	40f2                	lw	ra,28(sp)
    1a4c:	6105                	addi	sp,sp,32
    1a4e:	bd71                	j	18ea <__sflush_r>
    1a50:	00001797          	auipc	a5,0x1
    1a54:	e1878793          	addi	a5,a5,-488 # 2868 <__sf_fake_stdout>
    1a58:	00f59463          	bne	a1,a5,1a60 <_fflush_r+0x46>
    1a5c:	440c                	lw	a1,8(s0)
    1a5e:	b7cd                	j	1a40 <_fflush_r+0x26>
    1a60:	00001797          	auipc	a5,0x1
    1a64:	dc878793          	addi	a5,a5,-568 # 2828 <__sf_fake_stderr>
    1a68:	fcf59ce3          	bne	a1,a5,1a40 <_fflush_r+0x26>
    1a6c:	444c                	lw	a1,12(s0)
    1a6e:	bfc9                	j	1a40 <_fflush_r+0x26>
    1a70:	40f2                	lw	ra,28(sp)
    1a72:	4462                	lw	s0,24(sp)
    1a74:	4501                	li	a0,0
    1a76:	6105                	addi	sp,sp,32
    1a78:	8082                	ret
    1a7a:	4501                	li	a0,0
    1a7c:	8082                	ret

00001a7e <std>:
    1a7e:	1141                	addi	sp,sp,-16
    1a80:	c422                	sw	s0,8(sp)
    1a82:	c606                	sw	ra,12(sp)
    1a84:	842a                	mv	s0,a0
    1a86:	a54e                	sh	a1,12(a0)
    1a88:	a572                	sh	a2,14(a0)
    1a8a:	00052023          	sw	zero,0(a0) # 800f000 <_data_lma+0x800c73c>
    1a8e:	00052223          	sw	zero,4(a0)
    1a92:	00052423          	sw	zero,8(a0)
    1a96:	06052223          	sw	zero,100(a0)
    1a9a:	00052823          	sw	zero,16(a0)
    1a9e:	00052a23          	sw	zero,20(a0)
    1aa2:	00052c23          	sw	zero,24(a0)
    1aa6:	4621                	li	a2,8
    1aa8:	4581                	li	a1,0
    1aaa:	05c50513          	addi	a0,a0,92
    1aae:	e92fe0ef          	jal	ra,140 <memset>
    1ab2:	00001797          	auipc	a5,0x1
    1ab6:	b1a78793          	addi	a5,a5,-1254 # 25cc <__sread>
    1aba:	d05c                	sw	a5,36(s0)
    1abc:	00001797          	auipc	a5,0x1
    1ac0:	b3c78793          	addi	a5,a5,-1220 # 25f8 <__swrite>
    1ac4:	d41c                	sw	a5,40(s0)
    1ac6:	00001797          	auipc	a5,0x1
    1aca:	b7a78793          	addi	a5,a5,-1158 # 2640 <__sseek>
    1ace:	d45c                	sw	a5,44(s0)
    1ad0:	00001797          	auipc	a5,0x1
    1ad4:	ba078793          	addi	a5,a5,-1120 # 2670 <__sclose>
    1ad8:	d000                	sw	s0,32(s0)
    1ada:	d81c                	sw	a5,48(s0)
    1adc:	40b2                	lw	ra,12(sp)
    1ade:	4422                	lw	s0,8(sp)
    1ae0:	0141                	addi	sp,sp,16
    1ae2:	8082                	ret

00001ae4 <_cleanup_r>:
    1ae4:	00000597          	auipc	a1,0x0
    1ae8:	f3658593          	addi	a1,a1,-202 # 1a1a <_fflush_r>
    1aec:	aa89                	j	1c3e <_fwalk_reent>

00001aee <__sfmoreglue>:
    1aee:	1141                	addi	sp,sp,-16
    1af0:	c226                	sw	s1,4(sp)
    1af2:	06800613          	li	a2,104
    1af6:	fff58493          	addi	s1,a1,-1
    1afa:	02c484b3          	mul	s1,s1,a2
    1afe:	c04a                	sw	s2,0(sp)
    1b00:	892e                	mv	s2,a1
    1b02:	c422                	sw	s0,8(sp)
    1b04:	c606                	sw	ra,12(sp)
    1b06:	07448593          	addi	a1,s1,116
    1b0a:	263d                	jal	1e38 <_malloc_r>
    1b0c:	842a                	mv	s0,a0
    1b0e:	cd01                	beqz	a0,1b26 <__sfmoreglue+0x38>
    1b10:	00052023          	sw	zero,0(a0)
    1b14:	01252223          	sw	s2,4(a0)
    1b18:	0531                	addi	a0,a0,12
    1b1a:	c408                	sw	a0,8(s0)
    1b1c:	06848613          	addi	a2,s1,104
    1b20:	4581                	li	a1,0
    1b22:	e1efe0ef          	jal	ra,140 <memset>
    1b26:	8522                	mv	a0,s0
    1b28:	40b2                	lw	ra,12(sp)
    1b2a:	4422                	lw	s0,8(sp)
    1b2c:	4492                	lw	s1,4(sp)
    1b2e:	4902                	lw	s2,0(sp)
    1b30:	0141                	addi	sp,sp,16
    1b32:	8082                	ret

00001b34 <__sinit>:
    1b34:	4d1c                	lw	a5,24(a0)
    1b36:	e3bd                	bnez	a5,1b9c <__sinit+0x68>
    1b38:	1141                	addi	sp,sp,-16
    1b3a:	c606                	sw	ra,12(sp)
    1b3c:	c422                	sw	s0,8(sp)
    1b3e:	00000797          	auipc	a5,0x0
    1b42:	fa678793          	addi	a5,a5,-90 # 1ae4 <_cleanup_r>
    1b46:	d51c                	sw	a5,40(a0)
    1b48:	1fffe797          	auipc	a5,0x1fffe
    1b4c:	51c78793          	addi	a5,a5,1308 # 20000064 <_global_impure_ptr>
    1b50:	439c                	lw	a5,0(a5)
    1b52:	04052423          	sw	zero,72(a0)
    1b56:	04052623          	sw	zero,76(a0)
    1b5a:	04052823          	sw	zero,80(a0)
    1b5e:	00f51463          	bne	a0,a5,1b66 <__sinit+0x32>
    1b62:	4785                	li	a5,1
    1b64:	cd1c                	sw	a5,24(a0)
    1b66:	842a                	mv	s0,a0
    1b68:	281d                	jal	1b9e <__sfp>
    1b6a:	c048                	sw	a0,4(s0)
    1b6c:	8522                	mv	a0,s0
    1b6e:	2805                	jal	1b9e <__sfp>
    1b70:	c408                	sw	a0,8(s0)
    1b72:	8522                	mv	a0,s0
    1b74:	202d                	jal	1b9e <__sfp>
    1b76:	c448                	sw	a0,12(s0)
    1b78:	4048                	lw	a0,4(s0)
    1b7a:	4601                	li	a2,0
    1b7c:	4591                	li	a1,4
    1b7e:	3701                	jal	1a7e <std>
    1b80:	4408                	lw	a0,8(s0)
    1b82:	4605                	li	a2,1
    1b84:	45a5                	li	a1,9
    1b86:	3de5                	jal	1a7e <std>
    1b88:	4448                	lw	a0,12(s0)
    1b8a:	4609                	li	a2,2
    1b8c:	45c9                	li	a1,18
    1b8e:	3dc5                	jal	1a7e <std>
    1b90:	4785                	li	a5,1
    1b92:	cc1c                	sw	a5,24(s0)
    1b94:	40b2                	lw	ra,12(sp)
    1b96:	4422                	lw	s0,8(sp)
    1b98:	0141                	addi	sp,sp,16
    1b9a:	8082                	ret
    1b9c:	8082                	ret

00001b9e <__sfp>:
    1b9e:	1141                	addi	sp,sp,-16
    1ba0:	1fffe797          	auipc	a5,0x1fffe
    1ba4:	4c478793          	addi	a5,a5,1220 # 20000064 <_global_impure_ptr>
    1ba8:	c226                	sw	s1,4(sp)
    1baa:	4384                	lw	s1,0(a5)
    1bac:	c04a                	sw	s2,0(sp)
    1bae:	c606                	sw	ra,12(sp)
    1bb0:	4c9c                	lw	a5,24(s1)
    1bb2:	c422                	sw	s0,8(sp)
    1bb4:	892a                	mv	s2,a0
    1bb6:	e399                	bnez	a5,1bbc <__sfp+0x1e>
    1bb8:	8526                	mv	a0,s1
    1bba:	3fad                	jal	1b34 <__sinit>
    1bbc:	04848493          	addi	s1,s1,72
    1bc0:	4480                	lw	s0,8(s1)
    1bc2:	40dc                	lw	a5,4(s1)
    1bc4:	17fd                	addi	a5,a5,-1
    1bc6:	0007d663          	bgez	a5,1bd2 <__sfp+0x34>
    1bca:	409c                	lw	a5,0(s1)
    1bcc:	cfb9                	beqz	a5,1c2a <__sfp+0x8c>
    1bce:	4084                	lw	s1,0(s1)
    1bd0:	bfc5                	j	1bc0 <__sfp+0x22>
    1bd2:	00c41703          	lh	a4,12(s0)
    1bd6:	e739                	bnez	a4,1c24 <__sfp+0x86>
    1bd8:	77c1                	lui	a5,0xffff0
    1bda:	0785                	addi	a5,a5,1
    1bdc:	06042223          	sw	zero,100(s0)
    1be0:	00042023          	sw	zero,0(s0)
    1be4:	00042223          	sw	zero,4(s0)
    1be8:	00042423          	sw	zero,8(s0)
    1bec:	c45c                	sw	a5,12(s0)
    1bee:	00042823          	sw	zero,16(s0)
    1bf2:	00042a23          	sw	zero,20(s0)
    1bf6:	00042c23          	sw	zero,24(s0)
    1bfa:	4621                	li	a2,8
    1bfc:	4581                	li	a1,0
    1bfe:	05c40513          	addi	a0,s0,92
    1c02:	d3efe0ef          	jal	ra,140 <memset>
    1c06:	02042a23          	sw	zero,52(s0)
    1c0a:	02042c23          	sw	zero,56(s0)
    1c0e:	04042423          	sw	zero,72(s0)
    1c12:	04042623          	sw	zero,76(s0)
    1c16:	8522                	mv	a0,s0
    1c18:	40b2                	lw	ra,12(sp)
    1c1a:	4422                	lw	s0,8(sp)
    1c1c:	4492                	lw	s1,4(sp)
    1c1e:	4902                	lw	s2,0(sp)
    1c20:	0141                	addi	sp,sp,16
    1c22:	8082                	ret
    1c24:	06840413          	addi	s0,s0,104
    1c28:	bf71                	j	1bc4 <__sfp+0x26>
    1c2a:	4591                	li	a1,4
    1c2c:	854a                	mv	a0,s2
    1c2e:	35c1                	jal	1aee <__sfmoreglue>
    1c30:	c088                	sw	a0,0(s1)
    1c32:	fd51                	bnez	a0,1bce <__sfp+0x30>
    1c34:	47b1                	li	a5,12
    1c36:	00f92023          	sw	a5,0(s2)
    1c3a:	4401                	li	s0,0
    1c3c:	bfe9                	j	1c16 <__sfp+0x78>

00001c3e <_fwalk_reent>:
    1c3e:	7179                	addi	sp,sp,-48
    1c40:	d422                	sw	s0,40(sp)
    1c42:	d04a                	sw	s2,32(sp)
    1c44:	cc52                	sw	s4,24(sp)
    1c46:	ca56                	sw	s5,20(sp)
    1c48:	c85a                	sw	s6,16(sp)
    1c4a:	c65e                	sw	s7,12(sp)
    1c4c:	d606                	sw	ra,44(sp)
    1c4e:	d226                	sw	s1,36(sp)
    1c50:	ce4e                	sw	s3,28(sp)
    1c52:	8a2a                	mv	s4,a0
    1c54:	8aae                	mv	s5,a1
    1c56:	04850413          	addi	s0,a0,72
    1c5a:	4901                	li	s2,0
    1c5c:	4b05                	li	s6,1
    1c5e:	5bfd                	li	s7,-1
    1c60:	ec09                	bnez	s0,1c7a <_fwalk_reent+0x3c>
    1c62:	50b2                	lw	ra,44(sp)
    1c64:	5422                	lw	s0,40(sp)
    1c66:	854a                	mv	a0,s2
    1c68:	5492                	lw	s1,36(sp)
    1c6a:	5902                	lw	s2,32(sp)
    1c6c:	49f2                	lw	s3,28(sp)
    1c6e:	4a62                	lw	s4,24(sp)
    1c70:	4ad2                	lw	s5,20(sp)
    1c72:	4b42                	lw	s6,16(sp)
    1c74:	4bb2                	lw	s7,12(sp)
    1c76:	6145                	addi	sp,sp,48
    1c78:	8082                	ret
    1c7a:	4404                	lw	s1,8(s0)
    1c7c:	00442983          	lw	s3,4(s0)
    1c80:	19fd                	addi	s3,s3,-1
    1c82:	0009d463          	bgez	s3,1c8a <_fwalk_reent+0x4c>
    1c86:	4000                	lw	s0,0(s0)
    1c88:	bfe1                	j	1c60 <_fwalk_reent+0x22>
    1c8a:	24de                	lhu	a5,12(s1)
    1c8c:	00fb7b63          	bgeu	s6,a5,1ca2 <_fwalk_reent+0x64>
    1c90:	00e49783          	lh	a5,14(s1)
    1c94:	01778763          	beq	a5,s7,1ca2 <_fwalk_reent+0x64>
    1c98:	85a6                	mv	a1,s1
    1c9a:	8552                	mv	a0,s4
    1c9c:	9a82                	jalr	s5
    1c9e:	00a96933          	or	s2,s2,a0
    1ca2:	06848493          	addi	s1,s1,104
    1ca6:	bfe9                	j	1c80 <_fwalk_reent+0x42>

00001ca8 <__swhatbuf_r>:
    1ca8:	7119                	addi	sp,sp,-128
    1caa:	daa6                	sw	s1,116(sp)
    1cac:	84ae                	mv	s1,a1
    1cae:	00e59583          	lh	a1,14(a1)
    1cb2:	dca2                	sw	s0,120(sp)
    1cb4:	de86                	sw	ra,124(sp)
    1cb6:	8432                	mv	s0,a2
    1cb8:	0005db63          	bgez	a1,1cce <__swhatbuf_r+0x26>
    1cbc:	24de                	lhu	a5,12(s1)
    1cbe:	0006a023          	sw	zero,0(a3) # e000e000 <_eusrstack+0xc0009000>
    1cc2:	0807f793          	andi	a5,a5,128
    1cc6:	e785                	bnez	a5,1cee <__swhatbuf_r+0x46>
    1cc8:	40000793          	li	a5,1024
    1ccc:	a01d                	j	1cf2 <__swhatbuf_r+0x4a>
    1cce:	0830                	addi	a2,sp,24
    1cd0:	c636                	sw	a3,12(sp)
    1cd2:	1fb000ef          	jal	ra,26cc <_fstat_r>
    1cd6:	46b2                	lw	a3,12(sp)
    1cd8:	fe0542e3          	bltz	a0,1cbc <__swhatbuf_r+0x14>
    1cdc:	4772                	lw	a4,28(sp)
    1cde:	67bd                	lui	a5,0xf
    1ce0:	8ff9                	and	a5,a5,a4
    1ce2:	7779                	lui	a4,0xffffe
    1ce4:	97ba                	add	a5,a5,a4
    1ce6:	0017b793          	seqz	a5,a5
    1cea:	c29c                	sw	a5,0(a3)
    1cec:	bff1                	j	1cc8 <__swhatbuf_r+0x20>
    1cee:	04000793          	li	a5,64
    1cf2:	c01c                	sw	a5,0(s0)
    1cf4:	50f6                	lw	ra,124(sp)
    1cf6:	5466                	lw	s0,120(sp)
    1cf8:	54d6                	lw	s1,116(sp)
    1cfa:	4501                	li	a0,0
    1cfc:	6109                	addi	sp,sp,128
    1cfe:	8082                	ret

00001d00 <__smakebuf_r>:
    1d00:	25de                	lhu	a5,12(a1)
    1d02:	1101                	addi	sp,sp,-32
    1d04:	cc22                	sw	s0,24(sp)
    1d06:	ce06                	sw	ra,28(sp)
    1d08:	ca26                	sw	s1,20(sp)
    1d0a:	c84a                	sw	s2,16(sp)
    1d0c:	8b89                	andi	a5,a5,2
    1d0e:	842e                	mv	s0,a1
    1d10:	cf89                	beqz	a5,1d2a <__smakebuf_r+0x2a>
    1d12:	04740793          	addi	a5,s0,71
    1d16:	c01c                	sw	a5,0(s0)
    1d18:	c81c                	sw	a5,16(s0)
    1d1a:	4785                	li	a5,1
    1d1c:	c85c                	sw	a5,20(s0)
    1d1e:	40f2                	lw	ra,28(sp)
    1d20:	4462                	lw	s0,24(sp)
    1d22:	44d2                	lw	s1,20(sp)
    1d24:	4942                	lw	s2,16(sp)
    1d26:	6105                	addi	sp,sp,32
    1d28:	8082                	ret
    1d2a:	0074                	addi	a3,sp,12
    1d2c:	0030                	addi	a2,sp,8
    1d2e:	84aa                	mv	s1,a0
    1d30:	3fa5                	jal	1ca8 <__swhatbuf_r>
    1d32:	45a2                	lw	a1,8(sp)
    1d34:	892a                	mv	s2,a0
    1d36:	8526                	mv	a0,s1
    1d38:	2201                	jal	1e38 <_malloc_r>
    1d3a:	e919                	bnez	a0,1d50 <__smakebuf_r+0x50>
    1d3c:	00c41783          	lh	a5,12(s0)
    1d40:	2007f713          	andi	a4,a5,512
    1d44:	ff69                	bnez	a4,1d1e <__smakebuf_r+0x1e>
    1d46:	9bf1                	andi	a5,a5,-4
    1d48:	0027e793          	ori	a5,a5,2
    1d4c:	a45e                	sh	a5,12(s0)
    1d4e:	b7d1                	j	1d12 <__smakebuf_r+0x12>
    1d50:	00000797          	auipc	a5,0x0
    1d54:	d9478793          	addi	a5,a5,-620 # 1ae4 <_cleanup_r>
    1d58:	d49c                	sw	a5,40(s1)
    1d5a:	245e                	lhu	a5,12(s0)
    1d5c:	c008                	sw	a0,0(s0)
    1d5e:	c808                	sw	a0,16(s0)
    1d60:	0807e793          	ori	a5,a5,128
    1d64:	a45e                	sh	a5,12(s0)
    1d66:	47a2                	lw	a5,8(sp)
    1d68:	c85c                	sw	a5,20(s0)
    1d6a:	47b2                	lw	a5,12(sp)
    1d6c:	cf81                	beqz	a5,1d84 <__smakebuf_r+0x84>
    1d6e:	00e41583          	lh	a1,14(s0)
    1d72:	8526                	mv	a0,s1
    1d74:	183000ef          	jal	ra,26f6 <_isatty_r>
    1d78:	c511                	beqz	a0,1d84 <__smakebuf_r+0x84>
    1d7a:	245e                	lhu	a5,12(s0)
    1d7c:	9bf1                	andi	a5,a5,-4
    1d7e:	0017e793          	ori	a5,a5,1
    1d82:	a45e                	sh	a5,12(s0)
    1d84:	245e                	lhu	a5,12(s0)
    1d86:	00f96933          	or	s2,s2,a5
    1d8a:	01241623          	sh	s2,12(s0)
    1d8e:	bf41                	j	1d1e <__smakebuf_r+0x1e>

00001d90 <_free_r>:
    1d90:	c1dd                	beqz	a1,1e36 <_free_r+0xa6>
    1d92:	ffc5a783          	lw	a5,-4(a1)
    1d96:	1141                	addi	sp,sp,-16
    1d98:	c422                	sw	s0,8(sp)
    1d9a:	c606                	sw	ra,12(sp)
    1d9c:	c226                	sw	s1,4(sp)
    1d9e:	ffc58413          	addi	s0,a1,-4
    1da2:	0007d363          	bgez	a5,1da8 <_free_r+0x18>
    1da6:	943e                	add	s0,s0,a5
    1da8:	84aa                	mv	s1,a0
    1daa:	1b9000ef          	jal	ra,2762 <__malloc_lock>
    1dae:	81c18793          	addi	a5,gp,-2020 # 2000007c <__malloc_free_list>
    1db2:	439c                	lw	a5,0(a5)
    1db4:	ef81                	bnez	a5,1dcc <_free_r+0x3c>
    1db6:	00042223          	sw	zero,4(s0)
    1dba:	8081ae23          	sw	s0,-2020(gp) # 2000007c <__malloc_free_list>
    1dbe:	4422                	lw	s0,8(sp)
    1dc0:	40b2                	lw	ra,12(sp)
    1dc2:	8526                	mv	a0,s1
    1dc4:	4492                	lw	s1,4(sp)
    1dc6:	0141                	addi	sp,sp,16
    1dc8:	19d0006f          	j	2764 <__malloc_unlock>
    1dcc:	00f47e63          	bgeu	s0,a5,1de8 <_free_r+0x58>
    1dd0:	4014                	lw	a3,0(s0)
    1dd2:	00d40733          	add	a4,s0,a3
    1dd6:	00e79663          	bne	a5,a4,1de2 <_free_r+0x52>
    1dda:	4398                	lw	a4,0(a5)
    1ddc:	43dc                	lw	a5,4(a5)
    1dde:	9736                	add	a4,a4,a3
    1de0:	c018                	sw	a4,0(s0)
    1de2:	c05c                	sw	a5,4(s0)
    1de4:	bfd9                	j	1dba <_free_r+0x2a>
    1de6:	87ba                	mv	a5,a4
    1de8:	43d8                	lw	a4,4(a5)
    1dea:	c319                	beqz	a4,1df0 <_free_r+0x60>
    1dec:	fee47de3          	bgeu	s0,a4,1de6 <_free_r+0x56>
    1df0:	4394                	lw	a3,0(a5)
    1df2:	00d78633          	add	a2,a5,a3
    1df6:	00861f63          	bne	a2,s0,1e14 <_free_r+0x84>
    1dfa:	4010                	lw	a2,0(s0)
    1dfc:	96b2                	add	a3,a3,a2
    1dfe:	c394                	sw	a3,0(a5)
    1e00:	00d78633          	add	a2,a5,a3
    1e04:	fac71de3          	bne	a4,a2,1dbe <_free_r+0x2e>
    1e08:	4310                	lw	a2,0(a4)
    1e0a:	4358                	lw	a4,4(a4)
    1e0c:	96b2                	add	a3,a3,a2
    1e0e:	c394                	sw	a3,0(a5)
    1e10:	c3d8                	sw	a4,4(a5)
    1e12:	b775                	j	1dbe <_free_r+0x2e>
    1e14:	00c47563          	bgeu	s0,a2,1e1e <_free_r+0x8e>
    1e18:	47b1                	li	a5,12
    1e1a:	c09c                	sw	a5,0(s1)
    1e1c:	b74d                	j	1dbe <_free_r+0x2e>
    1e1e:	4010                	lw	a2,0(s0)
    1e20:	00c406b3          	add	a3,s0,a2
    1e24:	00d71663          	bne	a4,a3,1e30 <_free_r+0xa0>
    1e28:	4314                	lw	a3,0(a4)
    1e2a:	4358                	lw	a4,4(a4)
    1e2c:	96b2                	add	a3,a3,a2
    1e2e:	c014                	sw	a3,0(s0)
    1e30:	c058                	sw	a4,4(s0)
    1e32:	c3c0                	sw	s0,4(a5)
    1e34:	b769                	j	1dbe <_free_r+0x2e>
    1e36:	8082                	ret

00001e38 <_malloc_r>:
    1e38:	1101                	addi	sp,sp,-32
    1e3a:	ca26                	sw	s1,20(sp)
    1e3c:	00358493          	addi	s1,a1,3
    1e40:	98f1                	andi	s1,s1,-4
    1e42:	ce06                	sw	ra,28(sp)
    1e44:	cc22                	sw	s0,24(sp)
    1e46:	c84a                	sw	s2,16(sp)
    1e48:	c64e                	sw	s3,12(sp)
    1e4a:	04a1                	addi	s1,s1,8
    1e4c:	47b1                	li	a5,12
    1e4e:	04f4f363          	bgeu	s1,a5,1e94 <_malloc_r+0x5c>
    1e52:	44b1                	li	s1,12
    1e54:	04b4e263          	bltu	s1,a1,1e98 <_malloc_r+0x60>
    1e58:	892a                	mv	s2,a0
    1e5a:	109000ef          	jal	ra,2762 <__malloc_lock>
    1e5e:	81c18793          	addi	a5,gp,-2020 # 2000007c <__malloc_free_list>
    1e62:	4398                	lw	a4,0(a5)
    1e64:	843a                	mv	s0,a4
    1e66:	e039                	bnez	s0,1eac <_malloc_r+0x74>
    1e68:	82018793          	addi	a5,gp,-2016 # 20000080 <__malloc_sbrk_start>
    1e6c:	439c                	lw	a5,0(a5)
    1e6e:	e791                	bnez	a5,1e7a <_malloc_r+0x42>
    1e70:	4581                	li	a1,0
    1e72:	854a                	mv	a0,s2
    1e74:	2f05                	jal	25a4 <_sbrk_r>
    1e76:	82a1a023          	sw	a0,-2016(gp) # 20000080 <__malloc_sbrk_start>
    1e7a:	85a6                	mv	a1,s1
    1e7c:	854a                	mv	a0,s2
    1e7e:	271d                	jal	25a4 <_sbrk_r>
    1e80:	59fd                	li	s3,-1
    1e82:	07351963          	bne	a0,s3,1ef4 <_malloc_r+0xbc>
    1e86:	47b1                	li	a5,12
    1e88:	00f92023          	sw	a5,0(s2)
    1e8c:	854a                	mv	a0,s2
    1e8e:	0d7000ef          	jal	ra,2764 <__malloc_unlock>
    1e92:	a029                	j	1e9c <_malloc_r+0x64>
    1e94:	fc04d0e3          	bgez	s1,1e54 <_malloc_r+0x1c>
    1e98:	47b1                	li	a5,12
    1e9a:	c11c                	sw	a5,0(a0)
    1e9c:	4501                	li	a0,0
    1e9e:	40f2                	lw	ra,28(sp)
    1ea0:	4462                	lw	s0,24(sp)
    1ea2:	44d2                	lw	s1,20(sp)
    1ea4:	4942                	lw	s2,16(sp)
    1ea6:	49b2                	lw	s3,12(sp)
    1ea8:	6105                	addi	sp,sp,32
    1eaa:	8082                	ret
    1eac:	401c                	lw	a5,0(s0)
    1eae:	8f85                	sub	a5,a5,s1
    1eb0:	0207cf63          	bltz	a5,1eee <_malloc_r+0xb6>
    1eb4:	46ad                	li	a3,11
    1eb6:	00f6f663          	bgeu	a3,a5,1ec2 <_malloc_r+0x8a>
    1eba:	c01c                	sw	a5,0(s0)
    1ebc:	943e                	add	s0,s0,a5
    1ebe:	c004                	sw	s1,0(s0)
    1ec0:	a031                	j	1ecc <_malloc_r+0x94>
    1ec2:	405c                	lw	a5,4(s0)
    1ec4:	02871363          	bne	a4,s0,1eea <_malloc_r+0xb2>
    1ec8:	80f1ae23          	sw	a5,-2020(gp) # 2000007c <__malloc_free_list>
    1ecc:	854a                	mv	a0,s2
    1ece:	097000ef          	jal	ra,2764 <__malloc_unlock>
    1ed2:	00b40513          	addi	a0,s0,11
    1ed6:	00440793          	addi	a5,s0,4
    1eda:	9961                	andi	a0,a0,-8
    1edc:	40f50733          	sub	a4,a0,a5
    1ee0:	df5d                	beqz	a4,1e9e <_malloc_r+0x66>
    1ee2:	943a                	add	s0,s0,a4
    1ee4:	8f89                	sub	a5,a5,a0
    1ee6:	c01c                	sw	a5,0(s0)
    1ee8:	bf5d                	j	1e9e <_malloc_r+0x66>
    1eea:	c35c                	sw	a5,4(a4)
    1eec:	b7c5                	j	1ecc <_malloc_r+0x94>
    1eee:	8722                	mv	a4,s0
    1ef0:	4040                	lw	s0,4(s0)
    1ef2:	bf95                	j	1e66 <_malloc_r+0x2e>
    1ef4:	00350413          	addi	s0,a0,3
    1ef8:	9871                	andi	s0,s0,-4
    1efa:	fc8502e3          	beq	a0,s0,1ebe <_malloc_r+0x86>
    1efe:	40a405b3          	sub	a1,s0,a0
    1f02:	854a                	mv	a0,s2
    1f04:	2545                	jal	25a4 <_sbrk_r>
    1f06:	fb351ce3          	bne	a0,s3,1ebe <_malloc_r+0x86>
    1f0a:	bfb5                	j	1e86 <_malloc_r+0x4e>

00001f0c <__sfputc_r>:
    1f0c:	461c                	lw	a5,8(a2)
    1f0e:	17fd                	addi	a5,a5,-1
    1f10:	c61c                	sw	a5,8(a2)
    1f12:	0007da63          	bgez	a5,1f26 <__sfputc_r+0x1a>
    1f16:	4e18                	lw	a4,24(a2)
    1f18:	00e7c563          	blt	a5,a4,1f22 <__sfputc_r+0x16>
    1f1c:	47a9                	li	a5,10
    1f1e:	00f59463          	bne	a1,a5,1f26 <__sfputc_r+0x1a>
    1f22:	80dff06f          	j	172e <__swbuf_r>
    1f26:	421c                	lw	a5,0(a2)
    1f28:	852e                	mv	a0,a1
    1f2a:	00178713          	addi	a4,a5,1
    1f2e:	c218                	sw	a4,0(a2)
    1f30:	a38c                	sb	a1,0(a5)
    1f32:	8082                	ret

00001f34 <__sfputs_r>:
    1f34:	1101                	addi	sp,sp,-32
    1f36:	cc22                	sw	s0,24(sp)
    1f38:	ca26                	sw	s1,20(sp)
    1f3a:	c84a                	sw	s2,16(sp)
    1f3c:	c64e                	sw	s3,12(sp)
    1f3e:	c452                	sw	s4,8(sp)
    1f40:	ce06                	sw	ra,28(sp)
    1f42:	892a                	mv	s2,a0
    1f44:	89ae                	mv	s3,a1
    1f46:	8432                	mv	s0,a2
    1f48:	00d604b3          	add	s1,a2,a3
    1f4c:	5a7d                	li	s4,-1
    1f4e:	00941463          	bne	s0,s1,1f56 <__sfputs_r+0x22>
    1f52:	4501                	li	a0,0
    1f54:	a801                	j	1f64 <__sfputs_r+0x30>
    1f56:	200c                	lbu	a1,0(s0)
    1f58:	864e                	mv	a2,s3
    1f5a:	854a                	mv	a0,s2
    1f5c:	3f45                	jal	1f0c <__sfputc_r>
    1f5e:	0405                	addi	s0,s0,1
    1f60:	ff4517e3          	bne	a0,s4,1f4e <__sfputs_r+0x1a>
    1f64:	40f2                	lw	ra,28(sp)
    1f66:	4462                	lw	s0,24(sp)
    1f68:	44d2                	lw	s1,20(sp)
    1f6a:	4942                	lw	s2,16(sp)
    1f6c:	49b2                	lw	s3,12(sp)
    1f6e:	4a22                	lw	s4,8(sp)
    1f70:	6105                	addi	sp,sp,32
    1f72:	8082                	ret

00001f74 <_vfiprintf_r>:
    1f74:	7135                	addi	sp,sp,-160
    1f76:	cd22                	sw	s0,152(sp)
    1f78:	cb26                	sw	s1,148(sp)
    1f7a:	c94a                	sw	s2,144(sp)
    1f7c:	c74e                	sw	s3,140(sp)
    1f7e:	cf06                	sw	ra,156(sp)
    1f80:	c552                	sw	s4,136(sp)
    1f82:	c356                	sw	s5,132(sp)
    1f84:	c15a                	sw	s6,128(sp)
    1f86:	dede                	sw	s7,124(sp)
    1f88:	dce2                	sw	s8,120(sp)
    1f8a:	dae6                	sw	s9,116(sp)
    1f8c:	89aa                	mv	s3,a0
    1f8e:	84ae                	mv	s1,a1
    1f90:	8932                	mv	s2,a2
    1f92:	8436                	mv	s0,a3
    1f94:	c501                	beqz	a0,1f9c <_vfiprintf_r+0x28>
    1f96:	4d1c                	lw	a5,24(a0)
    1f98:	e391                	bnez	a5,1f9c <_vfiprintf_r+0x28>
    1f9a:	3e69                	jal	1b34 <__sinit>
    1f9c:	00001797          	auipc	a5,0x1
    1fa0:	8ac78793          	addi	a5,a5,-1876 # 2848 <__sf_fake_stdin>
    1fa4:	0cf49763          	bne	s1,a5,2072 <_vfiprintf_r+0xfe>
    1fa8:	0049a483          	lw	s1,4(s3)
    1fac:	24de                	lhu	a5,12(s1)
    1fae:	8ba1                	andi	a5,a5,8
    1fb0:	c3fd                	beqz	a5,2096 <_vfiprintf_r+0x122>
    1fb2:	489c                	lw	a5,16(s1)
    1fb4:	c3ed                	beqz	a5,2096 <_vfiprintf_r+0x122>
    1fb6:	02000793          	li	a5,32
    1fba:	02f104a3          	sb	a5,41(sp)
    1fbe:	03000793          	li	a5,48
    1fc2:	d202                	sw	zero,36(sp)
    1fc4:	02f10523          	sb	a5,42(sp)
    1fc8:	c622                	sw	s0,12(sp)
    1fca:	02500b93          	li	s7,37
    1fce:	00001a97          	auipc	s5,0x1
    1fd2:	8baa8a93          	addi	s5,s5,-1862 # 2888 <__sf_fake_stdout+0x20>
    1fd6:	4c05                	li	s8,1
    1fd8:	4b29                	li	s6,10
    1fda:	844a                	mv	s0,s2
    1fdc:	201c                	lbu	a5,0(s0)
    1fde:	c399                	beqz	a5,1fe4 <_vfiprintf_r+0x70>
    1fe0:	0d779e63          	bne	a5,s7,20bc <_vfiprintf_r+0x148>
    1fe4:	41240cb3          	sub	s9,s0,s2
    1fe8:	000c8d63          	beqz	s9,2002 <_vfiprintf_r+0x8e>
    1fec:	86e6                	mv	a3,s9
    1fee:	864a                	mv	a2,s2
    1ff0:	85a6                	mv	a1,s1
    1ff2:	854e                	mv	a0,s3
    1ff4:	3781                	jal	1f34 <__sfputs_r>
    1ff6:	57fd                	li	a5,-1
    1ff8:	1cf50f63          	beq	a0,a5,21d6 <_vfiprintf_r+0x262>
    1ffc:	5692                	lw	a3,36(sp)
    1ffe:	96e6                	add	a3,a3,s9
    2000:	d236                	sw	a3,36(sp)
    2002:	201c                	lbu	a5,0(s0)
    2004:	1c078963          	beqz	a5,21d6 <_vfiprintf_r+0x262>
    2008:	57fd                	li	a5,-1
    200a:	00140913          	addi	s2,s0,1
    200e:	c802                	sw	zero,16(sp)
    2010:	ce02                	sw	zero,28(sp)
    2012:	ca3e                	sw	a5,20(sp)
    2014:	cc02                	sw	zero,24(sp)
    2016:	040109a3          	sb	zero,83(sp)
    201a:	d482                	sw	zero,104(sp)
    201c:	00094583          	lbu	a1,0(s2)
    2020:	4615                	li	a2,5
    2022:	8556                	mv	a0,s5
    2024:	271d                	jal	274a <memchr>
    2026:	00190413          	addi	s0,s2,1
    202a:	47c2                	lw	a5,16(sp)
    202c:	e951                	bnez	a0,20c0 <_vfiprintf_r+0x14c>
    202e:	0107f713          	andi	a4,a5,16
    2032:	c709                	beqz	a4,203c <_vfiprintf_r+0xc8>
    2034:	02000713          	li	a4,32
    2038:	04e109a3          	sb	a4,83(sp)
    203c:	0087f713          	andi	a4,a5,8
    2040:	c709                	beqz	a4,204a <_vfiprintf_r+0xd6>
    2042:	02b00713          	li	a4,43
    2046:	04e109a3          	sb	a4,83(sp)
    204a:	00094683          	lbu	a3,0(s2)
    204e:	02a00713          	li	a4,42
    2052:	06e68f63          	beq	a3,a4,20d0 <_vfiprintf_r+0x15c>
    2056:	47f2                	lw	a5,28(sp)
    2058:	844a                	mv	s0,s2
    205a:	4681                	li	a3,0
    205c:	4625                	li	a2,9
    205e:	2018                	lbu	a4,0(s0)
    2060:	00140593          	addi	a1,s0,1
    2064:	fd070713          	addi	a4,a4,-48 # ffffdfd0 <_eusrstack+0xdfff8fd0>
    2068:	0ae67763          	bgeu	a2,a4,2116 <_vfiprintf_r+0x1a2>
    206c:	cab5                	beqz	a3,20e0 <_vfiprintf_r+0x16c>
    206e:	ce3e                	sw	a5,28(sp)
    2070:	a885                	j	20e0 <_vfiprintf_r+0x16c>
    2072:	00000797          	auipc	a5,0x0
    2076:	7f678793          	addi	a5,a5,2038 # 2868 <__sf_fake_stdout>
    207a:	00f49563          	bne	s1,a5,2084 <_vfiprintf_r+0x110>
    207e:	0089a483          	lw	s1,8(s3)
    2082:	b72d                	j	1fac <_vfiprintf_r+0x38>
    2084:	00000797          	auipc	a5,0x0
    2088:	7a478793          	addi	a5,a5,1956 # 2828 <__sf_fake_stderr>
    208c:	f2f490e3          	bne	s1,a5,1fac <_vfiprintf_r+0x38>
    2090:	00c9a483          	lw	s1,12(s3)
    2094:	bf21                	j	1fac <_vfiprintf_r+0x38>
    2096:	85a6                	mv	a1,s1
    2098:	854e                	mv	a0,s3
    209a:	f50ff0ef          	jal	ra,17ea <__swsetup_r>
    209e:	dd01                	beqz	a0,1fb6 <_vfiprintf_r+0x42>
    20a0:	557d                	li	a0,-1
    20a2:	40fa                	lw	ra,156(sp)
    20a4:	446a                	lw	s0,152(sp)
    20a6:	44da                	lw	s1,148(sp)
    20a8:	494a                	lw	s2,144(sp)
    20aa:	49ba                	lw	s3,140(sp)
    20ac:	4a2a                	lw	s4,136(sp)
    20ae:	4a9a                	lw	s5,132(sp)
    20b0:	4b0a                	lw	s6,128(sp)
    20b2:	5bf6                	lw	s7,124(sp)
    20b4:	5c66                	lw	s8,120(sp)
    20b6:	5cd6                	lw	s9,116(sp)
    20b8:	610d                	addi	sp,sp,160
    20ba:	8082                	ret
    20bc:	0405                	addi	s0,s0,1
    20be:	bf39                	j	1fdc <_vfiprintf_r+0x68>
    20c0:	41550533          	sub	a0,a0,s5
    20c4:	00ac1533          	sll	a0,s8,a0
    20c8:	8fc9                	or	a5,a5,a0
    20ca:	c83e                	sw	a5,16(sp)
    20cc:	8922                	mv	s2,s0
    20ce:	b7b9                	j	201c <_vfiprintf_r+0xa8>
    20d0:	4732                	lw	a4,12(sp)
    20d2:	00470693          	addi	a3,a4,4
    20d6:	4318                	lw	a4,0(a4)
    20d8:	c636                	sw	a3,12(sp)
    20da:	02074763          	bltz	a4,2108 <_vfiprintf_r+0x194>
    20de:	ce3a                	sw	a4,28(sp)
    20e0:	2018                	lbu	a4,0(s0)
    20e2:	02e00793          	li	a5,46
    20e6:	04f71d63          	bne	a4,a5,2140 <_vfiprintf_r+0x1cc>
    20ea:	3018                	lbu	a4,1(s0)
    20ec:	02a00793          	li	a5,42
    20f0:	02f71b63          	bne	a4,a5,2126 <_vfiprintf_r+0x1b2>
    20f4:	47b2                	lw	a5,12(sp)
    20f6:	0409                	addi	s0,s0,2
    20f8:	00478713          	addi	a4,a5,4
    20fc:	439c                	lw	a5,0(a5)
    20fe:	c63a                	sw	a4,12(sp)
    2100:	0207c163          	bltz	a5,2122 <_vfiprintf_r+0x1ae>
    2104:	ca3e                	sw	a5,20(sp)
    2106:	a82d                	j	2140 <_vfiprintf_r+0x1cc>
    2108:	40e00733          	neg	a4,a4
    210c:	0027e793          	ori	a5,a5,2
    2110:	ce3a                	sw	a4,28(sp)
    2112:	c83e                	sw	a5,16(sp)
    2114:	b7f1                	j	20e0 <_vfiprintf_r+0x16c>
    2116:	036787b3          	mul	a5,a5,s6
    211a:	4685                	li	a3,1
    211c:	842e                	mv	s0,a1
    211e:	97ba                	add	a5,a5,a4
    2120:	bf3d                	j	205e <_vfiprintf_r+0xea>
    2122:	57fd                	li	a5,-1
    2124:	b7c5                	j	2104 <_vfiprintf_r+0x190>
    2126:	0405                	addi	s0,s0,1
    2128:	ca02                	sw	zero,20(sp)
    212a:	4681                	li	a3,0
    212c:	4781                	li	a5,0
    212e:	4625                	li	a2,9
    2130:	2018                	lbu	a4,0(s0)
    2132:	00140593          	addi	a1,s0,1
    2136:	fd070713          	addi	a4,a4,-48
    213a:	06e67463          	bgeu	a2,a4,21a2 <_vfiprintf_r+0x22e>
    213e:	f2f9                	bnez	a3,2104 <_vfiprintf_r+0x190>
    2140:	200c                	lbu	a1,0(s0)
    2142:	460d                	li	a2,3
    2144:	00000517          	auipc	a0,0x0
    2148:	74c50513          	addi	a0,a0,1868 # 2890 <__sf_fake_stdout+0x28>
    214c:	2bfd                	jal	274a <memchr>
    214e:	cd11                	beqz	a0,216a <_vfiprintf_r+0x1f6>
    2150:	00000797          	auipc	a5,0x0
    2154:	74078793          	addi	a5,a5,1856 # 2890 <__sf_fake_stdout+0x28>
    2158:	8d1d                	sub	a0,a0,a5
    215a:	04000793          	li	a5,64
    215e:	00a797b3          	sll	a5,a5,a0
    2162:	4542                	lw	a0,16(sp)
    2164:	0405                	addi	s0,s0,1
    2166:	8d5d                	or	a0,a0,a5
    2168:	c82a                	sw	a0,16(sp)
    216a:	200c                	lbu	a1,0(s0)
    216c:	4619                	li	a2,6
    216e:	00000517          	auipc	a0,0x0
    2172:	72650513          	addi	a0,a0,1830 # 2894 <__sf_fake_stdout+0x2c>
    2176:	00140913          	addi	s2,s0,1
    217a:	02b10423          	sb	a1,40(sp)
    217e:	23f1                	jal	274a <memchr>
    2180:	c135                	beqz	a0,21e4 <_vfiprintf_r+0x270>
    2182:	ffffe797          	auipc	a5,0xffffe
    2186:	e7e78793          	addi	a5,a5,-386 # 0 <_sinit>
    218a:	e795                	bnez	a5,21b6 <_vfiprintf_r+0x242>
    218c:	4742                	lw	a4,16(sp)
    218e:	47b2                	lw	a5,12(sp)
    2190:	10077713          	andi	a4,a4,256
    2194:	cf09                	beqz	a4,21ae <_vfiprintf_r+0x23a>
    2196:	0791                	addi	a5,a5,4
    2198:	c63e                	sw	a5,12(sp)
    219a:	5792                	lw	a5,36(sp)
    219c:	97d2                	add	a5,a5,s4
    219e:	d23e                	sw	a5,36(sp)
    21a0:	bd2d                	j	1fda <_vfiprintf_r+0x66>
    21a2:	036787b3          	mul	a5,a5,s6
    21a6:	4685                	li	a3,1
    21a8:	842e                	mv	s0,a1
    21aa:	97ba                	add	a5,a5,a4
    21ac:	b751                	j	2130 <_vfiprintf_r+0x1bc>
    21ae:	079d                	addi	a5,a5,7
    21b0:	9be1                	andi	a5,a5,-8
    21b2:	07a1                	addi	a5,a5,8
    21b4:	b7d5                	j	2198 <_vfiprintf_r+0x224>
    21b6:	0078                	addi	a4,sp,12
    21b8:	00000697          	auipc	a3,0x0
    21bc:	d7c68693          	addi	a3,a3,-644 # 1f34 <__sfputs_r>
    21c0:	8626                	mv	a2,s1
    21c2:	080c                	addi	a1,sp,16
    21c4:	854e                	mv	a0,s3
    21c6:	00000097          	auipc	ra,0x0
    21ca:	000000e7          	jalr	zero # 0 <_sinit>
    21ce:	57fd                	li	a5,-1
    21d0:	8a2a                	mv	s4,a0
    21d2:	fcf514e3          	bne	a0,a5,219a <_vfiprintf_r+0x226>
    21d6:	24de                	lhu	a5,12(s1)
    21d8:	0407f793          	andi	a5,a5,64
    21dc:	ec0792e3          	bnez	a5,20a0 <_vfiprintf_r+0x12c>
    21e0:	5512                	lw	a0,36(sp)
    21e2:	b5c1                	j	20a2 <_vfiprintf_r+0x12e>
    21e4:	0078                	addi	a4,sp,12
    21e6:	00000697          	auipc	a3,0x0
    21ea:	d4e68693          	addi	a3,a3,-690 # 1f34 <__sfputs_r>
    21ee:	8626                	mv	a2,s1
    21f0:	080c                	addi	a1,sp,16
    21f2:	854e                	mv	a0,s3
    21f4:	2a01                	jal	2304 <_printf_i>
    21f6:	bfe1                	j	21ce <_vfiprintf_r+0x25a>

000021f8 <_printf_common>:
    21f8:	7179                	addi	sp,sp,-48
    21fa:	ca56                	sw	s5,20(sp)
    21fc:	499c                	lw	a5,16(a1)
    21fe:	8aba                	mv	s5,a4
    2200:	4598                	lw	a4,8(a1)
    2202:	d422                	sw	s0,40(sp)
    2204:	d226                	sw	s1,36(sp)
    2206:	ce4e                	sw	s3,28(sp)
    2208:	cc52                	sw	s4,24(sp)
    220a:	d606                	sw	ra,44(sp)
    220c:	d04a                	sw	s2,32(sp)
    220e:	c85a                	sw	s6,16(sp)
    2210:	c65e                	sw	s7,12(sp)
    2212:	89aa                	mv	s3,a0
    2214:	842e                	mv	s0,a1
    2216:	84b2                	mv	s1,a2
    2218:	8a36                	mv	s4,a3
    221a:	00e7d363          	bge	a5,a4,2220 <_printf_common+0x28>
    221e:	87ba                	mv	a5,a4
    2220:	c09c                	sw	a5,0(s1)
    2222:	04344703          	lbu	a4,67(s0)
    2226:	c319                	beqz	a4,222c <_printf_common+0x34>
    2228:	0785                	addi	a5,a5,1
    222a:	c09c                	sw	a5,0(s1)
    222c:	401c                	lw	a5,0(s0)
    222e:	0207f793          	andi	a5,a5,32
    2232:	c781                	beqz	a5,223a <_printf_common+0x42>
    2234:	409c                	lw	a5,0(s1)
    2236:	0789                	addi	a5,a5,2
    2238:	c09c                	sw	a5,0(s1)
    223a:	00042903          	lw	s2,0(s0)
    223e:	00697913          	andi	s2,s2,6
    2242:	00091a63          	bnez	s2,2256 <_printf_common+0x5e>
    2246:	01940b13          	addi	s6,s0,25
    224a:	5bfd                	li	s7,-1
    224c:	445c                	lw	a5,12(s0)
    224e:	4098                	lw	a4,0(s1)
    2250:	8f99                	sub	a5,a5,a4
    2252:	04f94c63          	blt	s2,a5,22aa <_printf_common+0xb2>
    2256:	401c                	lw	a5,0(s0)
    2258:	04344683          	lbu	a3,67(s0)
    225c:	0207f793          	andi	a5,a5,32
    2260:	00d036b3          	snez	a3,a3
    2264:	eba5                	bnez	a5,22d4 <_printf_common+0xdc>
    2266:	04340613          	addi	a2,s0,67
    226a:	85d2                	mv	a1,s4
    226c:	854e                	mv	a0,s3
    226e:	9a82                	jalr	s5
    2270:	57fd                	li	a5,-1
    2272:	04f50363          	beq	a0,a5,22b8 <_printf_common+0xc0>
    2276:	401c                	lw	a5,0(s0)
    2278:	4611                	li	a2,4
    227a:	4098                	lw	a4,0(s1)
    227c:	8b99                	andi	a5,a5,6
    227e:	4454                	lw	a3,12(s0)
    2280:	4481                	li	s1,0
    2282:	00c79763          	bne	a5,a2,2290 <_printf_common+0x98>
    2286:	40e684b3          	sub	s1,a3,a4
    228a:	0004d363          	bgez	s1,2290 <_printf_common+0x98>
    228e:	4481                	li	s1,0
    2290:	441c                	lw	a5,8(s0)
    2292:	4818                	lw	a4,16(s0)
    2294:	00f75463          	bge	a4,a5,229c <_printf_common+0xa4>
    2298:	8f99                	sub	a5,a5,a4
    229a:	94be                	add	s1,s1,a5
    229c:	4901                	li	s2,0
    229e:	0469                	addi	s0,s0,26
    22a0:	5b7d                	li	s6,-1
    22a2:	05249863          	bne	s1,s2,22f2 <_printf_common+0xfa>
    22a6:	4501                	li	a0,0
    22a8:	a809                	j	22ba <_printf_common+0xc2>
    22aa:	4685                	li	a3,1
    22ac:	865a                	mv	a2,s6
    22ae:	85d2                	mv	a1,s4
    22b0:	854e                	mv	a0,s3
    22b2:	9a82                	jalr	s5
    22b4:	01751e63          	bne	a0,s7,22d0 <_printf_common+0xd8>
    22b8:	557d                	li	a0,-1
    22ba:	50b2                	lw	ra,44(sp)
    22bc:	5422                	lw	s0,40(sp)
    22be:	5492                	lw	s1,36(sp)
    22c0:	5902                	lw	s2,32(sp)
    22c2:	49f2                	lw	s3,28(sp)
    22c4:	4a62                	lw	s4,24(sp)
    22c6:	4ad2                	lw	s5,20(sp)
    22c8:	4b42                	lw	s6,16(sp)
    22ca:	4bb2                	lw	s7,12(sp)
    22cc:	6145                	addi	sp,sp,48
    22ce:	8082                	ret
    22d0:	0905                	addi	s2,s2,1
    22d2:	bfad                	j	224c <_printf_common+0x54>
    22d4:	00d40733          	add	a4,s0,a3
    22d8:	03000613          	li	a2,48
    22dc:	04c701a3          	sb	a2,67(a4)
    22e0:	04544703          	lbu	a4,69(s0)
    22e4:	00168793          	addi	a5,a3,1
    22e8:	97a2                	add	a5,a5,s0
    22ea:	0689                	addi	a3,a3,2
    22ec:	04e781a3          	sb	a4,67(a5)
    22f0:	bf9d                	j	2266 <_printf_common+0x6e>
    22f2:	4685                	li	a3,1
    22f4:	8622                	mv	a2,s0
    22f6:	85d2                	mv	a1,s4
    22f8:	854e                	mv	a0,s3
    22fa:	9a82                	jalr	s5
    22fc:	fb650ee3          	beq	a0,s6,22b8 <_printf_common+0xc0>
    2300:	0905                	addi	s2,s2,1
    2302:	b745                	j	22a2 <_printf_common+0xaa>

00002304 <_printf_i>:
    2304:	7179                	addi	sp,sp,-48
    2306:	d422                	sw	s0,40(sp)
    2308:	d226                	sw	s1,36(sp)
    230a:	d04a                	sw	s2,32(sp)
    230c:	ce4e                	sw	s3,28(sp)
    230e:	d606                	sw	ra,44(sp)
    2310:	cc52                	sw	s4,24(sp)
    2312:	ca56                	sw	s5,20(sp)
    2314:	c85a                	sw	s6,16(sp)
    2316:	89b6                	mv	s3,a3
    2318:	2d94                	lbu	a3,24(a1)
    231a:	06900793          	li	a5,105
    231e:	8932                	mv	s2,a2
    2320:	84aa                	mv	s1,a0
    2322:	842e                	mv	s0,a1
    2324:	04358613          	addi	a2,a1,67
    2328:	02f68d63          	beq	a3,a5,2362 <_printf_i+0x5e>
    232c:	06d7e263          	bltu	a5,a3,2390 <_printf_i+0x8c>
    2330:	05800793          	li	a5,88
    2334:	18f68563          	beq	a3,a5,24be <_printf_i+0x1ba>
    2338:	00d7ed63          	bltu	a5,a3,2352 <_printf_i+0x4e>
    233c:	20068d63          	beqz	a3,2556 <_printf_i+0x252>
    2340:	04300793          	li	a5,67
    2344:	0af68e63          	beq	a3,a5,2400 <_printf_i+0xfc>
    2348:	04240a93          	addi	s5,s0,66
    234c:	04d40123          	sb	a3,66(s0)
    2350:	a0c9                	j	2412 <_printf_i+0x10e>
    2352:	06300793          	li	a5,99
    2356:	0af68563          	beq	a3,a5,2400 <_printf_i+0xfc>
    235a:	06400793          	li	a5,100
    235e:	fef695e3          	bne	a3,a5,2348 <_printf_i+0x44>
    2362:	401c                	lw	a5,0(s0)
    2364:	4308                	lw	a0,0(a4)
    2366:	0807f693          	andi	a3,a5,128
    236a:	00450593          	addi	a1,a0,4
    236e:	c6c5                	beqz	a3,2416 <_printf_i+0x112>
    2370:	411c                	lw	a5,0(a0)
    2372:	c30c                	sw	a1,0(a4)
    2374:	0007d863          	bgez	a5,2384 <_printf_i+0x80>
    2378:	02d00713          	li	a4,45
    237c:	40f007b3          	neg	a5,a5
    2380:	04e401a3          	sb	a4,67(s0)
    2384:	00000697          	auipc	a3,0x0
    2388:	51868693          	addi	a3,a3,1304 # 289c <__sf_fake_stdout+0x34>
    238c:	4729                	li	a4,10
    238e:	a865                	j	2446 <_printf_i+0x142>
    2390:	07000793          	li	a5,112
    2394:	16f68163          	beq	a3,a5,24f6 <_printf_i+0x1f2>
    2398:	02d7e563          	bltu	a5,a3,23c2 <_printf_i+0xbe>
    239c:	06e00793          	li	a5,110
    23a0:	18f68863          	beq	a3,a5,2530 <_printf_i+0x22c>
    23a4:	06f00793          	li	a5,111
    23a8:	faf690e3          	bne	a3,a5,2348 <_printf_i+0x44>
    23ac:	400c                	lw	a1,0(s0)
    23ae:	431c                	lw	a5,0(a4)
    23b0:	0805f813          	andi	a6,a1,128
    23b4:	00478513          	addi	a0,a5,4
    23b8:	06080763          	beqz	a6,2426 <_printf_i+0x122>
    23bc:	c308                	sw	a0,0(a4)
    23be:	439c                	lw	a5,0(a5)
    23c0:	a885                	j	2430 <_printf_i+0x12c>
    23c2:	07500793          	li	a5,117
    23c6:	fef683e3          	beq	a3,a5,23ac <_printf_i+0xa8>
    23ca:	07800793          	li	a5,120
    23ce:	12f68863          	beq	a3,a5,24fe <_printf_i+0x1fa>
    23d2:	07300793          	li	a5,115
    23d6:	f6f699e3          	bne	a3,a5,2348 <_printf_i+0x44>
    23da:	431c                	lw	a5,0(a4)
    23dc:	41d0                	lw	a2,4(a1)
    23de:	4581                	li	a1,0
    23e0:	00478693          	addi	a3,a5,4
    23e4:	c314                	sw	a3,0(a4)
    23e6:	0007aa83          	lw	s5,0(a5)
    23ea:	8556                	mv	a0,s5
    23ec:	2eb9                	jal	274a <memchr>
    23ee:	c501                	beqz	a0,23f6 <_printf_i+0xf2>
    23f0:	41550533          	sub	a0,a0,s5
    23f4:	c048                	sw	a0,4(s0)
    23f6:	405c                	lw	a5,4(s0)
    23f8:	c81c                	sw	a5,16(s0)
    23fa:	040401a3          	sb	zero,67(s0)
    23fe:	a861                	j	2496 <_printf_i+0x192>
    2400:	431c                	lw	a5,0(a4)
    2402:	04240a93          	addi	s5,s0,66
    2406:	00478693          	addi	a3,a5,4
    240a:	439c                	lw	a5,0(a5)
    240c:	c314                	sw	a3,0(a4)
    240e:	04f40123          	sb	a5,66(s0)
    2412:	4785                	li	a5,1
    2414:	b7d5                	j	23f8 <_printf_i+0xf4>
    2416:	0407f693          	andi	a3,a5,64
    241a:	411c                	lw	a5,0(a0)
    241c:	c30c                	sw	a1,0(a4)
    241e:	dab9                	beqz	a3,2374 <_printf_i+0x70>
    2420:	07c2                	slli	a5,a5,0x10
    2422:	87c1                	srai	a5,a5,0x10
    2424:	bf81                	j	2374 <_printf_i+0x70>
    2426:	0405f593          	andi	a1,a1,64
    242a:	c308                	sw	a0,0(a4)
    242c:	d9c9                	beqz	a1,23be <_printf_i+0xba>
    242e:	239e                	lhu	a5,0(a5)
    2430:	06f00713          	li	a4,111
    2434:	0ee68663          	beq	a3,a4,2520 <_printf_i+0x21c>
    2438:	00000697          	auipc	a3,0x0
    243c:	46468693          	addi	a3,a3,1124 # 289c <__sf_fake_stdout+0x34>
    2440:	4729                	li	a4,10
    2442:	040401a3          	sb	zero,67(s0)
    2446:	404c                	lw	a1,4(s0)
    2448:	c40c                	sw	a1,8(s0)
    244a:	0005c563          	bltz	a1,2454 <_printf_i+0x150>
    244e:	4008                	lw	a0,0(s0)
    2450:	996d                	andi	a0,a0,-5
    2452:	c008                	sw	a0,0(s0)
    2454:	e399                	bnez	a5,245a <_printf_i+0x156>
    2456:	8ab2                	mv	s5,a2
    2458:	cd89                	beqz	a1,2472 <_printf_i+0x16e>
    245a:	8ab2                	mv	s5,a2
    245c:	02e7f5b3          	remu	a1,a5,a4
    2460:	1afd                	addi	s5,s5,-1
    2462:	95b6                	add	a1,a1,a3
    2464:	218c                	lbu	a1,0(a1)
    2466:	00ba8023          	sb	a1,0(s5)
    246a:	02e7d5b3          	divu	a1,a5,a4
    246e:	0ae7ff63          	bgeu	a5,a4,252c <_printf_i+0x228>
    2472:	47a1                	li	a5,8
    2474:	00f71e63          	bne	a4,a5,2490 <_printf_i+0x18c>
    2478:	401c                	lw	a5,0(s0)
    247a:	8b85                	andi	a5,a5,1
    247c:	cb91                	beqz	a5,2490 <_printf_i+0x18c>
    247e:	4058                	lw	a4,4(s0)
    2480:	481c                	lw	a5,16(s0)
    2482:	00e7c763          	blt	a5,a4,2490 <_printf_i+0x18c>
    2486:	03000793          	li	a5,48
    248a:	fefa8fa3          	sb	a5,-1(s5)
    248e:	1afd                	addi	s5,s5,-1
    2490:	41560633          	sub	a2,a2,s5
    2494:	c810                	sw	a2,16(s0)
    2496:	874e                	mv	a4,s3
    2498:	86ca                	mv	a3,s2
    249a:	0070                	addi	a2,sp,12
    249c:	85a2                	mv	a1,s0
    249e:	8526                	mv	a0,s1
    24a0:	3ba1                	jal	21f8 <_printf_common>
    24a2:	5a7d                	li	s4,-1
    24a4:	0b451d63          	bne	a0,s4,255e <_printf_i+0x25a>
    24a8:	557d                	li	a0,-1
    24aa:	50b2                	lw	ra,44(sp)
    24ac:	5422                	lw	s0,40(sp)
    24ae:	5492                	lw	s1,36(sp)
    24b0:	5902                	lw	s2,32(sp)
    24b2:	49f2                	lw	s3,28(sp)
    24b4:	4a62                	lw	s4,24(sp)
    24b6:	4ad2                	lw	s5,20(sp)
    24b8:	4b42                	lw	s6,16(sp)
    24ba:	6145                	addi	sp,sp,48
    24bc:	8082                	ret
    24be:	04d582a3          	sb	a3,69(a1)
    24c2:	00000697          	auipc	a3,0x0
    24c6:	3da68693          	addi	a3,a3,986 # 289c <__sf_fake_stdout+0x34>
    24ca:	400c                	lw	a1,0(s0)
    24cc:	4308                	lw	a0,0(a4)
    24ce:	0805f813          	andi	a6,a1,128
    24d2:	411c                	lw	a5,0(a0)
    24d4:	0511                	addi	a0,a0,4
    24d6:	02080d63          	beqz	a6,2510 <_printf_i+0x20c>
    24da:	c308                	sw	a0,0(a4)
    24dc:	0015f713          	andi	a4,a1,1
    24e0:	c701                	beqz	a4,24e8 <_printf_i+0x1e4>
    24e2:	0205e593          	ori	a1,a1,32
    24e6:	c00c                	sw	a1,0(s0)
    24e8:	4741                	li	a4,16
    24ea:	ffa1                	bnez	a5,2442 <_printf_i+0x13e>
    24ec:	400c                	lw	a1,0(s0)
    24ee:	fdf5f593          	andi	a1,a1,-33
    24f2:	c00c                	sw	a1,0(s0)
    24f4:	b7b9                	j	2442 <_printf_i+0x13e>
    24f6:	419c                	lw	a5,0(a1)
    24f8:	0207e793          	ori	a5,a5,32
    24fc:	c19c                	sw	a5,0(a1)
    24fe:	07800793          	li	a5,120
    2502:	04f402a3          	sb	a5,69(s0)
    2506:	00000697          	auipc	a3,0x0
    250a:	3aa68693          	addi	a3,a3,938 # 28b0 <__sf_fake_stdout+0x48>
    250e:	bf75                	j	24ca <_printf_i+0x1c6>
    2510:	0405f813          	andi	a6,a1,64
    2514:	c308                	sw	a0,0(a4)
    2516:	fc0803e3          	beqz	a6,24dc <_printf_i+0x1d8>
    251a:	07c2                	slli	a5,a5,0x10
    251c:	83c1                	srli	a5,a5,0x10
    251e:	bf7d                	j	24dc <_printf_i+0x1d8>
    2520:	00000697          	auipc	a3,0x0
    2524:	37c68693          	addi	a3,a3,892 # 289c <__sf_fake_stdout+0x34>
    2528:	4721                	li	a4,8
    252a:	bf21                	j	2442 <_printf_i+0x13e>
    252c:	87ae                	mv	a5,a1
    252e:	b73d                	j	245c <_printf_i+0x158>
    2530:	4194                	lw	a3,0(a1)
    2532:	431c                	lw	a5,0(a4)
    2534:	49cc                	lw	a1,20(a1)
    2536:	0806f813          	andi	a6,a3,128
    253a:	00478513          	addi	a0,a5,4
    253e:	00080663          	beqz	a6,254a <_printf_i+0x246>
    2542:	c308                	sw	a0,0(a4)
    2544:	439c                	lw	a5,0(a5)
    2546:	c38c                	sw	a1,0(a5)
    2548:	a039                	j	2556 <_printf_i+0x252>
    254a:	c308                	sw	a0,0(a4)
    254c:	0406f693          	andi	a3,a3,64
    2550:	439c                	lw	a5,0(a5)
    2552:	daf5                	beqz	a3,2546 <_printf_i+0x242>
    2554:	a38e                	sh	a1,0(a5)
    2556:	00042823          	sw	zero,16(s0)
    255a:	8ab2                	mv	s5,a2
    255c:	bf2d                	j	2496 <_printf_i+0x192>
    255e:	4814                	lw	a3,16(s0)
    2560:	8656                	mv	a2,s5
    2562:	85ca                	mv	a1,s2
    2564:	8526                	mv	a0,s1
    2566:	9982                	jalr	s3
    2568:	f54500e3          	beq	a0,s4,24a8 <_printf_i+0x1a4>
    256c:	401c                	lw	a5,0(s0)
    256e:	8b89                	andi	a5,a5,2
    2570:	e78d                	bnez	a5,259a <_printf_i+0x296>
    2572:	47b2                	lw	a5,12(sp)
    2574:	4448                	lw	a0,12(s0)
    2576:	f2f55ae3          	bge	a0,a5,24aa <_printf_i+0x1a6>
    257a:	853e                	mv	a0,a5
    257c:	b73d                	j	24aa <_printf_i+0x1a6>
    257e:	4685                	li	a3,1
    2580:	8656                	mv	a2,s5
    2582:	85ca                	mv	a1,s2
    2584:	8526                	mv	a0,s1
    2586:	9982                	jalr	s3
    2588:	f36500e3          	beq	a0,s6,24a8 <_printf_i+0x1a4>
    258c:	0a05                	addi	s4,s4,1
    258e:	445c                	lw	a5,12(s0)
    2590:	4732                	lw	a4,12(sp)
    2592:	8f99                	sub	a5,a5,a4
    2594:	fefa45e3          	blt	s4,a5,257e <_printf_i+0x27a>
    2598:	bfe9                	j	2572 <_printf_i+0x26e>
    259a:	4a01                	li	s4,0
    259c:	01940a93          	addi	s5,s0,25
    25a0:	5b7d                	li	s6,-1
    25a2:	b7f5                	j	258e <_printf_i+0x28a>

000025a4 <_sbrk_r>:
    25a4:	1141                	addi	sp,sp,-16
    25a6:	c422                	sw	s0,8(sp)
    25a8:	842a                	mv	s0,a0
    25aa:	852e                	mv	a0,a1
    25ac:	8801a423          	sw	zero,-1912(gp) # 200000e8 <errno>
    25b0:	c606                	sw	ra,12(sp)
    25b2:	2c31                	jal	27ce <_sbrk>
    25b4:	57fd                	li	a5,-1
    25b6:	00f51763          	bne	a0,a5,25c4 <_sbrk_r+0x20>
    25ba:	88818793          	addi	a5,gp,-1912 # 200000e8 <errno>
    25be:	439c                	lw	a5,0(a5)
    25c0:	c391                	beqz	a5,25c4 <_sbrk_r+0x20>
    25c2:	c01c                	sw	a5,0(s0)
    25c4:	40b2                	lw	ra,12(sp)
    25c6:	4422                	lw	s0,8(sp)
    25c8:	0141                	addi	sp,sp,16
    25ca:	8082                	ret

000025cc <__sread>:
    25cc:	1141                	addi	sp,sp,-16
    25ce:	c422                	sw	s0,8(sp)
    25d0:	842e                	mv	s0,a1
    25d2:	00e59583          	lh	a1,14(a1)
    25d6:	c606                	sw	ra,12(sp)
    25d8:	2279                	jal	2766 <_read_r>
    25da:	00054963          	bltz	a0,25ec <__sread+0x20>
    25de:	487c                	lw	a5,84(s0)
    25e0:	97aa                	add	a5,a5,a0
    25e2:	c87c                	sw	a5,84(s0)
    25e4:	40b2                	lw	ra,12(sp)
    25e6:	4422                	lw	s0,8(sp)
    25e8:	0141                	addi	sp,sp,16
    25ea:	8082                	ret
    25ec:	245e                	lhu	a5,12(s0)
    25ee:	777d                	lui	a4,0xfffff
    25f0:	177d                	addi	a4,a4,-1
    25f2:	8ff9                	and	a5,a5,a4
    25f4:	a45e                	sh	a5,12(s0)
    25f6:	b7fd                	j	25e4 <__sread+0x18>

000025f8 <__swrite>:
    25f8:	25de                	lhu	a5,12(a1)
    25fa:	1101                	addi	sp,sp,-32
    25fc:	cc22                	sw	s0,24(sp)
    25fe:	ca26                	sw	s1,20(sp)
    2600:	c84a                	sw	s2,16(sp)
    2602:	c64e                	sw	s3,12(sp)
    2604:	ce06                	sw	ra,28(sp)
    2606:	1007f793          	andi	a5,a5,256
    260a:	84aa                	mv	s1,a0
    260c:	842e                	mv	s0,a1
    260e:	8932                	mv	s2,a2
    2610:	89b6                	mv	s3,a3
    2612:	c791                	beqz	a5,261e <__swrite+0x26>
    2614:	00e59583          	lh	a1,14(a1)
    2618:	4689                	li	a3,2
    261a:	4601                	li	a2,0
    261c:	2209                	jal	271e <_lseek_r>
    261e:	245e                	lhu	a5,12(s0)
    2620:	777d                	lui	a4,0xfffff
    2622:	177d                	addi	a4,a4,-1
    2624:	8ff9                	and	a5,a5,a4
    2626:	a45e                	sh	a5,12(s0)
    2628:	00e41583          	lh	a1,14(s0)
    262c:	4462                	lw	s0,24(sp)
    262e:	40f2                	lw	ra,28(sp)
    2630:	86ce                	mv	a3,s3
    2632:	864a                	mv	a2,s2
    2634:	49b2                	lw	s3,12(sp)
    2636:	4942                	lw	s2,16(sp)
    2638:	8526                	mv	a0,s1
    263a:	44d2                	lw	s1,20(sp)
    263c:	6105                	addi	sp,sp,32
    263e:	a825                	j	2676 <_write_r>

00002640 <__sseek>:
    2640:	1141                	addi	sp,sp,-16
    2642:	c422                	sw	s0,8(sp)
    2644:	842e                	mv	s0,a1
    2646:	00e59583          	lh	a1,14(a1)
    264a:	c606                	sw	ra,12(sp)
    264c:	28c9                	jal	271e <_lseek_r>
    264e:	57fd                	li	a5,-1
    2650:	245a                	lhu	a4,12(s0)
    2652:	00f51a63          	bne	a0,a5,2666 <__sseek+0x26>
    2656:	77fd                	lui	a5,0xfffff
    2658:	17fd                	addi	a5,a5,-1
    265a:	8ff9                	and	a5,a5,a4
    265c:	a45e                	sh	a5,12(s0)
    265e:	40b2                	lw	ra,12(sp)
    2660:	4422                	lw	s0,8(sp)
    2662:	0141                	addi	sp,sp,16
    2664:	8082                	ret
    2666:	6785                	lui	a5,0x1
    2668:	8fd9                	or	a5,a5,a4
    266a:	a45e                	sh	a5,12(s0)
    266c:	c868                	sw	a0,84(s0)
    266e:	bfc5                	j	265e <__sseek+0x1e>

00002670 <__sclose>:
    2670:	00e59583          	lh	a1,14(a1)
    2674:	a805                	j	26a4 <_close_r>

00002676 <_write_r>:
    2676:	1141                	addi	sp,sp,-16
    2678:	c422                	sw	s0,8(sp)
    267a:	842a                	mv	s0,a0
    267c:	852e                	mv	a0,a1
    267e:	85b2                	mv	a1,a2
    2680:	8636                	mv	a2,a3
    2682:	8801a423          	sw	zero,-1912(gp) # 200000e8 <errno>
    2686:	c606                	sw	ra,12(sp)
    2688:	f0bfe0ef          	jal	ra,1592 <_write>
    268c:	57fd                	li	a5,-1
    268e:	00f51763          	bne	a0,a5,269c <_write_r+0x26>
    2692:	88818793          	addi	a5,gp,-1912 # 200000e8 <errno>
    2696:	439c                	lw	a5,0(a5)
    2698:	c391                	beqz	a5,269c <_write_r+0x26>
    269a:	c01c                	sw	a5,0(s0)
    269c:	40b2                	lw	ra,12(sp)
    269e:	4422                	lw	s0,8(sp)
    26a0:	0141                	addi	sp,sp,16
    26a2:	8082                	ret

000026a4 <_close_r>:
    26a4:	1141                	addi	sp,sp,-16
    26a6:	c422                	sw	s0,8(sp)
    26a8:	842a                	mv	s0,a0
    26aa:	852e                	mv	a0,a1
    26ac:	8801a423          	sw	zero,-1912(gp) # 200000e8 <errno>
    26b0:	c606                	sw	ra,12(sp)
    26b2:	20c5                	jal	2792 <_close>
    26b4:	57fd                	li	a5,-1
    26b6:	00f51763          	bne	a0,a5,26c4 <_close_r+0x20>
    26ba:	88818793          	addi	a5,gp,-1912 # 200000e8 <errno>
    26be:	439c                	lw	a5,0(a5)
    26c0:	c391                	beqz	a5,26c4 <_close_r+0x20>
    26c2:	c01c                	sw	a5,0(s0)
    26c4:	40b2                	lw	ra,12(sp)
    26c6:	4422                	lw	s0,8(sp)
    26c8:	0141                	addi	sp,sp,16
    26ca:	8082                	ret

000026cc <_fstat_r>:
    26cc:	1141                	addi	sp,sp,-16
    26ce:	c422                	sw	s0,8(sp)
    26d0:	842a                	mv	s0,a0
    26d2:	852e                	mv	a0,a1
    26d4:	85b2                	mv	a1,a2
    26d6:	8801a423          	sw	zero,-1912(gp) # 200000e8 <errno>
    26da:	c606                	sw	ra,12(sp)
    26dc:	20c9                	jal	279e <_fstat>
    26de:	57fd                	li	a5,-1
    26e0:	00f51763          	bne	a0,a5,26ee <_fstat_r+0x22>
    26e4:	88818793          	addi	a5,gp,-1912 # 200000e8 <errno>
    26e8:	439c                	lw	a5,0(a5)
    26ea:	c391                	beqz	a5,26ee <_fstat_r+0x22>
    26ec:	c01c                	sw	a5,0(s0)
    26ee:	40b2                	lw	ra,12(sp)
    26f0:	4422                	lw	s0,8(sp)
    26f2:	0141                	addi	sp,sp,16
    26f4:	8082                	ret

000026f6 <_isatty_r>:
    26f6:	1141                	addi	sp,sp,-16
    26f8:	c422                	sw	s0,8(sp)
    26fa:	842a                	mv	s0,a0
    26fc:	852e                	mv	a0,a1
    26fe:	8801a423          	sw	zero,-1912(gp) # 200000e8 <errno>
    2702:	c606                	sw	ra,12(sp)
    2704:	205d                	jal	27aa <_isatty>
    2706:	57fd                	li	a5,-1
    2708:	00f51763          	bne	a0,a5,2716 <_isatty_r+0x20>
    270c:	88818793          	addi	a5,gp,-1912 # 200000e8 <errno>
    2710:	439c                	lw	a5,0(a5)
    2712:	c391                	beqz	a5,2716 <_isatty_r+0x20>
    2714:	c01c                	sw	a5,0(s0)
    2716:	40b2                	lw	ra,12(sp)
    2718:	4422                	lw	s0,8(sp)
    271a:	0141                	addi	sp,sp,16
    271c:	8082                	ret

0000271e <_lseek_r>:
    271e:	1141                	addi	sp,sp,-16
    2720:	c422                	sw	s0,8(sp)
    2722:	842a                	mv	s0,a0
    2724:	852e                	mv	a0,a1
    2726:	85b2                	mv	a1,a2
    2728:	8636                	mv	a2,a3
    272a:	8801a423          	sw	zero,-1912(gp) # 200000e8 <errno>
    272e:	c606                	sw	ra,12(sp)
    2730:	2059                	jal	27b6 <_lseek>
    2732:	57fd                	li	a5,-1
    2734:	00f51763          	bne	a0,a5,2742 <_lseek_r+0x24>
    2738:	88818793          	addi	a5,gp,-1912 # 200000e8 <errno>
    273c:	439c                	lw	a5,0(a5)
    273e:	c391                	beqz	a5,2742 <_lseek_r+0x24>
    2740:	c01c                	sw	a5,0(s0)
    2742:	40b2                	lw	ra,12(sp)
    2744:	4422                	lw	s0,8(sp)
    2746:	0141                	addi	sp,sp,16
    2748:	8082                	ret

0000274a <memchr>:
    274a:	0ff5f593          	andi	a1,a1,255
    274e:	962a                	add	a2,a2,a0
    2750:	00c51463          	bne	a0,a2,2758 <memchr+0xe>
    2754:	4501                	li	a0,0
    2756:	8082                	ret
    2758:	211c                	lbu	a5,0(a0)
    275a:	feb78ee3          	beq	a5,a1,2756 <memchr+0xc>
    275e:	0505                	addi	a0,a0,1
    2760:	bfc5                	j	2750 <memchr+0x6>

00002762 <__malloc_lock>:
    2762:	8082                	ret

00002764 <__malloc_unlock>:
    2764:	8082                	ret

00002766 <_read_r>:
    2766:	1141                	addi	sp,sp,-16
    2768:	c422                	sw	s0,8(sp)
    276a:	842a                	mv	s0,a0
    276c:	852e                	mv	a0,a1
    276e:	85b2                	mv	a1,a2
    2770:	8636                	mv	a2,a3
    2772:	8801a423          	sw	zero,-1912(gp) # 200000e8 <errno>
    2776:	c606                	sw	ra,12(sp)
    2778:	20a9                	jal	27c2 <_read>
    277a:	57fd                	li	a5,-1
    277c:	00f51763          	bne	a0,a5,278a <_read_r+0x24>
    2780:	88818793          	addi	a5,gp,-1912 # 200000e8 <errno>
    2784:	439c                	lw	a5,0(a5)
    2786:	c391                	beqz	a5,278a <_read_r+0x24>
    2788:	c01c                	sw	a5,0(s0)
    278a:	40b2                	lw	ra,12(sp)
    278c:	4422                	lw	s0,8(sp)
    278e:	0141                	addi	sp,sp,16
    2790:	8082                	ret

00002792 <_close>:
    2792:	05800793          	li	a5,88
    2796:	88f1a423          	sw	a5,-1912(gp) # 200000e8 <errno>
    279a:	557d                	li	a0,-1
    279c:	8082                	ret

0000279e <_fstat>:
    279e:	05800793          	li	a5,88
    27a2:	88f1a423          	sw	a5,-1912(gp) # 200000e8 <errno>
    27a6:	557d                	li	a0,-1
    27a8:	8082                	ret

000027aa <_isatty>:
    27aa:	05800793          	li	a5,88
    27ae:	88f1a423          	sw	a5,-1912(gp) # 200000e8 <errno>
    27b2:	4501                	li	a0,0
    27b4:	8082                	ret

000027b6 <_lseek>:
    27b6:	05800793          	li	a5,88
    27ba:	88f1a423          	sw	a5,-1912(gp) # 200000e8 <errno>
    27be:	557d                	li	a0,-1
    27c0:	8082                	ret

000027c2 <_read>:
    27c2:	05800793          	li	a5,88
    27c6:	88f1a423          	sw	a5,-1912(gp) # 200000e8 <errno>
    27ca:	557d                	li	a0,-1
    27cc:	8082                	ret

000027ce <_sbrk>:
    27ce:	82418793          	addi	a5,gp,-2012 # 20000084 <heap_end.1518>
    27d2:	439c                	lw	a5,0(a5)
    27d4:	c791                	beqz	a5,27e0 <_sbrk+0x12>
    27d6:	953e                	add	a0,a0,a5
    27d8:	82a1a223          	sw	a0,-2012(gp) # 20000084 <heap_end.1518>
    27dc:	853e                	mv	a0,a5
    27de:	8082                	ret
    27e0:	88c18793          	addi	a5,gp,-1908 # 200000ec <_ebss>
    27e4:	953e                	add	a0,a0,a5
    27e6:	82a1a223          	sw	a0,-2012(gp) # 20000084 <heap_end.1518>
    27ea:	853e                	mv	a0,a5
    27ec:	8082                	ret
    27ee:	0000                	unimp
    27f0:	6548                	flw	fa0,12(a0)
    27f2:	6c6c                	flw	fa1,92(s0)
    27f4:	6f77206f          	j	756ea <_data_lma+0x72e26>
    27f8:	6c72                	flw	fs8,28(sp)
    27fa:	2164                	lbu	s1,6(a0)
    27fc:	000d                	c.nop	3
    27fe:	0000                	unimp
    2800:	a1d0                	sb	a2,4(a1)
    2802:	87d1                	srai	a5,a5,0x14
    2804:	b5d0                	sb	a2,13(a1)
    2806:	82d1                	srli	a3,a3,0x14
    2808:	87d1                	srai	a5,a5,0x14
    280a:	b8d0                	sb	a2,21(s1)
    280c:	bad0                	sb	a2,21(a3)
    280e:	d120                	sw	s0,96(a0)
    2810:	d080                	sw	s0,32(s1)
    2812:	d0b0                	sw	a2,96(s1)
    2814:	d0b2                	sw	a2,96(sp)
    2816:	d0b5                	beqz	s1,277a <_read_r+0x14>
    2818:	20bd                	jal	2886 <__sf_fake_stdout+0x1e>
    281a:	203d                	jal	2848 <__sf_fake_stdin>
    281c:	6425                	lui	s0,0x9
    281e:	0a0d                	addi	s4,s4,3
    2820:	0000                	unimp
    2822:	0000                	unimp
    2824:	0fd0                	addi	a2,sp,980
    2826:	4049                	c.li	zero,18

00002828 <__sf_fake_stderr>:
	...

00002848 <__sf_fake_stdin>:
	...

00002868 <__sf_fake_stdout>:
	...
    2888:	2d23 2b30 0020 0000 6c68 004c 6665 4567     #-0+ ...hlL.efgE
    2898:	4746 0000 3130 3332 3534 3736 3938 4241     FG..0123456789AB
    28a8:	4443 4645 0000 0000 3130 3332 3534 3736     CDEF....01234567
    28b8:	3938 6261 6463 6665 0000 0000               89abcdef....
