
Blink.elf:     file format elf32-littleriscv
Blink.elf
architecture: riscv:rv32, flags 0x00000112:
EXEC_P, HAS_SYMS, D_PAGED
start address 0x00000000

Program Header:
    LOAD off    0x00001000 vaddr 0x00000000 paddr 0x00000000 align 2**12
         filesz 0x00004798 memsz 0x00004798 flags r-x
    LOAD off    0x00006000 vaddr 0x20000000 paddr 0x00004798 align 2**12
         filesz 0x00000268 memsz 0x000007a0 flags rw-
    LOAD off    0x00006600 vaddr 0x20002600 paddr 0x20002600 align 2**12
         filesz 0x00000000 memsz 0x00000200 flags rw-

Sections:
Idx Name          Size      VMA       LMA       File off  Algn
  0 .init         00000004  00000000  00000000  00001000  2**1
                  CONTENTS, ALLOC, LOAD, READONLY, CODE
  1 .vector       000000fc  00000004  00000004  00001004  2**1
                  CONTENTS, ALLOC, LOAD, READONLY, CODE
  2 .text         00004698  00000100  00000100  00001100  2**2
                  CONTENTS, ALLOC, LOAD, READONLY, CODE
  3 .fini         00000000  00004798  00004798  00006268  2**0
                  CONTENTS, ALLOC, LOAD, CODE
  4 .dalign       00000000  20000000  20000000  00006268  2**0
                  CONTENTS
  5 .dlalign      00000000  00004798  00004798  00006268  2**0
                  CONTENTS
  6 .data         00000268  20000000  00004798  00006000  2**2
                  CONTENTS, ALLOC, LOAD, DATA
  7 .bss          00000538  20000268  00004a00  00006268  2**2
                  ALLOC
  8 .stack        00000200  20002600  20002600  00006600  2**0
                  ALLOC
  9 .debug_info   0000d4ba  00000000  00000000  00006268  2**0
                  CONTENTS, READONLY, DEBUGGING
 10 .debug_abbrev 000026d7  00000000  00000000  00013722  2**0
                  CONTENTS, READONLY, DEBUGGING
 11 .debug_aranges 000008e8  00000000  00000000  00015e00  2**3
                  CONTENTS, READONLY, DEBUGGING
 12 .debug_ranges 00000880  00000000  00000000  000166e8  2**3
                  CONTENTS, READONLY, DEBUGGING
 13 .debug_macro  0000aa92  00000000  00000000  00016f68  2**0
                  CONTENTS, READONLY, DEBUGGING
 14 .debug_line   0000b143  00000000  00000000  000219fa  2**0
                  CONTENTS, READONLY, DEBUGGING
 15 .debug_str    0002eb89  00000000  00000000  0002cb3d  2**0
                  CONTENTS, READONLY, DEBUGGING
 16 .comment      00000033  00000000  00000000  0005b6c6  2**0
                  CONTENTS, READONLY
 17 .debug_frame  00001f1c  00000000  00000000  0005b6fc  2**2
                  CONTENTS, READONLY, DEBUGGING
SYMBOL TABLE:
00000000 l    d  .init	00000000 .init
00000004 l    d  .vector	00000000 .vector
00000100 l    d  .text	00000000 .text
00004798 l    d  .fini	00000000 .fini
20000000 l    d  .dalign	00000000 .dalign
00004798 l    d  .dlalign	00000000 .dlalign
20000000 l    d  .data	00000000 .data
20000268 l    d  .bss	00000000 .bss
20002600 l    d  .stack	00000000 .stack
00000000 l    d  .debug_info	00000000 .debug_info
00000000 l    d  .debug_abbrev	00000000 .debug_abbrev
00000000 l    d  .debug_aranges	00000000 .debug_aranges
00000000 l    d  .debug_ranges	00000000 .debug_ranges
00000000 l    d  .debug_macro	00000000 .debug_macro
00000000 l    d  .debug_line	00000000 .debug_line
00000000 l    d  .debug_str	00000000 .debug_str
00000000 l    d  .comment	00000000 .comment
00000000 l    d  .debug_frame	00000000 .debug_frame
00000000 l    df *ABS*	00000000 ./Startup/startup_ch32v20x_D6.o
00000004 l       .vector	00000000 _vector_base
00000000 l    df *ABS*	00000000 hw_config.c
00000000 l    df *ABS*	00000000 usb_core.c
00000b8e l     F .text	00000140 DataStageOut
00000cce l     F .text	00000154 DataStageIn
00000e22 l     F .text	000001c0 NoData_Setup0
00000fe2 l     F .text	00000370 Data_Setup0
00000000 l    df *ABS*	00000000 usb_desc.c
00000000 l    df *ABS*	00000000 usb_endp.c
00000000 l    df *ABS*	00000000 usb_init.c
00000000 l    df *ABS*	00000000 usb_int.c
00000000 l    df *ABS*	00000000 usb_istr.c
00000000 l    df *ABS*	00000000 usb_mem.c
00000000 l    df *ABS*	00000000 usb_prop.c
00000000 l    df *ABS*	00000000 usb_pwr.c
00000000 l    df *ABS*	00000000 usb_regs.c
00000000 l    df *ABS*	00000000 usb_sil.c
00000000 l    df *ABS*	00000000 ch32v20x_exti.c
00000000 l    df *ABS*	00000000 ch32v20x_misc.c
0000390e l     F .text	00000040 NVIC_SetPriority
00000000 l    df *ABS*	00000000 ch32v20x_rcc.c
00000000 l    df *ABS*	00000000 ch32v203xx_it.c
00000000 l    df *ABS*	00000000 ch32v20x_RVMSIS.c
00003d12 l     F .text	00000040 NVIC_SetPriority
00004044 l     F .text	000000ae RVMSIS_GPIO_MODE_Set
000040f2 l     F .text	000000c0 RVMSIS_GPIO_SPEED_Set
000041b2 l     F .text	00000096 RVMSIS_GPIO_CNF_Set
00004248 l     F .text	00000188 RVMSIS_GPIO_Reg_Set
00000000 l    df *ABS*	00000000 main.c
00000000 l    df *ABS*	00000000 strlen.c
00000000 l    df *ABS*	00000000 usbd_compatibility_hid.c
00003118 g     F .text	000000c2 SetEPRxValid
20000280 g     O .bss	00000002 SaveRState
000036fa  w      .text	00000000 EXTI2_IRQHandler
000035d6 g     F .text	00000044 GetEPRxCount
20000294 g     O .bss	00000002 HID_Idle_Value
200002a8 g     O .bss	00000004 remotewakeupon
000008f4 g     F .text	00000214 Standard_SetEndPointFeature
2000026b g     O .bss	00000001 USBD_Endp2_Busy
200002b4 g     O .bss	00000004 Delay_counter_ms
0000186e g     F .text	0000008e USB_Init
20000a38 g       .data	00000000 __global_pointer$
000036fa  w      .text	00000000 TIM1_CC_IRQHandler
0000361a g     F .text	00000044 ByteSwap
000036fa  w      .text	00000000 HardFault_Handler
000027f2 g     F .text	0000004c USBD_GetReportDescriptor
200002b8 g     O .bss	00000004 Timeout_counter_ms
00003f64 g     F .text	000000be RVMSIS_SysTick_Timer_init
000033c6 g     F .text	0000003a GetEPTxAddr
00003a68 g     F .text	00000056 SysTick_Handler
0000394e g     F .text	000000d4 NVIC_Init
0000283e g     F .text	0000004c USBD_GetHidDescriptor
000036fa  w      .text	00000000 PVD_IRQHandler
00002404 g     F .text	00000048 USBD_Status_In
000036fa  w      .text	00000000 NMI_Handler
000036fa  w      .text	00000000 EXTI3_IRQHandler
0000343c g     F .text	00000046 SetEPTxCount
0000014c g     F .text	00000014 Enter_LowPowerMode
2000023c g     O .data	00000008 Device_Descriptor
20000268 g       .bss	00000000 _sbss
00000200 g       *ABS*	00000000 __stack_size
0000180e g     F .text	00000060 USBD_ENDPx_DataUp
000036fa  w      .text	00000000 USBFS_IRQHandler
20000284 g     O .bss	00000002 Ep0RxBlks
00002f4c g     F .text	000000e4 SetEPTxStatus
200001a4 g     O .data	0000001c pEpInt_OUT
00000b08 g     F .text	00000030 Standard_SetDeviceFeature
00002ad8 g     F .text	00000030 HID_Set_Report
000046dc g     O .text	00000012 USBD_DeviceDescriptor
0000018c g     F .text	00000074 USB_Interrupts_Config
20000000 g     O .data	00000040 StringVendor
00001736 g     F .text	000000c6 EP1_OUT_Callback
000036fa  w      .text	00000000 EXTI0_IRQHandler
000005d4 g     F .text	00000320 Standard_ClearFeature
000036fa  w      .text	00000000 I2C2_EV_IRQHandler
20000290 g     O .bss	00000004 wCNTR
00001352 g     F .text	0000010e Setup0_Process
2000070c g     O .bss	00000040 HID_Report_Buffer
00000004 g       .init	00000000 _einit
000017fc g     F .text	00000012 EP2_IN_Callback
00003a22 g     F .text	00000046 RCC_APB2PeriphClockCmd
000036fa  w      .text	00000000 ADC1_2_IRQHandler
000036fa  w      .text	00000000 Break_Point_Handler
200002ac g     O .bss	00000004 NVIC_Priority_Group
000036fa  w      .text	00000000 SPI1_IRQHandler
20000286 g     O .bss	00000002 wIstr
000036fa  w      .text	00000000 TAMPER_IRQHandler
00002aa8 g     F .text	00000030 HID_Get_Report
20000274 g     O .bss	00000004 pProperty
0000037a g     F .text	00000050 Standard_SetConfiguration
0000471c g     O .text	00000016 USBD_StringSerial
000036fa  w      .text	00000000 Ecall_M_Mode_Handler
0000012c g     F .text	00000020 Set_USBConfig
2000028c g     O .bss	00000004 esof_counter
20000188 g     O .data	0000001c pEpInt_IN
000027a2 g     F .text	00000050 USBD_GetStringDescriptor
000036fa  w      .text	00000000 DMA1_Channel4_IRQHandler
2000026c g     O .bss	00000001 EPindex
200001c0 g     O .data	00000030 Device_Property
0000047e g     F .text	00000156 Standard_GetStatus
00004734 g     O .text	0000004c USBD_HidRepDesc
20000214 g     O .data	00000020 String_Descriptor
0000244c g     F .text	0000000e USBD_Status_Out
0000323e g     F .text	00000076 ClearDTOG_RX
00003c1a g     F .text	000000ae USART3_IRQHandler
0000245a g     F .text	0000009a USBD_init
000038ee g     F .text	00000020 EXTI_ClearITPendingBit
000036fa  w      .text	00000000 RTC_IRQHandler
200007a0 g       .bss	00000000 _ebss
00001682 g     F .text	0000000e NOP_Process
20000080 g     O .data	00000082 USBD_StringVendor
000036fa  w      .text	00000000 DMA1_Channel7_IRQHandler
000036fa  w      .text	00000000 CAN1_RX1_IRQHandler
00000402 g     F .text	0000007c Standard_SetInterface
00003482 g     F .text	00000154 SetEPRxCount
0000288a g     F .text	00000036 USBD_Get_Interface_Setting
0000365e g     F .text	00000034 USB_SIL_Init
00002b74 g     F .text	0000005a PowerOn
000036fa  w      .text	00000000 TIM4_IRQHandler
000018fc g     F .text	00000670 CTR_LP
20000794 g     O .bss	00000009 Gamepad_data
000036fa  w      .text	00000000 I2C1_EV_IRQHandler
20000282 g     O .bss	00000002 SaveTState
000046f0 g     O .text	00000029 USBD_ConfigDescriptor
00002eba g     F .text	00000028 SetBTABLE
2000077c g     O .bss	00000018 husart3
2000024c g     O .data	00000008 Report_Descriptor
000036fa  w      .text	00000000 DMA1_Channel6_IRQHandler
200001f0 g     O .data	00000024 User_Standard_Requests
000036fa  w      .text	00000000 UART4_IRQHandler
2000025c g     O .data	00000001 fSuspendEnabled
00002bce g     F .text	00000162 Suspend
00003cc8 g     F .text	0000004a TIM3_IRQHandler
000036fa  w      .text	00000000 RCC_IRQHandler
00000200 g     F .text	00000142 USB_Port_Set
200002bc g     O .bss	0000001c Device_Info
000043d0 g     F .text	00000160 RVMSIS_GPIO_init
000036fa  w      .text	00000000 TIM1_TRG_COM_IRQHandler
000024f4 g     F .text	0000025a USBD_Reset
00002b3e g     F .text	00000036 HID_Get_Protocol
000036fa  w      .text	00000000 DMA1_Channel1_IRQHandler
20000254 g     O .data	00000008 Hid_Descriptor
00000342 g     F .text	00000038 Standard_GetConfiguration
00000000 g       .init	00000000 _start
000023b0 g     F .text	00000024 USBD_SetConfiguration
2000027c g     O .bss	00000004 pUser_Standard_Requests
00003692 g     F .text	00000068 USB_SIL_Write
000036fa  w      .text	00000000 EXTI15_10_IRQHandler
0000277a g     F .text	00000028 USBD_GetConfigDescriptor
0000377e g     F .text	00000170 EXTI_Init
00002a10 g     F .text	00000098 USBD_NoData_Setup
000015dc g     F .text	000000a6 SetDeviceAddress
000036fa  w      .text	00000000 DMA1_Channel8_IRQHandler
0000232e g     F .text	00000082 PMAToUserBufferCopy
00003376 g     F .text	00000050 SetEPRxAddr
20000288 g     O .bss	00000001 bIntPackSOF
20000000 g       .dalign	00000000 _data_vma
00001460 g     F .text	0000009c In0_Process
00002d30 g     F .text	0000004c Resume_Init
20000298 g     O .bss	00000002 HID_Protocol_Value
000036fa  w      .text	00000000 EXTI9_5_IRQHandler
00004022 g     F .text	00000022 Delay_ms
20000268 g     O .bss	00000002 StatusInfo
20000040 g     O .data	00000040 StringProduct
20000270 g     O .bss	00000004 pInformation
00002ee2 g     F .text	0000006a SetEPType
000023e8 g     F .text	0000000e USBD_SetDeviceFeature
200002a0 g     O .bss	00000008 ResumeS
00002b08 g     F .text	00000036 HID_Get_Idle
000036fa  w      .text	00000000 SPI2_IRQHandler
00004530 g     F .text	00000198 main
00003d52 g     F .text	00000070 RVMSIS_Debug_init
000003ca g     F .text	00000038 Standard_GetInterface
000036fa  w      .text	00000000 DMA1_Channel5_IRQHandler
000036fa  w      .text	00000000 EXTI4_IRQHandler
00000118 g     F .text	00000014 USB_LP_CAN1_RX0_IRQHandler
000036fa  w      .text	00000000 USB_HP_CAN1_TX_IRQHandler
00000000 g       .init	00000000 _sinit
20000764 g     O .bss	00000018 husart2
000036fa  w      .text	00000000 DMA1_Channel3_IRQHandler
000036fa  w      .text	00000000 TIM1_UP_IRQHandler
00000b38 g     F .text	00000056 Standard_GetDescriptorData
000023f6 g     F .text	0000000e USBD_ClearFeature
000014fc g     F .text	0000008e Out0_Process
000036fa  w      .text	00000000 WWDG_IRQHandler
200002d8 g     O .bss	00000014 RingBuffer_Comm
000036fa  w      .text	00000000 Ecall_U_Mode_Handler
00000160 g     F .text	0000002c Leave_LowPowerMode
000036fa  w      .text	00000000 TIM2_IRQHandler
20002800 g       .stack	00000000 _eusrstack
200002b0 g     O .bss	00000004 SysTimer_ms
000036fa  w      .text	00000000 SW_Handler
00001690 g     F .text	000000a6 USB_String_data_init
000036fa  w      .text	00000000 TIM1_BRK_IRQHandler
000036fa  w      .text	00000000 EXTI1_IRQHandler
000023d4 g     F .text	00000014 USBD_SetDeviceAddress
20000260 g     O .data	00000004 USBD_StringLangID
2000026a g     O .bss	00000001 Data_Mul_MaxPacketSize
20000268 g       .data	00000000 _edata
0000158a g     F .text	00000052 Post0_Process
000036fa  w      .text	00000000 RTCAlarm_IRQHandler
00001f6c g     F .text	0000031a USB_Istr
00004798 g       .dlalign	00000000 _data_lma
00003030 g     F .text	000000e8 SetEPRxStatus
00003b6c g     F .text	000000ae USART2_IRQHandler
000032b4 g     F .text	00000074 ClearDTOG_TX
200006ec g     O .bss	00000020 EP
00003dc2 g     F .text	000001a2 RVMSIS_RCC_SystemClock_144MHz
00003328 g     F .text	0000004e SetEPTxAddr
000036fa  w      .text	00000000 I2C2_ER_IRQHandler
000036fa  w      .text	00000000 DMA1_Channel2_IRQHandler
2000074c g     O .bss	00000018 husart1
20000104 g     O .data	00000082 USBD_StringProduct
000036fc  w      .text	00000000 handle_reset
20000244 g     O .data	00000008 Config_Descriptor
000031da g     F .text	00000064 Clear_Status_Out
000036fa  w      .text	00000000 CAN1_SCE_IRQHandler
0000274e g     F .text	0000002c USBD_GetDeviceDescriptor
000036fa  w      .text	00000000 FLASH_IRQHandler
200002ec g     O .bss	00000400 Data_Buffer
000036fa  w      .text	00000000 USBFSWakeUp_IRQHandler
00002286 g     F .text	000000a8 UserToPMABufferCopy
00003abe g     F .text	000000ae USART1_IRQHandler
000046c8 g     F .text	00000012 strlen
000036fa  w      .text	00000000 I2C1_ER_IRQHandler
2000029c g     O .bss	00000004 bDeviceState
00002d7c g     F .text	0000013e Resume
20000238 g     O .data	00000002 Device_Table
000028c0 g     F .text	00000150 USBD_Data_Setup
20000278 g     O .bss	00000002 wInterrupt_Mask
00003400 g     F .text	0000003c GetEPRxAddr
00000100 g     F .text	00000018 USBWakeUp_IRQHandler



Disassembly of section .init:

00000000 <_sinit>:
   0:	6fc0306f          	j	36fc <handle_reset>

Disassembly of section .vector:

00000004 <_vector_base>:
	...
   c:	36fa                	lhu	a4,46(a3)
   e:	0000                	unimp
  10:	36fa                	lhu	a4,46(a3)
  12:	0000                	unimp
  14:	0000                	unimp
  16:	0000                	unimp
  18:	36fa                	lhu	a4,46(a3)
	...
  22:	0000                	unimp
  24:	36fa                	lhu	a4,46(a3)
  26:	0000                	unimp
  28:	36fa                	lhu	a4,46(a3)
	...
  32:	0000                	unimp
  34:	3a68                	lbu	a0,23(a2)
  36:	0000                	unimp
  38:	0000                	unimp
  3a:	0000                	unimp
  3c:	36fa                	lhu	a4,46(a3)
  3e:	0000                	unimp
  40:	0000                	unimp
  42:	0000                	unimp
  44:	36fa                	lhu	a4,46(a3)
  46:	0000                	unimp
  48:	36fa                	lhu	a4,46(a3)
  4a:	0000                	unimp
  4c:	36fa                	lhu	a4,46(a3)
  4e:	0000                	unimp
  50:	36fa                	lhu	a4,46(a3)
  52:	0000                	unimp
  54:	36fa                	lhu	a4,46(a3)
  56:	0000                	unimp
  58:	36fa                	lhu	a4,46(a3)
  5a:	0000                	unimp
  5c:	36fa                	lhu	a4,46(a3)
  5e:	0000                	unimp
  60:	36fa                	lhu	a4,46(a3)
  62:	0000                	unimp
  64:	36fa                	lhu	a4,46(a3)
  66:	0000                	unimp
  68:	36fa                	lhu	a4,46(a3)
  6a:	0000                	unimp
  6c:	36fa                	lhu	a4,46(a3)
  6e:	0000                	unimp
  70:	36fa                	lhu	a4,46(a3)
  72:	0000                	unimp
  74:	36fa                	lhu	a4,46(a3)
  76:	0000                	unimp
  78:	36fa                	lhu	a4,46(a3)
  7a:	0000                	unimp
  7c:	36fa                	lhu	a4,46(a3)
  7e:	0000                	unimp
  80:	36fa                	lhu	a4,46(a3)
  82:	0000                	unimp
  84:	36fa                	lhu	a4,46(a3)
  86:	0000                	unimp
  88:	36fa                	lhu	a4,46(a3)
  8a:	0000                	unimp
  8c:	36fa                	lhu	a4,46(a3)
  8e:	0000                	unimp
  90:	36fa                	lhu	a4,46(a3)
  92:	0000                	unimp
  94:	0118                	addi	a4,sp,128
  96:	0000                	unimp
  98:	36fa                	lhu	a4,46(a3)
  9a:	0000                	unimp
  9c:	36fa                	lhu	a4,46(a3)
  9e:	0000                	unimp
  a0:	36fa                	lhu	a4,46(a3)
  a2:	0000                	unimp
  a4:	36fa                	lhu	a4,46(a3)
  a6:	0000                	unimp
  a8:	36fa                	lhu	a4,46(a3)
  aa:	0000                	unimp
  ac:	36fa                	lhu	a4,46(a3)
  ae:	0000                	unimp
  b0:	36fa                	lhu	a4,46(a3)
  b2:	0000                	unimp
  b4:	36fa                	lhu	a4,46(a3)
  b6:	0000                	unimp
  b8:	3cc8                	lbu	a0,29(s1)
  ba:	0000                	unimp
  bc:	36fa                	lhu	a4,46(a3)
  be:	0000                	unimp
  c0:	36fa                	lhu	a4,46(a3)
  c2:	0000                	unimp
  c4:	36fa                	lhu	a4,46(a3)
  c6:	0000                	unimp
  c8:	36fa                	lhu	a4,46(a3)
  ca:	0000                	unimp
  cc:	36fa                	lhu	a4,46(a3)
  ce:	0000                	unimp
  d0:	36fa                	lhu	a4,46(a3)
  d2:	0000                	unimp
  d4:	36fa                	lhu	a4,46(a3)
  d6:	0000                	unimp
  d8:	3abe                	lhu	a5,50(a3)
  da:	0000                	unimp
  dc:	3b6c                	lbu	a1,23(a4)
  de:	0000                	unimp
  e0:	3c1a                	lhu	a4,56(s0)
  e2:	0000                	unimp
  e4:	36fa                	lhu	a4,46(a3)
  e6:	0000                	unimp
  e8:	36fa                	lhu	a4,46(a3)
  ea:	0000                	unimp
  ec:	0100                	addi	s0,sp,128
  ee:	0000                	unimp
  f0:	36fa                	lhu	a4,46(a3)
  f2:	0000                	unimp
  f4:	36fa                	lhu	a4,46(a3)
  f6:	0000                	unimp
  f8:	36fa                	lhu	a4,46(a3)
  fa:	0000                	unimp
  fc:	36fa                	lhu	a4,46(a3)
	...

Disassembly of section .text:

00000100 <USBWakeUp_IRQHandler>:
     100:	1141                	addi	sp,sp,-16
     102:	c622                	sw	s0,12(sp)
     104:	0800                	addi	s0,sp,16
     106:	00040537          	lui	a0,0x40
     10a:	7e4030ef          	jal	ra,38ee <EXTI_ClearITPendingBit>
     10e:	0001                	nop
     110:	4432                	lw	s0,12(sp)
     112:	0141                	addi	sp,sp,16
     114:	30200073          	mret

00000118 <USB_LP_CAN1_RX0_IRQHandler>:
     118:	1141                	addi	sp,sp,-16
     11a:	c622                	sw	s0,12(sp)
     11c:	0800                	addi	s0,sp,16
     11e:	64f010ef          	jal	ra,1f6c <USB_Istr>
     122:	0001                	nop
     124:	4432                	lw	s0,12(sp)
     126:	0141                	addi	sp,sp,16
     128:	30200073          	mret

0000012c <Set_USBConfig>:
     12c:	1141                	addi	sp,sp,-16
     12e:	c622                	sw	s0,12(sp)
     130:	0800                	addi	s0,sp,16
     132:	400217b7          	lui	a5,0x40021
     136:	4fd4                	lw	a3,28(a5)
     138:	400217b7          	lui	a5,0x40021
     13c:	00800737          	lui	a4,0x800
     140:	8f55                	or	a4,a4,a3
     142:	cfd8                	sw	a4,28(a5)
     144:	0001                	nop
     146:	4432                	lw	s0,12(sp)
     148:	0141                	addi	sp,sp,16
     14a:	8082                	ret

0000014c <Enter_LowPowerMode>:
     14c:	1141                	addi	sp,sp,-16
     14e:	c622                	sw	s0,12(sp)
     150:	0800                	addi	s0,sp,16
     152:	470d                	li	a4,3
     154:	86e1a223          	sw	a4,-1948(gp) # 2000029c <bDeviceState>
     158:	0001                	nop
     15a:	4432                	lw	s0,12(sp)
     15c:	0141                	addi	sp,sp,16
     15e:	8082                	ret

00000160 <Leave_LowPowerMode>:
     160:	1101                	addi	sp,sp,-32
     162:	ce22                	sw	s0,28(sp)
     164:	1000                	addi	s0,sp,32
     166:	88418793          	addi	a5,gp,-1916 # 200002bc <Device_Info>
     16a:	fef42623          	sw	a5,-20(s0)
     16e:	fec42783          	lw	a5,-20(s0)
     172:	27bc                	lbu	a5,10(a5)
     174:	c789                	beqz	a5,17e <Leave_LowPowerMode+0x1e>
     176:	4715                	li	a4,5
     178:	86e1a223          	sw	a4,-1948(gp) # 2000029c <bDeviceState>
     17c:	a021                	j	184 <Leave_LowPowerMode+0x24>
     17e:	4705                	li	a4,1
     180:	86e1a223          	sw	a4,-1948(gp) # 2000029c <bDeviceState>
     184:	0001                	nop
     186:	4472                	lw	s0,28(sp)
     188:	6105                	addi	sp,sp,32
     18a:	8082                	ret

0000018c <USB_Interrupts_Config>:
     18c:	7179                	addi	sp,sp,-48
     18e:	d606                	sw	ra,44(sp)
     190:	d422                	sw	s0,40(sp)
     192:	1800                	addi	s0,sp,48
     194:	00040537          	lui	a0,0x40
     198:	756030ef          	jal	ra,38ee <EXTI_ClearITPendingBit>
     19c:	000407b7          	lui	a5,0x40
     1a0:	fcf42c23          	sw	a5,-40(s0)
     1a4:	fc042e23          	sw	zero,-36(s0)
     1a8:	47c1                	li	a5,16
     1aa:	fef42023          	sw	a5,-32(s0)
     1ae:	4785                	li	a5,1
     1b0:	fef42223          	sw	a5,-28(s0)
     1b4:	fd840793          	addi	a5,s0,-40
     1b8:	853e                	mv	a0,a5
     1ba:	5c4030ef          	jal	ra,377e <EXTI_Init>
     1be:	02400793          	li	a5,36
     1c2:	fef40423          	sb	a5,-24(s0)
     1c6:	4785                	li	a5,1
     1c8:	fef404a3          	sb	a5,-23(s0)
     1cc:	fe040523          	sb	zero,-22(s0)
     1d0:	4785                	li	a5,1
     1d2:	fef42623          	sw	a5,-20(s0)
     1d6:	fe840793          	addi	a5,s0,-24
     1da:	853e                	mv	a0,a5
     1dc:	772030ef          	jal	ra,394e <NVIC_Init>
     1e0:	03a00793          	li	a5,58
     1e4:	fef40423          	sb	a5,-24(s0)
     1e8:	fe0404a3          	sb	zero,-23(s0)
     1ec:	fe840793          	addi	a5,s0,-24
     1f0:	853e                	mv	a0,a5
     1f2:	75c030ef          	jal	ra,394e <NVIC_Init>
     1f6:	0001                	nop
     1f8:	50b2                	lw	ra,44(sp)
     1fa:	5422                	lw	s0,40(sp)
     1fc:	6145                	addi	sp,sp,48
     1fe:	8082                	ret

00000200 <USB_Port_Set>:
     200:	1101                	addi	sp,sp,-32
     202:	ce06                	sw	ra,28(sp)
     204:	cc22                	sw	s0,24(sp)
     206:	1000                	addi	s0,sp,32
     208:	fea42623          	sw	a0,-20(s0)
     20c:	feb42423          	sw	a1,-24(s0)
     210:	4585                	li	a1,1
     212:	4511                	li	a0,4
     214:	00f030ef          	jal	ra,3a22 <RCC_APB2PeriphClockCmd>
     218:	fec42783          	lw	a5,-20(s0)
     21c:	cbad                	beqz	a5,28e <USB_Port_Set+0x8e>
     21e:	400067b7          	lui	a5,0x40006
     222:	c4078793          	addi	a5,a5,-960 # 40005c40 <_eusrstack+0x20003440>
     226:	439c                	lw	a5,0(a5)
     228:	07c2                	slli	a5,a5,0x10
     22a:	83c1                	srli	a5,a5,0x10
     22c:	873e                	mv	a4,a5
     22e:	400067b7          	lui	a5,0x40006
     232:	c4078793          	addi	a5,a5,-960 # 40005c40 <_eusrstack+0x20003440>
     236:	9b75                	andi	a4,a4,-3
     238:	c398                	sw	a4,0(a5)
     23a:	400117b7          	lui	a5,0x40011
     23e:	80078793          	addi	a5,a5,-2048 # 40010800 <_eusrstack+0x2000e000>
     242:	43d4                	lw	a3,4(a5)
     244:	400117b7          	lui	a5,0x40011
     248:	80078793          	addi	a5,a5,-2048 # 40010800 <_eusrstack+0x2000e000>
     24c:	fff01737          	lui	a4,0xfff01
     250:	177d                	addi	a4,a4,-1
     252:	8f75                	and	a4,a4,a3
     254:	c3d8                	sw	a4,4(a5)
     256:	400117b7          	lui	a5,0x40011
     25a:	80078793          	addi	a5,a5,-2048 # 40010800 <_eusrstack+0x2000e000>
     25e:	47d4                	lw	a3,12(a5)
     260:	400117b7          	lui	a5,0x40011
     264:	80078793          	addi	a5,a5,-2048 # 40010800 <_eusrstack+0x2000e000>
     268:	7779                	lui	a4,0xffffe
     26a:	7ff70713          	addi	a4,a4,2047 # ffffe7ff <_eusrstack+0xdfffbfff>
     26e:	8f75                	and	a4,a4,a3
     270:	c7d8                	sw	a4,12(a5)
     272:	400117b7          	lui	a5,0x40011
     276:	80078793          	addi	a5,a5,-2048 # 40010800 <_eusrstack+0x2000e000>
     27a:	43d4                	lw	a3,4(a5)
     27c:	400117b7          	lui	a5,0x40011
     280:	80078793          	addi	a5,a5,-2048 # 40010800 <_eusrstack+0x2000e000>
     284:	00044737          	lui	a4,0x44
     288:	8f55                	or	a4,a4,a3
     28a:	c3d8                	sw	a4,4(a5)
     28c:	a89d                	j	302 <USB_Port_Set+0x102>
     28e:	400067b7          	lui	a5,0x40006
     292:	c4078793          	addi	a5,a5,-960 # 40005c40 <_eusrstack+0x20003440>
     296:	439c                	lw	a5,0(a5)
     298:	07c2                	slli	a5,a5,0x10
     29a:	83c1                	srli	a5,a5,0x10
     29c:	0027e793          	ori	a5,a5,2
     2a0:	01079713          	slli	a4,a5,0x10
     2a4:	8341                	srli	a4,a4,0x10
     2a6:	400067b7          	lui	a5,0x40006
     2aa:	c4078793          	addi	a5,a5,-960 # 40005c40 <_eusrstack+0x20003440>
     2ae:	c398                	sw	a4,0(a5)
     2b0:	400117b7          	lui	a5,0x40011
     2b4:	80078793          	addi	a5,a5,-2048 # 40010800 <_eusrstack+0x2000e000>
     2b8:	43d4                	lw	a3,4(a5)
     2ba:	400117b7          	lui	a5,0x40011
     2be:	80078793          	addi	a5,a5,-2048 # 40010800 <_eusrstack+0x2000e000>
     2c2:	fff01737          	lui	a4,0xfff01
     2c6:	177d                	addi	a4,a4,-1
     2c8:	8f75                	and	a4,a4,a3
     2ca:	c3d8                	sw	a4,4(a5)
     2cc:	400117b7          	lui	a5,0x40011
     2d0:	80078793          	addi	a5,a5,-2048 # 40010800 <_eusrstack+0x2000e000>
     2d4:	47d4                	lw	a3,12(a5)
     2d6:	400117b7          	lui	a5,0x40011
     2da:	80078793          	addi	a5,a5,-2048 # 40010800 <_eusrstack+0x2000e000>
     2de:	7779                	lui	a4,0xffffe
     2e0:	7ff70713          	addi	a4,a4,2047 # ffffe7ff <_eusrstack+0xdfffbfff>
     2e4:	8f75                	and	a4,a4,a3
     2e6:	c7d8                	sw	a4,12(a5)
     2e8:	400117b7          	lui	a5,0x40011
     2ec:	80078793          	addi	a5,a5,-2048 # 40010800 <_eusrstack+0x2000e000>
     2f0:	43d4                	lw	a3,4(a5)
     2f2:	400117b7          	lui	a5,0x40011
     2f6:	80078793          	addi	a5,a5,-2048 # 40010800 <_eusrstack+0x2000e000>
     2fa:	00033737          	lui	a4,0x33
     2fe:	8f55                	or	a4,a4,a3
     300:	c3d8                	sw	a4,4(a5)
     302:	fe842783          	lw	a5,-24(s0)
     306:	cf91                	beqz	a5,322 <USB_Port_Set+0x122>
     308:	400247b7          	lui	a5,0x40024
     30c:	80078793          	addi	a5,a5,-2048 # 40023800 <_eusrstack+0x20021000>
     310:	4398                	lw	a4,0(a5)
     312:	400247b7          	lui	a5,0x40024
     316:	80078793          	addi	a5,a5,-2048 # 40023800 <_eusrstack+0x20021000>
     31a:	00276713          	ori	a4,a4,2
     31e:	c398                	sw	a4,0(a5)
     320:	a821                	j	338 <USB_Port_Set+0x138>
     322:	400247b7          	lui	a5,0x40024
     326:	80078793          	addi	a5,a5,-2048 # 40023800 <_eusrstack+0x20021000>
     32a:	4398                	lw	a4,0(a5)
     32c:	400247b7          	lui	a5,0x40024
     330:	80078793          	addi	a5,a5,-2048 # 40023800 <_eusrstack+0x20021000>
     334:	9b75                	andi	a4,a4,-3
     336:	c398                	sw	a4,0(a5)
     338:	0001                	nop
     33a:	40f2                	lw	ra,28(sp)
     33c:	4462                	lw	s0,24(sp)
     33e:	6105                	addi	sp,sp,32
     340:	8082                	ret

00000342 <Standard_GetConfiguration>:
     342:	1101                	addi	sp,sp,-32
     344:	ce06                	sw	ra,28(sp)
     346:	cc22                	sw	s0,24(sp)
     348:	1000                	addi	s0,sp,32
     34a:	87aa                	mv	a5,a0
     34c:	fef41723          	sh	a5,-18(s0)
     350:	fee45783          	lhu	a5,-18(s0)
     354:	e799                	bnez	a5,362 <Standard_GetConfiguration+0x20>
     356:	8381a783          	lw	a5,-1992(gp) # 20000270 <pInformation>
     35a:	4705                	li	a4,1
     35c:	ab9a                	sh	a4,16(a5)
     35e:	4781                	li	a5,0
     360:	a801                	j	370 <Standard_GetConfiguration+0x2e>
     362:	8441a783          	lw	a5,-1980(gp) # 2000027c <pUser_Standard_Requests>
     366:	439c                	lw	a5,0(a5)
     368:	9782                	jalr	a5
     36a:	8381a783          	lw	a5,-1992(gp) # 20000270 <pInformation>
     36e:	07a9                	addi	a5,a5,10
     370:	853e                	mv	a0,a5
     372:	40f2                	lw	ra,28(sp)
     374:	4462                	lw	s0,24(sp)
     376:	6105                	addi	sp,sp,32
     378:	8082                	ret

0000037a <Standard_SetConfiguration>:
     37a:	1141                	addi	sp,sp,-16
     37c:	c606                	sw	ra,12(sp)
     37e:	c422                	sw	s0,8(sp)
     380:	0800                	addi	s0,sp,16
     382:	8381a783          	lw	a5,-1992(gp) # 20000270 <pInformation>
     386:	33b8                	lbu	a4,3(a5)
     388:	200007b7          	lui	a5,0x20000
     38c:	23878793          	addi	a5,a5,568 # 20000238 <Device_Table>
     390:	339c                	lbu	a5,1(a5)
     392:	02e7e663          	bltu	a5,a4,3be <Standard_SetConfiguration+0x44>
     396:	8381a783          	lw	a5,-1992(gp) # 20000270 <pInformation>
     39a:	23bc                	lbu	a5,2(a5)
     39c:	e38d                	bnez	a5,3be <Standard_SetConfiguration+0x44>
     39e:	8381a783          	lw	a5,-1992(gp) # 20000270 <pInformation>
     3a2:	23de                	lhu	a5,4(a5)
     3a4:	ef89                	bnez	a5,3be <Standard_SetConfiguration+0x44>
     3a6:	8381a703          	lw	a4,-1992(gp) # 20000270 <pInformation>
     3aa:	8381a783          	lw	a5,-1992(gp) # 20000270 <pInformation>
     3ae:	3338                	lbu	a4,3(a4)
     3b0:	a7b8                	sb	a4,10(a5)
     3b2:	8441a783          	lw	a5,-1980(gp) # 2000027c <pUser_Standard_Requests>
     3b6:	43dc                	lw	a5,4(a5)
     3b8:	9782                	jalr	a5
     3ba:	4781                	li	a5,0
     3bc:	a011                	j	3c0 <Standard_SetConfiguration+0x46>
     3be:	4789                	li	a5,2
     3c0:	853e                	mv	a0,a5
     3c2:	40b2                	lw	ra,12(sp)
     3c4:	4422                	lw	s0,8(sp)
     3c6:	0141                	addi	sp,sp,16
     3c8:	8082                	ret

000003ca <Standard_GetInterface>:
     3ca:	1101                	addi	sp,sp,-32
     3cc:	ce06                	sw	ra,28(sp)
     3ce:	cc22                	sw	s0,24(sp)
     3d0:	1000                	addi	s0,sp,32
     3d2:	87aa                	mv	a5,a0
     3d4:	fef41723          	sh	a5,-18(s0)
     3d8:	fee45783          	lhu	a5,-18(s0)
     3dc:	e799                	bnez	a5,3ea <Standard_GetInterface+0x20>
     3de:	8381a783          	lw	a5,-1992(gp) # 20000270 <pInformation>
     3e2:	4705                	li	a4,1
     3e4:	ab9a                	sh	a4,16(a5)
     3e6:	4781                	li	a5,0
     3e8:	a801                	j	3f8 <Standard_GetInterface+0x2e>
     3ea:	8441a783          	lw	a5,-1980(gp) # 2000027c <pUser_Standard_Requests>
     3ee:	479c                	lw	a5,8(a5)
     3f0:	9782                	jalr	a5
     3f2:	8381a783          	lw	a5,-1992(gp) # 20000270 <pInformation>
     3f6:	07b1                	addi	a5,a5,12
     3f8:	853e                	mv	a0,a5
     3fa:	40f2                	lw	ra,28(sp)
     3fc:	4462                	lw	s0,24(sp)
     3fe:	6105                	addi	sp,sp,32
     400:	8082                	ret

00000402 <Standard_SetInterface>:
     402:	1101                	addi	sp,sp,-32
     404:	ce06                	sw	ra,28(sp)
     406:	cc22                	sw	s0,24(sp)
     408:	1000                	addi	s0,sp,32
     40a:	83c1a783          	lw	a5,-1988(gp) # 20000274 <pProperty>
     40e:	4f94                	lw	a3,24(a5)
     410:	8381a783          	lw	a5,-1992(gp) # 20000270 <pInformation>
     414:	33d8                	lbu	a4,5(a5)
     416:	8381a783          	lw	a5,-1992(gp) # 20000270 <pInformation>
     41a:	33bc                	lbu	a5,3(a5)
     41c:	85be                	mv	a1,a5
     41e:	853a                	mv	a0,a4
     420:	9682                	jalr	a3
     422:	fea42623          	sw	a0,-20(s0)
     426:	8381a783          	lw	a5,-1992(gp) # 20000270 <pInformation>
     42a:	27bc                	lbu	a5,10(a5)
     42c:	c3b9                	beqz	a5,472 <Standard_SetInterface+0x70>
     42e:	fec42783          	lw	a5,-20(s0)
     432:	eb89                	bnez	a5,444 <Standard_SetInterface+0x42>
     434:	8381a783          	lw	a5,-1992(gp) # 20000270 <pInformation>
     438:	23dc                	lbu	a5,4(a5)
     43a:	e789                	bnez	a5,444 <Standard_SetInterface+0x42>
     43c:	8381a783          	lw	a5,-1992(gp) # 20000270 <pInformation>
     440:	23bc                	lbu	a5,2(a5)
     442:	c399                	beqz	a5,448 <Standard_SetInterface+0x46>
     444:	4789                	li	a5,2
     446:	a03d                	j	474 <Standard_SetInterface+0x72>
     448:	fec42783          	lw	a5,-20(s0)
     44c:	e39d                	bnez	a5,472 <Standard_SetInterface+0x70>
     44e:	8441a783          	lw	a5,-1980(gp) # 2000027c <pUser_Standard_Requests>
     452:	47dc                	lw	a5,12(a5)
     454:	9782                	jalr	a5
     456:	8381a703          	lw	a4,-1992(gp) # 20000270 <pInformation>
     45a:	8381a783          	lw	a5,-1992(gp) # 20000270 <pInformation>
     45e:	3358                	lbu	a4,5(a4)
     460:	b7b8                	sb	a4,11(a5)
     462:	8381a703          	lw	a4,-1992(gp) # 20000270 <pInformation>
     466:	8381a783          	lw	a5,-1992(gp) # 20000270 <pInformation>
     46a:	3338                	lbu	a4,3(a4)
     46c:	a7d8                	sb	a4,12(a5)
     46e:	4781                	li	a5,0
     470:	a011                	j	474 <Standard_SetInterface+0x72>
     472:	4789                	li	a5,2
     474:	853e                	mv	a0,a5
     476:	40f2                	lw	ra,28(sp)
     478:	4462                	lw	s0,24(sp)
     47a:	6105                	addi	sp,sp,32
     47c:	8082                	ret

0000047e <Standard_GetStatus>:
     47e:	7179                	addi	sp,sp,-48
     480:	d606                	sw	ra,44(sp)
     482:	d422                	sw	s0,40(sp)
     484:	1800                	addi	s0,sp,48
     486:	87aa                	mv	a5,a0
     488:	fcf41f23          	sh	a5,-34(s0)
     48c:	fde45783          	lhu	a5,-34(s0)
     490:	e799                	bnez	a5,49e <Standard_GetStatus+0x20>
     492:	8381a783          	lw	a5,-1992(gp) # 20000270 <pInformation>
     496:	4709                	li	a4,2
     498:	ab9a                	sh	a4,16(a5)
     49a:	4781                	li	a5,0
     49c:	a23d                	j	5ca <Standard_GetStatus+0x14c>
     49e:	82019823          	sh	zero,-2000(gp) # 20000268 <_edata>
     4a2:	8381a783          	lw	a5,-1992(gp) # 20000270 <pInformation>
     4a6:	239c                	lbu	a5,0(a5)
     4a8:	07f7f793          	andi	a5,a5,127
     4ac:	e3ad                	bnez	a5,50e <Standard_GetStatus+0x90>
     4ae:	8381a783          	lw	a5,-1992(gp) # 20000270 <pInformation>
     4b2:	379c                	lbu	a5,9(a5)
     4b4:	fef407a3          	sb	a5,-17(s0)
     4b8:	fef44783          	lbu	a5,-17(s0)
     4bc:	0207f793          	andi	a5,a5,32
     4c0:	cb91                	beqz	a5,4d4 <Standard_GetStatus+0x56>
     4c2:	8301c783          	lbu	a5,-2000(gp) # 20000268 <_edata>
     4c6:	0027e793          	ori	a5,a5,2
     4ca:	0ff7f713          	andi	a4,a5,255
     4ce:	82e18823          	sb	a4,-2000(gp) # 20000268 <_edata>
     4d2:	a801                	j	4e2 <Standard_GetStatus+0x64>
     4d4:	8301c783          	lbu	a5,-2000(gp) # 20000268 <_edata>
     4d8:	9bf5                	andi	a5,a5,-3
     4da:	0ff7f713          	andi	a4,a5,255
     4de:	82e18823          	sb	a4,-2000(gp) # 20000268 <_edata>
     4e2:	fef44783          	lbu	a5,-17(s0)
     4e6:	0407f793          	andi	a5,a5,64
     4ea:	cb91                	beqz	a5,4fe <Standard_GetStatus+0x80>
     4ec:	8301c783          	lbu	a5,-2000(gp) # 20000268 <_edata>
     4f0:	0017e793          	ori	a5,a5,1
     4f4:	0ff7f713          	andi	a4,a5,255
     4f8:	82e18823          	sb	a4,-2000(gp) # 20000268 <_edata>
     4fc:	a0c9                	j	5be <Standard_GetStatus+0x140>
     4fe:	8301c783          	lbu	a5,-2000(gp) # 20000268 <_edata>
     502:	9bf9                	andi	a5,a5,-2
     504:	0ff7f713          	andi	a4,a5,255
     508:	82e18823          	sb	a4,-2000(gp) # 20000268 <_edata>
     50c:	a84d                	j	5be <Standard_GetStatus+0x140>
     50e:	8381a783          	lw	a5,-1992(gp) # 20000270 <pInformation>
     512:	239c                	lbu	a5,0(a5)
     514:	07f7f713          	andi	a4,a5,127
     518:	4785                	li	a5,1
     51a:	00f71563          	bne	a4,a5,524 <Standard_GetStatus+0xa6>
     51e:	83018793          	addi	a5,gp,-2000 # 20000268 <_edata>
     522:	a065                	j	5ca <Standard_GetStatus+0x14c>
     524:	8381a783          	lw	a5,-1992(gp) # 20000270 <pInformation>
     528:	239c                	lbu	a5,0(a5)
     52a:	07f7f713          	andi	a4,a5,127
     52e:	4789                	li	a5,2
     530:	08f71563          	bne	a4,a5,5ba <Standard_GetStatus+0x13c>
     534:	8381a783          	lw	a5,-1992(gp) # 20000270 <pInformation>
     538:	33dc                	lbu	a5,5(a5)
     53a:	fef40723          	sb	a5,-18(s0)
     53e:	fee44783          	lbu	a5,-18(s0)
     542:	8bbd                	andi	a5,a5,15
     544:	fef406a3          	sb	a5,-19(s0)
     548:	fee40783          	lb	a5,-18(s0)
     54c:	0207dc63          	bgez	a5,584 <Standard_GetStatus+0x106>
     550:	fed44783          	lbu	a5,-19(s0)
     554:	00279713          	slli	a4,a5,0x2
     558:	400067b7          	lui	a5,0x40006
     55c:	c0078793          	addi	a5,a5,-1024 # 40005c00 <_eusrstack+0x20003400>
     560:	97ba                	add	a5,a5,a4
     562:	439c                	lw	a5,0(a5)
     564:	07c2                	slli	a5,a5,0x10
     566:	83c1                	srli	a5,a5,0x10
     568:	0307f713          	andi	a4,a5,48
     56c:	47c1                	li	a5,16
     56e:	04f71863          	bne	a4,a5,5be <Standard_GetStatus+0x140>
     572:	8301c783          	lbu	a5,-2000(gp) # 20000268 <_edata>
     576:	0017e793          	ori	a5,a5,1
     57a:	0ff7f713          	andi	a4,a5,255
     57e:	82e18823          	sb	a4,-2000(gp) # 20000268 <_edata>
     582:	a835                	j	5be <Standard_GetStatus+0x140>
     584:	fed44783          	lbu	a5,-19(s0)
     588:	00279713          	slli	a4,a5,0x2
     58c:	400067b7          	lui	a5,0x40006
     590:	c0078793          	addi	a5,a5,-1024 # 40005c00 <_eusrstack+0x20003400>
     594:	97ba                	add	a5,a5,a4
     596:	439c                	lw	a5,0(a5)
     598:	07c2                	slli	a5,a5,0x10
     59a:	83c1                	srli	a5,a5,0x10
     59c:	873e                	mv	a4,a5
     59e:	678d                	lui	a5,0x3
     5a0:	8f7d                	and	a4,a4,a5
     5a2:	6785                	lui	a5,0x1
     5a4:	00f71d63          	bne	a4,a5,5be <Standard_GetStatus+0x140>
     5a8:	8301c783          	lbu	a5,-2000(gp) # 20000268 <_edata>
     5ac:	0017e793          	ori	a5,a5,1
     5b0:	0ff7f713          	andi	a4,a5,255
     5b4:	82e18823          	sb	a4,-2000(gp) # 20000268 <_edata>
     5b8:	a019                	j	5be <Standard_GetStatus+0x140>
     5ba:	4781                	li	a5,0
     5bc:	a039                	j	5ca <Standard_GetStatus+0x14c>
     5be:	8441a783          	lw	a5,-1980(gp) # 2000027c <pUser_Standard_Requests>
     5c2:	4b9c                	lw	a5,16(a5)
     5c4:	9782                	jalr	a5
     5c6:	83018793          	addi	a5,gp,-2000 # 20000268 <_edata>
     5ca:	853e                	mv	a0,a5
     5cc:	50b2                	lw	ra,44(sp)
     5ce:	5422                	lw	s0,40(sp)
     5d0:	6145                	addi	sp,sp,48
     5d2:	8082                	ret

000005d4 <Standard_ClearFeature>:
     5d4:	7179                	addi	sp,sp,-48
     5d6:	d606                	sw	ra,44(sp)
     5d8:	d422                	sw	s0,40(sp)
     5da:	1800                	addi	s0,sp,48
     5dc:	8381a783          	lw	a5,-1992(gp) # 20000270 <pInformation>
     5e0:	239c                	lbu	a5,0(a5)
     5e2:	07f7f793          	andi	a5,a5,127
     5e6:	fef42423          	sw	a5,-24(s0)
     5ea:	fe842783          	lw	a5,-24(s0)
     5ee:	ef89                	bnez	a5,608 <Standard_ClearFeature+0x34>
     5f0:	8381a783          	lw	a5,-1992(gp) # 20000270 <pInformation>
     5f4:	3798                	lbu	a4,9(a5)
     5f6:	8381a783          	lw	a5,-1992(gp) # 20000270 <pInformation>
     5fa:	fdf77713          	andi	a4,a4,-33
     5fe:	0ff77713          	andi	a4,a4,255
     602:	b798                	sb	a4,9(a5)
     604:	4781                	li	a5,0
     606:	a4d5                	j	8ea <Standard_ClearFeature+0x316>
     608:	fe842703          	lw	a4,-24(s0)
     60c:	4789                	li	a5,2
     60e:	2cf71d63          	bne	a4,a5,8e8 <Standard_ClearFeature+0x314>
     612:	8381a783          	lw	a5,-1992(gp) # 20000270 <pInformation>
     616:	23be                	lhu	a5,2(a5)
     618:	e789                	bnez	a5,622 <Standard_ClearFeature+0x4e>
     61a:	8381a783          	lw	a5,-1992(gp) # 20000270 <pInformation>
     61e:	23dc                	lbu	a5,4(a5)
     620:	c399                	beqz	a5,626 <Standard_ClearFeature+0x52>
     622:	4789                	li	a5,2
     624:	a4d9                	j	8ea <Standard_ClearFeature+0x316>
     626:	200007b7          	lui	a5,0x20000
     62a:	23878793          	addi	a5,a5,568 # 20000238 <Device_Table>
     62e:	fef42223          	sw	a5,-28(s0)
     632:	8381a783          	lw	a5,-1992(gp) # 20000270 <pInformation>
     636:	33dc                	lbu	a5,5(a5)
     638:	fef42023          	sw	a5,-32(s0)
     63c:	fe042783          	lw	a5,-32(s0)
     640:	f7f7f793          	andi	a5,a5,-129
     644:	fcf42e23          	sw	a5,-36(s0)
     648:	fdc42783          	lw	a5,-36(s0)
     64c:	fcf42c23          	sw	a5,-40(s0)
     650:	8381a783          	lw	a5,-1992(gp) # 20000270 <pInformation>
     654:	33dc                	lbu	a5,5(a5)
     656:	07e2                	slli	a5,a5,0x18
     658:	87e1                	srai	a5,a5,0x18
     65a:	0207d363          	bgez	a5,680 <Standard_ClearFeature+0xac>
     65e:	fd842783          	lw	a5,-40(s0)
     662:	00279713          	slli	a4,a5,0x2
     666:	400067b7          	lui	a5,0x40006
     66a:	c0078793          	addi	a5,a5,-1024 # 40005c00 <_eusrstack+0x20003400>
     66e:	97ba                	add	a5,a5,a4
     670:	439c                	lw	a5,0(a5)
     672:	07c2                	slli	a5,a5,0x10
     674:	83c1                	srli	a5,a5,0x10
     676:	0307f793          	andi	a5,a5,48
     67a:	fef42623          	sw	a5,-20(s0)
     67e:	a015                	j	6a2 <Standard_ClearFeature+0xce>
     680:	fd842783          	lw	a5,-40(s0)
     684:	00279713          	slli	a4,a5,0x2
     688:	400067b7          	lui	a5,0x40006
     68c:	c0078793          	addi	a5,a5,-1024 # 40005c00 <_eusrstack+0x20003400>
     690:	97ba                	add	a5,a5,a4
     692:	439c                	lw	a5,0(a5)
     694:	07c2                	slli	a5,a5,0x10
     696:	83c1                	srli	a5,a5,0x10
     698:	873e                	mv	a4,a5
     69a:	678d                	lui	a5,0x3
     69c:	8ff9                	and	a5,a5,a4
     69e:	fef42623          	sw	a5,-20(s0)
     6a2:	fe442783          	lw	a5,-28(s0)
     6a6:	239c                	lbu	a5,0(a5)
     6a8:	873e                	mv	a4,a5
     6aa:	fdc42783          	lw	a5,-36(s0)
     6ae:	00e7f963          	bgeu	a5,a4,6c0 <Standard_ClearFeature+0xec>
     6b2:	fec42783          	lw	a5,-20(s0)
     6b6:	c789                	beqz	a5,6c0 <Standard_ClearFeature+0xec>
     6b8:	8381a783          	lw	a5,-1992(gp) # 20000270 <pInformation>
     6bc:	27bc                	lbu	a5,10(a5)
     6be:	e399                	bnez	a5,6c4 <Standard_ClearFeature+0xf0>
     6c0:	4789                	li	a5,2
     6c2:	a425                	j	8ea <Standard_ClearFeature+0x316>
     6c4:	fe042783          	lw	a5,-32(s0)
     6c8:	0807f793          	andi	a5,a5,128
     6cc:	c3b9                	beqz	a5,712 <Standard_ClearFeature+0x13e>
     6ce:	fd842783          	lw	a5,-40(s0)
     6d2:	00279713          	slli	a4,a5,0x2
     6d6:	400067b7          	lui	a5,0x40006
     6da:	c0078793          	addi	a5,a5,-1024 # 40005c00 <_eusrstack+0x20003400>
     6de:	97ba                	add	a5,a5,a4
     6e0:	439c                	lw	a5,0(a5)
     6e2:	07c2                	slli	a5,a5,0x10
     6e4:	83c1                	srli	a5,a5,0x10
     6e6:	0307f713          	andi	a4,a5,48
     6ea:	47c1                	li	a5,16
     6ec:	1ef71863          	bne	a4,a5,8dc <Standard_ClearFeature+0x308>
     6f0:	fd842783          	lw	a5,-40(s0)
     6f4:	0ff7f793          	andi	a5,a5,255
     6f8:	853e                	mv	a0,a5
     6fa:	3bb020ef          	jal	ra,32b4 <ClearDTOG_TX>
     6fe:	fd842783          	lw	a5,-40(s0)
     702:	0ff7f793          	andi	a5,a5,255
     706:	03000593          	li	a1,48
     70a:	853e                	mv	a0,a5
     70c:	041020ef          	jal	ra,2f4c <SetEPTxStatus>
     710:	a2f1                	j	8dc <Standard_ClearFeature+0x308>
     712:	fd842783          	lw	a5,-40(s0)
     716:	00279713          	slli	a4,a5,0x2
     71a:	400067b7          	lui	a5,0x40006
     71e:	c0078793          	addi	a5,a5,-1024 # 40005c00 <_eusrstack+0x20003400>
     722:	97ba                	add	a5,a5,a4
     724:	439c                	lw	a5,0(a5)
     726:	07c2                	slli	a5,a5,0x10
     728:	83c1                	srli	a5,a5,0x10
     72a:	873e                	mv	a4,a5
     72c:	678d                	lui	a5,0x3
     72e:	8f7d                	and	a4,a4,a5
     730:	6785                	lui	a5,0x1
     732:	1af71563          	bne	a4,a5,8dc <Standard_ClearFeature+0x308>
     736:	fd842783          	lw	a5,-40(s0)
     73a:	eff1                	bnez	a5,816 <Standard_ClearFeature+0x242>
     73c:	fd842783          	lw	a5,-40(s0)
     740:	0ff7f713          	andi	a4,a5,255
     744:	200007b7          	lui	a5,0x20000
     748:	1c078793          	addi	a5,a5,448 # 200001c0 <Device_Property>
     74c:	02c7c783          	lbu	a5,44(a5)
     750:	07c2                	slli	a5,a5,0x10
     752:	83c1                	srli	a5,a5,0x10
     754:	85be                	mv	a1,a5
     756:	853a                	mv	a0,a4
     758:	52b020ef          	jal	ra,3482 <SetEPRxCount>
     75c:	fd842783          	lw	a5,-40(s0)
     760:	00279713          	slli	a4,a5,0x2
     764:	400067b7          	lui	a5,0x40006
     768:	c0078793          	addi	a5,a5,-1024 # 40005c00 <_eusrstack+0x20003400>
     76c:	97ba                	add	a5,a5,a4
     76e:	439c                	lw	a5,0(a5)
     770:	01079713          	slli	a4,a5,0x10
     774:	8341                	srli	a4,a4,0x10
     776:	77f1                	lui	a5,0xffffc
     778:	f8f78793          	addi	a5,a5,-113 # ffffbf8f <_eusrstack+0xdfff978f>
     77c:	8ff9                	and	a5,a5,a4
     77e:	01079093          	slli	ra,a5,0x10
     782:	0100d093          	srli	ra,ra,0x10
     786:	6785                	lui	a5,0x1
     788:	00f0c7b3          	xor	a5,ra,a5
     78c:	01079093          	slli	ra,a5,0x10
     790:	0100d093          	srli	ra,ra,0x10
     794:	6789                	lui	a5,0x2
     796:	00f0c7b3          	xor	a5,ra,a5
     79a:	01079093          	slli	ra,a5,0x10
     79e:	0100d093          	srli	ra,ra,0x10
     7a2:	77e1                	lui	a5,0xffff8
     7a4:	08078793          	addi	a5,a5,128 # ffff8080 <_eusrstack+0xdfff5880>
     7a8:	00f0e7b3          	or	a5,ra,a5
     7ac:	01079693          	slli	a3,a5,0x10
     7b0:	82c1                	srli	a3,a3,0x10
     7b2:	fd842783          	lw	a5,-40(s0)
     7b6:	00279713          	slli	a4,a5,0x2
     7ba:	400067b7          	lui	a5,0x40006
     7be:	c0078793          	addi	a5,a5,-1024 # 40005c00 <_eusrstack+0x20003400>
     7c2:	97ba                	add	a5,a5,a4
     7c4:	8736                	mv	a4,a3
     7c6:	c398                	sw	a4,0(a5)
     7c8:	a025                	j	7f0 <Standard_ClearFeature+0x21c>
     7ca:	77e1                	lui	a5,0xffff8
     7cc:	08078793          	addi	a5,a5,128 # ffff8080 <_eusrstack+0xdfff5880>
     7d0:	00f0e7b3          	or	a5,ra,a5
     7d4:	01079693          	slli	a3,a5,0x10
     7d8:	82c1                	srli	a3,a3,0x10
     7da:	fd842783          	lw	a5,-40(s0)
     7de:	00279713          	slli	a4,a5,0x2
     7e2:	400067b7          	lui	a5,0x40006
     7e6:	c0078793          	addi	a5,a5,-1024 # 40005c00 <_eusrstack+0x20003400>
     7ea:	97ba                	add	a5,a5,a4
     7ec:	8736                	mv	a4,a3
     7ee:	c398                	sw	a4,0(a5)
     7f0:	fd842783          	lw	a5,-40(s0)
     7f4:	00279713          	slli	a4,a5,0x2
     7f8:	400067b7          	lui	a5,0x40006
     7fc:	c0078793          	addi	a5,a5,-1024 # 40005c00 <_eusrstack+0x20003400>
     800:	97ba                	add	a5,a5,a4
     802:	439c                	lw	a5,0(a5)
     804:	07c2                	slli	a5,a5,0x10
     806:	83c1                	srli	a5,a5,0x10
     808:	873e                	mv	a4,a5
     80a:	678d                	lui	a5,0x3
     80c:	8f7d                	and	a4,a4,a5
     80e:	678d                	lui	a5,0x3
     810:	faf71de3          	bne	a4,a5,7ca <Standard_ClearFeature+0x1f6>
     814:	a0e1                	j	8dc <Standard_ClearFeature+0x308>
     816:	fd842783          	lw	a5,-40(s0)
     81a:	0ff7f793          	andi	a5,a5,255
     81e:	853e                	mv	a0,a5
     820:	21f020ef          	jal	ra,323e <ClearDTOG_RX>
     824:	fd842783          	lw	a5,-40(s0)
     828:	00279713          	slli	a4,a5,0x2
     82c:	400067b7          	lui	a5,0x40006
     830:	c0078793          	addi	a5,a5,-1024 # 40005c00 <_eusrstack+0x20003400>
     834:	97ba                	add	a5,a5,a4
     836:	439c                	lw	a5,0(a5)
     838:	01079713          	slli	a4,a5,0x10
     83c:	8341                	srli	a4,a4,0x10
     83e:	77f1                	lui	a5,0xffffc
     840:	f8f78793          	addi	a5,a5,-113 # ffffbf8f <_eusrstack+0xdfff978f>
     844:	8ff9                	and	a5,a5,a4
     846:	01079093          	slli	ra,a5,0x10
     84a:	0100d093          	srli	ra,ra,0x10
     84e:	6785                	lui	a5,0x1
     850:	00f0c7b3          	xor	a5,ra,a5
     854:	01079093          	slli	ra,a5,0x10
     858:	0100d093          	srli	ra,ra,0x10
     85c:	6789                	lui	a5,0x2
     85e:	00f0c7b3          	xor	a5,ra,a5
     862:	01079093          	slli	ra,a5,0x10
     866:	0100d093          	srli	ra,ra,0x10
     86a:	77e1                	lui	a5,0xffff8
     86c:	08078793          	addi	a5,a5,128 # ffff8080 <_eusrstack+0xdfff5880>
     870:	00f0e7b3          	or	a5,ra,a5
     874:	01079693          	slli	a3,a5,0x10
     878:	82c1                	srli	a3,a3,0x10
     87a:	fd842783          	lw	a5,-40(s0)
     87e:	00279713          	slli	a4,a5,0x2
     882:	400067b7          	lui	a5,0x40006
     886:	c0078793          	addi	a5,a5,-1024 # 40005c00 <_eusrstack+0x20003400>
     88a:	97ba                	add	a5,a5,a4
     88c:	8736                	mv	a4,a3
     88e:	c398                	sw	a4,0(a5)
     890:	a025                	j	8b8 <Standard_ClearFeature+0x2e4>
     892:	77e1                	lui	a5,0xffff8
     894:	08078793          	addi	a5,a5,128 # ffff8080 <_eusrstack+0xdfff5880>
     898:	00f0e7b3          	or	a5,ra,a5
     89c:	01079693          	slli	a3,a5,0x10
     8a0:	82c1                	srli	a3,a3,0x10
     8a2:	fd842783          	lw	a5,-40(s0)
     8a6:	00279713          	slli	a4,a5,0x2
     8aa:	400067b7          	lui	a5,0x40006
     8ae:	c0078793          	addi	a5,a5,-1024 # 40005c00 <_eusrstack+0x20003400>
     8b2:	97ba                	add	a5,a5,a4
     8b4:	8736                	mv	a4,a3
     8b6:	c398                	sw	a4,0(a5)
     8b8:	fd842783          	lw	a5,-40(s0)
     8bc:	00279713          	slli	a4,a5,0x2
     8c0:	400067b7          	lui	a5,0x40006
     8c4:	c0078793          	addi	a5,a5,-1024 # 40005c00 <_eusrstack+0x20003400>
     8c8:	97ba                	add	a5,a5,a4
     8ca:	439c                	lw	a5,0(a5)
     8cc:	07c2                	slli	a5,a5,0x10
     8ce:	83c1                	srli	a5,a5,0x10
     8d0:	873e                	mv	a4,a5
     8d2:	678d                	lui	a5,0x3
     8d4:	8f7d                	and	a4,a4,a5
     8d6:	678d                	lui	a5,0x3
     8d8:	faf71de3          	bne	a4,a5,892 <Standard_ClearFeature+0x2be>
     8dc:	8441a783          	lw	a5,-1980(gp) # 2000027c <pUser_Standard_Requests>
     8e0:	4bdc                	lw	a5,20(a5)
     8e2:	9782                	jalr	a5
     8e4:	4781                	li	a5,0
     8e6:	a011                	j	8ea <Standard_ClearFeature+0x316>
     8e8:	4789                	li	a5,2
     8ea:	853e                	mv	a0,a5
     8ec:	50b2                	lw	ra,44(sp)
     8ee:	5422                	lw	s0,40(sp)
     8f0:	6145                	addi	sp,sp,48
     8f2:	8082                	ret

000008f4 <Standard_SetEndPointFeature>:
     8f4:	1101                	addi	sp,sp,-32
     8f6:	ce06                	sw	ra,28(sp)
     8f8:	cc22                	sw	s0,24(sp)
     8fa:	1000                	addi	s0,sp,32
     8fc:	8381a783          	lw	a5,-1992(gp) # 20000270 <pInformation>
     900:	33dc                	lbu	a5,5(a5)
     902:	fef42423          	sw	a5,-24(s0)
     906:	fe842783          	lw	a5,-24(s0)
     90a:	f7f7f793          	andi	a5,a5,-129
     90e:	fef42223          	sw	a5,-28(s0)
     912:	fe442783          	lw	a5,-28(s0)
     916:	fef42023          	sw	a5,-32(s0)
     91a:	8381a783          	lw	a5,-1992(gp) # 20000270 <pInformation>
     91e:	33dc                	lbu	a5,5(a5)
     920:	07e2                	slli	a5,a5,0x18
     922:	87e1                	srai	a5,a5,0x18
     924:	0207d363          	bgez	a5,94a <Standard_SetEndPointFeature+0x56>
     928:	fe042783          	lw	a5,-32(s0)
     92c:	00279713          	slli	a4,a5,0x2
     930:	400067b7          	lui	a5,0x40006
     934:	c0078793          	addi	a5,a5,-1024 # 40005c00 <_eusrstack+0x20003400>
     938:	97ba                	add	a5,a5,a4
     93a:	439c                	lw	a5,0(a5)
     93c:	07c2                	slli	a5,a5,0x10
     93e:	83c1                	srli	a5,a5,0x10
     940:	0307f793          	andi	a5,a5,48
     944:	fef42623          	sw	a5,-20(s0)
     948:	a015                	j	96c <Standard_SetEndPointFeature+0x78>
     94a:	fe042783          	lw	a5,-32(s0)
     94e:	00279713          	slli	a4,a5,0x2
     952:	400067b7          	lui	a5,0x40006
     956:	c0078793          	addi	a5,a5,-1024 # 40005c00 <_eusrstack+0x20003400>
     95a:	97ba                	add	a5,a5,a4
     95c:	439c                	lw	a5,0(a5)
     95e:	07c2                	slli	a5,a5,0x10
     960:	83c1                	srli	a5,a5,0x10
     962:	873e                	mv	a4,a5
     964:	678d                	lui	a5,0x3
     966:	8ff9                	and	a5,a5,a4
     968:	fef42623          	sw	a5,-20(s0)
     96c:	200007b7          	lui	a5,0x20000
     970:	2387c783          	lbu	a5,568(a5) # 20000238 <Device_Table>
     974:	873e                	mv	a4,a5
     976:	fe042783          	lw	a5,-32(s0)
     97a:	00e7fd63          	bgeu	a5,a4,994 <Standard_SetEndPointFeature+0xa0>
     97e:	8381a783          	lw	a5,-1992(gp) # 20000270 <pInformation>
     982:	23be                	lhu	a5,2(a5)
     984:	eb81                	bnez	a5,994 <Standard_SetEndPointFeature+0xa0>
     986:	fec42783          	lw	a5,-20(s0)
     98a:	c789                	beqz	a5,994 <Standard_SetEndPointFeature+0xa0>
     98c:	8381a783          	lw	a5,-1992(gp) # 20000270 <pInformation>
     990:	27bc                	lbu	a5,10(a5)
     992:	e399                	bnez	a5,998 <Standard_SetEndPointFeature+0xa4>
     994:	4789                	li	a5,2
     996:	a2a5                	j	afe <Standard_SetEndPointFeature+0x20a>
     998:	fe842783          	lw	a5,-24(s0)
     99c:	0807f793          	andi	a5,a5,128
     9a0:	c7cd                	beqz	a5,a4a <Standard_SetEndPointFeature+0x156>
     9a2:	fe042783          	lw	a5,-32(s0)
     9a6:	00279713          	slli	a4,a5,0x2
     9aa:	400067b7          	lui	a5,0x40006
     9ae:	c0078793          	addi	a5,a5,-1024 # 40005c00 <_eusrstack+0x20003400>
     9b2:	97ba                	add	a5,a5,a4
     9b4:	439c                	lw	a5,0(a5)
     9b6:	01079713          	slli	a4,a5,0x10
     9ba:	8341                	srli	a4,a4,0x10
     9bc:	77e5                	lui	a5,0xffff9
     9be:	fbf78793          	addi	a5,a5,-65 # ffff8fbf <_eusrstack+0xdfff67bf>
     9c2:	8ff9                	and	a5,a5,a4
     9c4:	01079093          	slli	ra,a5,0x10
     9c8:	0100d093          	srli	ra,ra,0x10
     9cc:	0100c793          	xori	a5,ra,16
     9d0:	01079093          	slli	ra,a5,0x10
     9d4:	0100d093          	srli	ra,ra,0x10
     9d8:	77e1                	lui	a5,0xffff8
     9da:	08078793          	addi	a5,a5,128 # ffff8080 <_eusrstack+0xdfff5880>
     9de:	00f0e7b3          	or	a5,ra,a5
     9e2:	01079693          	slli	a3,a5,0x10
     9e6:	82c1                	srli	a3,a3,0x10
     9e8:	fe042783          	lw	a5,-32(s0)
     9ec:	00279713          	slli	a4,a5,0x2
     9f0:	400067b7          	lui	a5,0x40006
     9f4:	c0078793          	addi	a5,a5,-1024 # 40005c00 <_eusrstack+0x20003400>
     9f8:	97ba                	add	a5,a5,a4
     9fa:	8736                	mv	a4,a3
     9fc:	c398                	sw	a4,0(a5)
     9fe:	a025                	j	a26 <Standard_SetEndPointFeature+0x132>
     a00:	77e1                	lui	a5,0xffff8
     a02:	08078793          	addi	a5,a5,128 # ffff8080 <_eusrstack+0xdfff5880>
     a06:	00f0e7b3          	or	a5,ra,a5
     a0a:	01079693          	slli	a3,a5,0x10
     a0e:	82c1                	srli	a3,a3,0x10
     a10:	fe042783          	lw	a5,-32(s0)
     a14:	00279713          	slli	a4,a5,0x2
     a18:	400067b7          	lui	a5,0x40006
     a1c:	c0078793          	addi	a5,a5,-1024 # 40005c00 <_eusrstack+0x20003400>
     a20:	97ba                	add	a5,a5,a4
     a22:	8736                	mv	a4,a3
     a24:	c398                	sw	a4,0(a5)
     a26:	fe042783          	lw	a5,-32(s0)
     a2a:	00279713          	slli	a4,a5,0x2
     a2e:	400067b7          	lui	a5,0x40006
     a32:	c0078793          	addi	a5,a5,-1024 # 40005c00 <_eusrstack+0x20003400>
     a36:	97ba                	add	a5,a5,a4
     a38:	439c                	lw	a5,0(a5)
     a3a:	07c2                	slli	a5,a5,0x10
     a3c:	83c1                	srli	a5,a5,0x10
     a3e:	0307f713          	andi	a4,a5,48
     a42:	47c1                	li	a5,16
     a44:	faf71ee3          	bne	a4,a5,a00 <Standard_SetEndPointFeature+0x10c>
     a48:	a075                	j	af4 <Standard_SetEndPointFeature+0x200>
     a4a:	fe042783          	lw	a5,-32(s0)
     a4e:	00279713          	slli	a4,a5,0x2
     a52:	400067b7          	lui	a5,0x40006
     a56:	c0078793          	addi	a5,a5,-1024 # 40005c00 <_eusrstack+0x20003400>
     a5a:	97ba                	add	a5,a5,a4
     a5c:	439c                	lw	a5,0(a5)
     a5e:	01079713          	slli	a4,a5,0x10
     a62:	8341                	srli	a4,a4,0x10
     a64:	77f1                	lui	a5,0xffffc
     a66:	f8f78793          	addi	a5,a5,-113 # ffffbf8f <_eusrstack+0xdfff978f>
     a6a:	8ff9                	and	a5,a5,a4
     a6c:	01079093          	slli	ra,a5,0x10
     a70:	0100d093          	srli	ra,ra,0x10
     a74:	6785                	lui	a5,0x1
     a76:	00f0c7b3          	xor	a5,ra,a5
     a7a:	01079093          	slli	ra,a5,0x10
     a7e:	0100d093          	srli	ra,ra,0x10
     a82:	77e1                	lui	a5,0xffff8
     a84:	08078793          	addi	a5,a5,128 # ffff8080 <_eusrstack+0xdfff5880>
     a88:	00f0e7b3          	or	a5,ra,a5
     a8c:	01079693          	slli	a3,a5,0x10
     a90:	82c1                	srli	a3,a3,0x10
     a92:	fe042783          	lw	a5,-32(s0)
     a96:	00279713          	slli	a4,a5,0x2
     a9a:	400067b7          	lui	a5,0x40006
     a9e:	c0078793          	addi	a5,a5,-1024 # 40005c00 <_eusrstack+0x20003400>
     aa2:	97ba                	add	a5,a5,a4
     aa4:	8736                	mv	a4,a3
     aa6:	c398                	sw	a4,0(a5)
     aa8:	a025                	j	ad0 <Standard_SetEndPointFeature+0x1dc>
     aaa:	77e1                	lui	a5,0xffff8
     aac:	08078793          	addi	a5,a5,128 # ffff8080 <_eusrstack+0xdfff5880>
     ab0:	00f0e7b3          	or	a5,ra,a5
     ab4:	01079693          	slli	a3,a5,0x10
     ab8:	82c1                	srli	a3,a3,0x10
     aba:	fe042783          	lw	a5,-32(s0)
     abe:	00279713          	slli	a4,a5,0x2
     ac2:	400067b7          	lui	a5,0x40006
     ac6:	c0078793          	addi	a5,a5,-1024 # 40005c00 <_eusrstack+0x20003400>
     aca:	97ba                	add	a5,a5,a4
     acc:	8736                	mv	a4,a3
     ace:	c398                	sw	a4,0(a5)
     ad0:	fe042783          	lw	a5,-32(s0)
     ad4:	00279713          	slli	a4,a5,0x2
     ad8:	400067b7          	lui	a5,0x40006
     adc:	c0078793          	addi	a5,a5,-1024 # 40005c00 <_eusrstack+0x20003400>
     ae0:	97ba                	add	a5,a5,a4
     ae2:	439c                	lw	a5,0(a5)
     ae4:	07c2                	slli	a5,a5,0x10
     ae6:	83c1                	srli	a5,a5,0x10
     ae8:	873e                	mv	a4,a5
     aea:	678d                	lui	a5,0x3
     aec:	8f7d                	and	a4,a4,a5
     aee:	6785                	lui	a5,0x1
     af0:	faf71de3          	bne	a4,a5,aaa <Standard_SetEndPointFeature+0x1b6>
     af4:	8441a783          	lw	a5,-1980(gp) # 2000027c <pUser_Standard_Requests>
     af8:	4f9c                	lw	a5,24(a5)
     afa:	9782                	jalr	a5
     afc:	4781                	li	a5,0
     afe:	853e                	mv	a0,a5
     b00:	40f2                	lw	ra,28(sp)
     b02:	4462                	lw	s0,24(sp)
     b04:	6105                	addi	sp,sp,32
     b06:	8082                	ret

00000b08 <Standard_SetDeviceFeature>:
     b08:	1141                	addi	sp,sp,-16
     b0a:	c606                	sw	ra,12(sp)
     b0c:	c422                	sw	s0,8(sp)
     b0e:	0800                	addi	s0,sp,16
     b10:	8381a783          	lw	a5,-1992(gp) # 20000270 <pInformation>
     b14:	3798                	lbu	a4,9(a5)
     b16:	8381a783          	lw	a5,-1992(gp) # 20000270 <pInformation>
     b1a:	02076713          	ori	a4,a4,32
     b1e:	0ff77713          	andi	a4,a4,255
     b22:	b798                	sb	a4,9(a5)
     b24:	8441a783          	lw	a5,-1980(gp) # 2000027c <pUser_Standard_Requests>
     b28:	4fdc                	lw	a5,28(a5)
     b2a:	9782                	jalr	a5
     b2c:	4781                	li	a5,0
     b2e:	853e                	mv	a0,a5
     b30:	40b2                	lw	ra,12(sp)
     b32:	4422                	lw	s0,8(sp)
     b34:	0141                	addi	sp,sp,16
     b36:	8082                	ret

00000b38 <Standard_GetDescriptorData>:
     b38:	7179                	addi	sp,sp,-48
     b3a:	d622                	sw	s0,44(sp)
     b3c:	1800                	addi	s0,sp,48
     b3e:	87aa                	mv	a5,a0
     b40:	fcb42c23          	sw	a1,-40(s0)
     b44:	fcf41f23          	sh	a5,-34(s0)
     b48:	8381a783          	lw	a5,-1992(gp) # 20000270 <pInformation>
     b4c:	2bbe                	lhu	a5,18(a5)
     b4e:	fef42623          	sw	a5,-20(s0)
     b52:	fde45783          	lhu	a5,-34(s0)
     b56:	e395                	bnez	a5,b7a <Standard_GetDescriptorData+0x42>
     b58:	fd842783          	lw	a5,-40(s0)
     b5c:	23d6                	lhu	a3,4(a5)
     b5e:	fec42783          	lw	a5,-20(s0)
     b62:	01079713          	slli	a4,a5,0x10
     b66:	8341                	srli	a4,a4,0x10
     b68:	8381a783          	lw	a5,-1992(gp) # 20000270 <pInformation>
     b6c:	40e68733          	sub	a4,a3,a4
     b70:	0742                	slli	a4,a4,0x10
     b72:	8341                	srli	a4,a4,0x10
     b74:	ab9a                	sh	a4,16(a5)
     b76:	4781                	li	a5,0
     b78:	a039                	j	b86 <Standard_GetDescriptorData+0x4e>
     b7a:	fd842783          	lw	a5,-40(s0)
     b7e:	4398                	lw	a4,0(a5)
     b80:	fec42783          	lw	a5,-20(s0)
     b84:	97ba                	add	a5,a5,a4
     b86:	853e                	mv	a0,a5
     b88:	5432                	lw	s0,44(sp)
     b8a:	6145                	addi	sp,sp,48
     b8c:	8082                	ret

00000b8e <DataStageOut>:
     b8e:	1101                	addi	sp,sp,-32
     b90:	ce06                	sw	ra,28(sp)
     b92:	cc22                	sw	s0,24(sp)
     b94:	1000                	addi	s0,sp,32
     b96:	8381a783          	lw	a5,-1992(gp) # 20000270 <pInformation>
     b9a:	07c1                	addi	a5,a5,16
     b9c:	fef42423          	sw	a5,-24(s0)
     ba0:	fe842783          	lw	a5,-24(s0)
     ba4:	239e                	lhu	a5,0(a5)
     ba6:	fef42223          	sw	a5,-28(s0)
     baa:	fe842783          	lw	a5,-24(s0)
     bae:	479c                	lw	a5,8(a5)
     bb0:	cbd1                	beqz	a5,c44 <DataStageOut+0xb6>
     bb2:	fe442783          	lw	a5,-28(s0)
     bb6:	c7d9                	beqz	a5,c44 <DataStageOut+0xb6>
     bb8:	fe842783          	lw	a5,-24(s0)
     bbc:	23de                	lhu	a5,4(a5)
     bbe:	fef42623          	sw	a5,-20(s0)
     bc2:	fec42703          	lw	a4,-20(s0)
     bc6:	fe442783          	lw	a5,-28(s0)
     bca:	00e7f663          	bgeu	a5,a4,bd6 <DataStageOut+0x48>
     bce:	fe442783          	lw	a5,-28(s0)
     bd2:	fef42623          	sw	a5,-20(s0)
     bd6:	fe842783          	lw	a5,-24(s0)
     bda:	4798                	lw	a4,8(a5)
     bdc:	fec42783          	lw	a5,-20(s0)
     be0:	07c2                	slli	a5,a5,0x10
     be2:	83c1                	srli	a5,a5,0x10
     be4:	853e                	mv	a0,a5
     be6:	9702                	jalr	a4
     be8:	fea42023          	sw	a0,-32(s0)
     bec:	fe842783          	lw	a5,-24(s0)
     bf0:	239a                	lhu	a4,0(a5)
     bf2:	fec42783          	lw	a5,-20(s0)
     bf6:	07c2                	slli	a5,a5,0x10
     bf8:	83c1                	srli	a5,a5,0x10
     bfa:	40f707b3          	sub	a5,a4,a5
     bfe:	01079713          	slli	a4,a5,0x10
     c02:	8341                	srli	a4,a4,0x10
     c04:	fe842783          	lw	a5,-24(s0)
     c08:	a39a                	sh	a4,0(a5)
     c0a:	fe842783          	lw	a5,-24(s0)
     c0e:	23ba                	lhu	a4,2(a5)
     c10:	fec42783          	lw	a5,-20(s0)
     c14:	07c2                	slli	a5,a5,0x10
     c16:	83c1                	srli	a5,a5,0x10
     c18:	97ba                	add	a5,a5,a4
     c1a:	01079713          	slli	a4,a5,0x10
     c1e:	8341                	srli	a4,a4,0x10
     c20:	fe842783          	lw	a5,-24(s0)
     c24:	a3ba                	sh	a4,2(a5)
     c26:	4501                	li	a0,0
     c28:	7d8020ef          	jal	ra,3400 <GetEPRxAddr>
     c2c:	87aa                	mv	a5,a0
     c2e:	873e                	mv	a4,a5
     c30:	fec42783          	lw	a5,-20(s0)
     c34:	07c2                	slli	a5,a5,0x10
     c36:	83c1                	srli	a5,a5,0x10
     c38:	863e                	mv	a2,a5
     c3a:	85ba                	mv	a1,a4
     c3c:	fe042503          	lw	a0,-32(s0)
     c40:	6ee010ef          	jal	ra,232e <PMAToUserBufferCopy>
     c44:	fe842783          	lw	a5,-24(s0)
     c48:	239e                	lhu	a5,0(a5)
     c4a:	cf81                	beqz	a5,c62 <DataStageOut+0xd4>
     c4c:	670d                	lui	a4,0x3
     c4e:	84e19423          	sh	a4,-1976(gp) # 20000280 <SaveRState>
     c52:	4581                	li	a1,0
     c54:	4501                	li	a0,0
     c56:	7e6020ef          	jal	ra,343c <SetEPTxCount>
     c5a:	03000713          	li	a4,48
     c5e:	84e19523          	sh	a4,-1974(gp) # 20000282 <SaveTState>
     c62:	fe842783          	lw	a5,-24(s0)
     c66:	239a                	lhu	a4,0(a5)
     c68:	fe842783          	lw	a5,-24(s0)
     c6c:	23de                	lhu	a5,4(a5)
     c6e:	00f76763          	bltu	a4,a5,c7c <DataStageOut+0xee>
     c72:	8381a783          	lw	a5,-1992(gp) # 20000270 <pInformation>
     c76:	470d                	li	a4,3
     c78:	a798                	sb	a4,8(a5)
     c7a:	a0a9                	j	cc4 <DataStageOut+0x136>
     c7c:	fe842783          	lw	a5,-24(s0)
     c80:	239e                	lhu	a5,0(a5)
     c82:	c791                	beqz	a5,c8e <DataStageOut+0x100>
     c84:	8381a783          	lw	a5,-1992(gp) # 20000270 <pInformation>
     c88:	4715                	li	a4,5
     c8a:	a798                	sb	a4,8(a5)
     c8c:	a825                	j	cc4 <DataStageOut+0x136>
     c8e:	fe842783          	lw	a5,-24(s0)
     c92:	239e                	lhu	a5,0(a5)
     c94:	eb85                	bnez	a5,cc4 <DataStageOut+0x136>
     c96:	8381a783          	lw	a5,-1992(gp) # 20000270 <pInformation>
     c9a:	4719                	li	a4,6
     c9c:	a798                	sb	a4,8(a5)
     c9e:	400067b7          	lui	a5,0x40006
     ca2:	c5078793          	addi	a5,a5,-944 # 40005c50 <_eusrstack+0x20003450>
     ca6:	439c                	lw	a5,0(a5)
     ca8:	07c2                	slli	a5,a5,0x10
     caa:	83c1                	srli	a5,a5,0x10
     cac:	873e                	mv	a4,a5
     cae:	200037b7          	lui	a5,0x20003
     cb2:	0789                	addi	a5,a5,2
     cb4:	97ba                	add	a5,a5,a4
     cb6:	0786                	slli	a5,a5,0x1
     cb8:	0007a023          	sw	zero,0(a5) # 20003000 <_eusrstack+0x800>
     cbc:	03000713          	li	a4,48
     cc0:	84e19523          	sh	a4,-1974(gp) # 20000282 <SaveTState>
     cc4:	0001                	nop
     cc6:	40f2                	lw	ra,28(sp)
     cc8:	4462                	lw	s0,24(sp)
     cca:	6105                	addi	sp,sp,32
     ccc:	8082                	ret

00000cce <DataStageIn>:
     cce:	7179                	addi	sp,sp,-48
     cd0:	d606                	sw	ra,44(sp)
     cd2:	d422                	sw	s0,40(sp)
     cd4:	1800                	addi	s0,sp,48
     cd6:	8381a783          	lw	a5,-1992(gp) # 20000270 <pInformation>
     cda:	07c1                	addi	a5,a5,16
     cdc:	fef42223          	sw	a5,-28(s0)
     ce0:	fe442783          	lw	a5,-28(s0)
     ce4:	239e                	lhu	a5,0(a5)
     ce6:	fef42023          	sw	a5,-32(s0)
     cea:	8381a783          	lw	a5,-1992(gp) # 20000270 <pInformation>
     cee:	279c                	lbu	a5,8(a5)
     cf0:	fef42623          	sw	a5,-20(s0)
     cf4:	fe042783          	lw	a5,-32(s0)
     cf8:	eba9                	bnez	a5,d4a <DataStageIn+0x7c>
     cfa:	fec42703          	lw	a4,-20(s0)
     cfe:	4791                	li	a5,4
     d00:	04f71563          	bne	a4,a5,d4a <DataStageIn+0x7c>
     d04:	8321c783          	lbu	a5,-1998(gp) # 2000026a <Data_Mul_MaxPacketSize>
     d08:	cb95                	beqz	a5,d3c <DataStageIn+0x6e>
     d0a:	400067b7          	lui	a5,0x40006
     d0e:	c5078793          	addi	a5,a5,-944 # 40005c50 <_eusrstack+0x20003450>
     d12:	439c                	lw	a5,0(a5)
     d14:	07c2                	slli	a5,a5,0x10
     d16:	83c1                	srli	a5,a5,0x10
     d18:	873e                	mv	a4,a5
     d1a:	200037b7          	lui	a5,0x20003
     d1e:	0789                	addi	a5,a5,2
     d20:	97ba                	add	a5,a5,a4
     d22:	0786                	slli	a5,a5,0x1
     d24:	0007a023          	sw	zero,0(a5) # 20003000 <_eusrstack+0x800>
     d28:	03000713          	li	a4,48
     d2c:	84e19523          	sh	a4,-1974(gp) # 20000282 <SaveTState>
     d30:	4791                	li	a5,4
     d32:	fef42623          	sw	a5,-20(s0)
     d36:	82018923          	sb	zero,-1998(gp) # 2000026a <Data_Mul_MaxPacketSize>
     d3a:	a8c1                	j	e0a <DataStageIn+0x13c>
     d3c:	479d                	li	a5,7
     d3e:	fef42623          	sw	a5,-20(s0)
     d42:	4741                	li	a4,16
     d44:	84e19523          	sh	a4,-1974(gp) # 20000282 <SaveTState>
     d48:	a0c9                	j	e0a <DataStageIn+0x13c>
     d4a:	fe442783          	lw	a5,-28(s0)
     d4e:	23de                	lhu	a5,4(a5)
     d50:	fef42423          	sw	a5,-24(s0)
     d54:	fe042703          	lw	a4,-32(s0)
     d58:	fe842783          	lw	a5,-24(s0)
     d5c:	00e7e463          	bltu	a5,a4,d64 <DataStageIn+0x96>
     d60:	4791                	li	a5,4
     d62:	a011                	j	d66 <DataStageIn+0x98>
     d64:	4789                	li	a5,2
     d66:	fef42623          	sw	a5,-20(s0)
     d6a:	fe842703          	lw	a4,-24(s0)
     d6e:	fe042783          	lw	a5,-32(s0)
     d72:	00e7f663          	bgeu	a5,a4,d7e <DataStageIn+0xb0>
     d76:	fe042783          	lw	a5,-32(s0)
     d7a:	fef42423          	sw	a5,-24(s0)
     d7e:	fe442783          	lw	a5,-28(s0)
     d82:	4798                	lw	a4,8(a5)
     d84:	fe842783          	lw	a5,-24(s0)
     d88:	07c2                	slli	a5,a5,0x10
     d8a:	83c1                	srli	a5,a5,0x10
     d8c:	853e                	mv	a0,a5
     d8e:	9702                	jalr	a4
     d90:	fca42e23          	sw	a0,-36(s0)
     d94:	4501                	li	a0,0
     d96:	630020ef          	jal	ra,33c6 <GetEPTxAddr>
     d9a:	87aa                	mv	a5,a0
     d9c:	873e                	mv	a4,a5
     d9e:	fe842783          	lw	a5,-24(s0)
     da2:	07c2                	slli	a5,a5,0x10
     da4:	83c1                	srli	a5,a5,0x10
     da6:	863e                	mv	a2,a5
     da8:	85ba                	mv	a1,a4
     daa:	fdc42503          	lw	a0,-36(s0)
     dae:	4d8010ef          	jal	ra,2286 <UserToPMABufferCopy>
     db2:	fe842783          	lw	a5,-24(s0)
     db6:	07c2                	slli	a5,a5,0x10
     db8:	83c1                	srli	a5,a5,0x10
     dba:	85be                	mv	a1,a5
     dbc:	4501                	li	a0,0
     dbe:	67e020ef          	jal	ra,343c <SetEPTxCount>
     dc2:	fe442783          	lw	a5,-28(s0)
     dc6:	239a                	lhu	a4,0(a5)
     dc8:	fe842783          	lw	a5,-24(s0)
     dcc:	07c2                	slli	a5,a5,0x10
     dce:	83c1                	srli	a5,a5,0x10
     dd0:	40f707b3          	sub	a5,a4,a5
     dd4:	01079713          	slli	a4,a5,0x10
     dd8:	8341                	srli	a4,a4,0x10
     dda:	fe442783          	lw	a5,-28(s0)
     dde:	a39a                	sh	a4,0(a5)
     de0:	fe442783          	lw	a5,-28(s0)
     de4:	23ba                	lhu	a4,2(a5)
     de6:	fe842783          	lw	a5,-24(s0)
     dea:	07c2                	slli	a5,a5,0x10
     dec:	83c1                	srli	a5,a5,0x10
     dee:	97ba                	add	a5,a5,a4
     df0:	01079713          	slli	a4,a5,0x10
     df4:	8341                	srli	a4,a4,0x10
     df6:	fe442783          	lw	a5,-28(s0)
     dfa:	a3ba                	sh	a4,2(a5)
     dfc:	03000713          	li	a4,48
     e00:	84e19523          	sh	a4,-1974(gp) # 20000282 <SaveTState>
     e04:	670d                	lui	a4,0x3
     e06:	84e19423          	sh	a4,-1976(gp) # 20000280 <SaveRState>
     e0a:	8381a783          	lw	a5,-1992(gp) # 20000270 <pInformation>
     e0e:	fec42703          	lw	a4,-20(s0)
     e12:	0ff77713          	andi	a4,a4,255
     e16:	a798                	sb	a4,8(a5)
     e18:	0001                	nop
     e1a:	50b2                	lw	ra,44(sp)
     e1c:	5422                	lw	s0,40(sp)
     e1e:	6145                	addi	sp,sp,48
     e20:	8082                	ret

00000e22 <NoData_Setup0>:
     e22:	1101                	addi	sp,sp,-32
     e24:	ce06                	sw	ra,28(sp)
     e26:	cc22                	sw	s0,24(sp)
     e28:	1000                	addi	s0,sp,32
     e2a:	4789                	li	a5,2
     e2c:	fef42623          	sw	a5,-20(s0)
     e30:	8381a783          	lw	a5,-1992(gp) # 20000270 <pInformation>
     e34:	339c                	lbu	a5,1(a5)
     e36:	fef42223          	sw	a5,-28(s0)
     e3a:	8381a783          	lw	a5,-1992(gp) # 20000270 <pInformation>
     e3e:	239c                	lbu	a5,0(a5)
     e40:	07f7f793          	andi	a5,a5,127
     e44:	efdd                	bnez	a5,f02 <NoData_Setup0+0xe0>
     e46:	fe442703          	lw	a4,-28(s0)
     e4a:	47a5                	li	a5,9
     e4c:	00f71763          	bne	a4,a5,e5a <NoData_Setup0+0x38>
     e50:	d2aff0ef          	jal	ra,37a <Standard_SetConfiguration>
     e54:	fea42623          	sw	a0,-20(s0)
     e58:	a229                	j	f62 <NoData_Setup0+0x140>
     e5a:	fe442703          	lw	a4,-28(s0)
     e5e:	4795                	li	a5,5
     e60:	02f71c63          	bne	a4,a5,e98 <NoData_Setup0+0x76>
     e64:	8381a783          	lw	a5,-1992(gp) # 20000270 <pInformation>
     e68:	33bc                	lbu	a5,3(a5)
     e6a:	07e2                	slli	a5,a5,0x18
     e6c:	87e1                	srai	a5,a5,0x18
     e6e:	0007ce63          	bltz	a5,e8a <NoData_Setup0+0x68>
     e72:	8381a783          	lw	a5,-1992(gp) # 20000270 <pInformation>
     e76:	23bc                	lbu	a5,2(a5)
     e78:	eb89                	bnez	a5,e8a <NoData_Setup0+0x68>
     e7a:	8381a783          	lw	a5,-1992(gp) # 20000270 <pInformation>
     e7e:	23de                	lhu	a5,4(a5)
     e80:	e789                	bnez	a5,e8a <NoData_Setup0+0x68>
     e82:	8381a783          	lw	a5,-1992(gp) # 20000270 <pInformation>
     e86:	27bc                	lbu	a5,10(a5)
     e88:	c789                	beqz	a5,e92 <NoData_Setup0+0x70>
     e8a:	47a1                	li	a5,8
     e8c:	fef42423          	sw	a5,-24(s0)
     e90:	aa2d                	j	fca <NoData_Setup0+0x1a8>
     e92:	fe042623          	sw	zero,-20(s0)
     e96:	a0f1                	j	f62 <NoData_Setup0+0x140>
     e98:	fe442703          	lw	a4,-28(s0)
     e9c:	478d                	li	a5,3
     e9e:	02f71463          	bne	a4,a5,ec6 <NoData_Setup0+0xa4>
     ea2:	8381a783          	lw	a5,-1992(gp) # 20000270 <pInformation>
     ea6:	33b8                	lbu	a4,3(a5)
     ea8:	4785                	li	a5,1
     eaa:	00f71a63          	bne	a4,a5,ebe <NoData_Setup0+0x9c>
     eae:	8381a783          	lw	a5,-1992(gp) # 20000270 <pInformation>
     eb2:	23de                	lhu	a5,4(a5)
     eb4:	e789                	bnez	a5,ebe <NoData_Setup0+0x9c>
     eb6:	3989                	jal	b08 <Standard_SetDeviceFeature>
     eb8:	fea42623          	sw	a0,-20(s0)
     ebc:	a05d                	j	f62 <NoData_Setup0+0x140>
     ebe:	4789                	li	a5,2
     ec0:	fef42623          	sw	a5,-20(s0)
     ec4:	a879                	j	f62 <NoData_Setup0+0x140>
     ec6:	fe442703          	lw	a4,-28(s0)
     eca:	4785                	li	a5,1
     ecc:	08f71b63          	bne	a4,a5,f62 <NoData_Setup0+0x140>
     ed0:	8381a783          	lw	a5,-1992(gp) # 20000270 <pInformation>
     ed4:	33b8                	lbu	a4,3(a5)
     ed6:	4785                	li	a5,1
     ed8:	02f71163          	bne	a4,a5,efa <NoData_Setup0+0xd8>
     edc:	8381a783          	lw	a5,-1992(gp) # 20000270 <pInformation>
     ee0:	23de                	lhu	a5,4(a5)
     ee2:	ef81                	bnez	a5,efa <NoData_Setup0+0xd8>
     ee4:	8381a783          	lw	a5,-1992(gp) # 20000270 <pInformation>
     ee8:	379c                	lbu	a5,9(a5)
     eea:	0207f793          	andi	a5,a5,32
     eee:	c791                	beqz	a5,efa <NoData_Setup0+0xd8>
     ef0:	ee4ff0ef          	jal	ra,5d4 <Standard_ClearFeature>
     ef4:	fea42623          	sw	a0,-20(s0)
     ef8:	a0ad                	j	f62 <NoData_Setup0+0x140>
     efa:	4789                	li	a5,2
     efc:	fef42623          	sw	a5,-20(s0)
     f00:	a08d                	j	f62 <NoData_Setup0+0x140>
     f02:	8381a783          	lw	a5,-1992(gp) # 20000270 <pInformation>
     f06:	239c                	lbu	a5,0(a5)
     f08:	07f7f713          	andi	a4,a5,127
     f0c:	4785                	li	a5,1
     f0e:	00f71c63          	bne	a4,a5,f26 <NoData_Setup0+0x104>
     f12:	fe442703          	lw	a4,-28(s0)
     f16:	47ad                	li	a5,11
     f18:	04f71563          	bne	a4,a5,f62 <NoData_Setup0+0x140>
     f1c:	ce6ff0ef          	jal	ra,402 <Standard_SetInterface>
     f20:	fea42623          	sw	a0,-20(s0)
     f24:	a83d                	j	f62 <NoData_Setup0+0x140>
     f26:	8381a783          	lw	a5,-1992(gp) # 20000270 <pInformation>
     f2a:	239c                	lbu	a5,0(a5)
     f2c:	07f7f713          	andi	a4,a5,127
     f30:	4789                	li	a5,2
     f32:	02f71563          	bne	a4,a5,f5c <NoData_Setup0+0x13a>
     f36:	fe442703          	lw	a4,-28(s0)
     f3a:	4785                	li	a5,1
     f3c:	00f71763          	bne	a4,a5,f4a <NoData_Setup0+0x128>
     f40:	e94ff0ef          	jal	ra,5d4 <Standard_ClearFeature>
     f44:	fea42623          	sw	a0,-20(s0)
     f48:	a829                	j	f62 <NoData_Setup0+0x140>
     f4a:	fe442703          	lw	a4,-28(s0)
     f4e:	478d                	li	a5,3
     f50:	00f71963          	bne	a4,a5,f62 <NoData_Setup0+0x140>
     f54:	3245                	jal	8f4 <Standard_SetEndPointFeature>
     f56:	fea42623          	sw	a0,-20(s0)
     f5a:	a021                	j	f62 <NoData_Setup0+0x140>
     f5c:	4789                	li	a5,2
     f5e:	fef42623          	sw	a5,-20(s0)
     f62:	fec42783          	lw	a5,-20(s0)
     f66:	c78d                	beqz	a5,f90 <NoData_Setup0+0x16e>
     f68:	83c1a783          	lw	a5,-1988(gp) # 20000274 <pProperty>
     f6c:	4bd8                	lw	a4,20(a5)
     f6e:	fe442783          	lw	a5,-28(s0)
     f72:	0ff7f793          	andi	a5,a5,255
     f76:	853e                	mv	a0,a5
     f78:	9702                	jalr	a4
     f7a:	fea42623          	sw	a0,-20(s0)
     f7e:	fec42703          	lw	a4,-20(s0)
     f82:	478d                	li	a5,3
     f84:	00f71663          	bne	a4,a5,f90 <NoData_Setup0+0x16e>
     f88:	47a5                	li	a5,9
     f8a:	fef42423          	sw	a5,-24(s0)
     f8e:	a835                	j	fca <NoData_Setup0+0x1a8>
     f90:	fec42783          	lw	a5,-20(s0)
     f94:	c789                	beqz	a5,f9e <NoData_Setup0+0x17c>
     f96:	47a1                	li	a5,8
     f98:	fef42423          	sw	a5,-24(s0)
     f9c:	a03d                	j	fca <NoData_Setup0+0x1a8>
     f9e:	4799                	li	a5,6
     fa0:	fef42423          	sw	a5,-24(s0)
     fa4:	400067b7          	lui	a5,0x40006
     fa8:	c5078793          	addi	a5,a5,-944 # 40005c50 <_eusrstack+0x20003450>
     fac:	439c                	lw	a5,0(a5)
     fae:	07c2                	slli	a5,a5,0x10
     fb0:	83c1                	srli	a5,a5,0x10
     fb2:	873e                	mv	a4,a5
     fb4:	200037b7          	lui	a5,0x20003
     fb8:	0789                	addi	a5,a5,2
     fba:	97ba                	add	a5,a5,a4
     fbc:	0786                	slli	a5,a5,0x1
     fbe:	0007a023          	sw	zero,0(a5) # 20003000 <_eusrstack+0x800>
     fc2:	03000713          	li	a4,48
     fc6:	84e19523          	sh	a4,-1974(gp) # 20000282 <SaveTState>
     fca:	8381a783          	lw	a5,-1992(gp) # 20000270 <pInformation>
     fce:	fe842703          	lw	a4,-24(s0)
     fd2:	0ff77713          	andi	a4,a4,255
     fd6:	a798                	sb	a4,8(a5)
     fd8:	0001                	nop
     fda:	40f2                	lw	ra,28(sp)
     fdc:	4462                	lw	s0,24(sp)
     fde:	6105                	addi	sp,sp,32
     fe0:	8082                	ret

00000fe2 <Data_Setup0>:
     fe2:	7139                	addi	sp,sp,-64
     fe4:	de06                	sw	ra,60(sp)
     fe6:	dc22                	sw	s0,56(sp)
     fe8:	0080                	addi	s0,sp,64
     fea:	8381a783          	lw	a5,-1992(gp) # 20000270 <pInformation>
     fee:	339c                	lbu	a5,1(a5)
     ff0:	fef42023          	sw	a5,-32(s0)
     ff4:	fe042623          	sw	zero,-20(s0)
     ff8:	fc042e23          	sw	zero,-36(s0)
     ffc:	fe042703          	lw	a4,-32(s0)
    1000:	4799                	li	a5,6
    1002:	04f71f63          	bne	a4,a5,1060 <Data_Setup0+0x7e>
    1006:	8381a783          	lw	a5,-1992(gp) # 20000270 <pInformation>
    100a:	239c                	lbu	a5,0(a5)
    100c:	07f7f793          	andi	a5,a5,127
    1010:	20079563          	bnez	a5,121a <Data_Setup0+0x238>
    1014:	8381a783          	lw	a5,-1992(gp) # 20000270 <pInformation>
    1018:	23bc                	lbu	a5,2(a5)
    101a:	fcf40da3          	sb	a5,-37(s0)
    101e:	fdb44703          	lbu	a4,-37(s0)
    1022:	4785                	li	a5,1
    1024:	00f71863          	bne	a4,a5,1034 <Data_Setup0+0x52>
    1028:	83c1a783          	lw	a5,-1988(gp) # 20000274 <pProperty>
    102c:	4fdc                	lw	a5,28(a5)
    102e:	fef42623          	sw	a5,-20(s0)
    1032:	a2e5                	j	121a <Data_Setup0+0x238>
    1034:	fdb44703          	lbu	a4,-37(s0)
    1038:	4789                	li	a5,2
    103a:	00f71863          	bne	a4,a5,104a <Data_Setup0+0x68>
    103e:	83c1a783          	lw	a5,-1988(gp) # 20000274 <pProperty>
    1042:	539c                	lw	a5,32(a5)
    1044:	fef42623          	sw	a5,-20(s0)
    1048:	aac9                	j	121a <Data_Setup0+0x238>
    104a:	fdb44703          	lbu	a4,-37(s0)
    104e:	478d                	li	a5,3
    1050:	1cf71563          	bne	a4,a5,121a <Data_Setup0+0x238>
    1054:	83c1a783          	lw	a5,-1988(gp) # 20000274 <pProperty>
    1058:	53dc                	lw	a5,36(a5)
    105a:	fef42623          	sw	a5,-20(s0)
    105e:	aa75                	j	121a <Data_Setup0+0x238>
    1060:	fe042783          	lw	a5,-32(s0)
    1064:	12079763          	bnez	a5,1192 <Data_Setup0+0x1b0>
    1068:	8381a783          	lw	a5,-1992(gp) # 20000270 <pInformation>
    106c:	23be                	lhu	a5,2(a5)
    106e:	12079263          	bnez	a5,1192 <Data_Setup0+0x1b0>
    1072:	8381a783          	lw	a5,-1992(gp) # 20000270 <pInformation>
    1076:	23fa                	lhu	a4,6(a5)
    1078:	4789                	li	a5,2
    107a:	10f71c63          	bne	a4,a5,1192 <Data_Setup0+0x1b0>
    107e:	8381a783          	lw	a5,-1992(gp) # 20000270 <pInformation>
    1082:	23dc                	lbu	a5,4(a5)
    1084:	10079763          	bnez	a5,1192 <Data_Setup0+0x1b0>
    1088:	8381a783          	lw	a5,-1992(gp) # 20000270 <pInformation>
    108c:	239c                	lbu	a5,0(a5)
    108e:	07f7f793          	andi	a5,a5,127
    1092:	ef81                	bnez	a5,10aa <Data_Setup0+0xc8>
    1094:	8381a783          	lw	a5,-1992(gp) # 20000270 <pInformation>
    1098:	23de                	lhu	a5,4(a5)
    109a:	eb81                	bnez	a5,10aa <Data_Setup0+0xc8>
    109c:	000007b7          	lui	a5,0x0
    10a0:	47e78793          	addi	a5,a5,1150 # 47e <Standard_GetStatus>
    10a4:	fef42623          	sw	a5,-20(s0)
    10a8:	aa85                	j	1218 <Data_Setup0+0x236>
    10aa:	8381a783          	lw	a5,-1992(gp) # 20000270 <pInformation>
    10ae:	239c                	lbu	a5,0(a5)
    10b0:	07f7f713          	andi	a4,a5,127
    10b4:	4785                	li	a5,1
    10b6:	02f71a63          	bne	a4,a5,10ea <Data_Setup0+0x108>
    10ba:	83c1a783          	lw	a5,-1988(gp) # 20000274 <pProperty>
    10be:	4f98                	lw	a4,24(a5)
    10c0:	8381a783          	lw	a5,-1992(gp) # 20000270 <pInformation>
    10c4:	33dc                	lbu	a5,5(a5)
    10c6:	4581                	li	a1,0
    10c8:	853e                	mv	a0,a5
    10ca:	9702                	jalr	a4
    10cc:	87aa                	mv	a5,a0
    10ce:	14079563          	bnez	a5,1218 <Data_Setup0+0x236>
    10d2:	8381a783          	lw	a5,-1992(gp) # 20000270 <pInformation>
    10d6:	27bc                	lbu	a5,10(a5)
    10d8:	14078063          	beqz	a5,1218 <Data_Setup0+0x236>
    10dc:	000007b7          	lui	a5,0x0
    10e0:	47e78793          	addi	a5,a5,1150 # 47e <Standard_GetStatus>
    10e4:	fef42623          	sw	a5,-20(s0)
    10e8:	aa05                	j	1218 <Data_Setup0+0x236>
    10ea:	8381a783          	lw	a5,-1992(gp) # 20000270 <pInformation>
    10ee:	239c                	lbu	a5,0(a5)
    10f0:	07f7f713          	andi	a4,a5,127
    10f4:	4789                	li	a5,2
    10f6:	12f71163          	bne	a4,a5,1218 <Data_Setup0+0x236>
    10fa:	8381a783          	lw	a5,-1992(gp) # 20000270 <pInformation>
    10fe:	33dc                	lbu	a5,5(a5)
    1100:	8bbd                	andi	a5,a5,15
    1102:	fcf42a23          	sw	a5,-44(s0)
    1106:	8381a783          	lw	a5,-1992(gp) # 20000270 <pInformation>
    110a:	33dc                	lbu	a5,5(a5)
    110c:	0707f793          	andi	a5,a5,112
    1110:	fcf42823          	sw	a5,-48(s0)
    1114:	8381a783          	lw	a5,-1992(gp) # 20000270 <pInformation>
    1118:	33dc                	lbu	a5,5(a5)
    111a:	07e2                	slli	a5,a5,0x18
    111c:	87e1                	srai	a5,a5,0x18
    111e:	0207d363          	bgez	a5,1144 <Data_Setup0+0x162>
    1122:	fd442783          	lw	a5,-44(s0)
    1126:	00279713          	slli	a4,a5,0x2
    112a:	400067b7          	lui	a5,0x40006
    112e:	c0078793          	addi	a5,a5,-1024 # 40005c00 <_eusrstack+0x20003400>
    1132:	97ba                	add	a5,a5,a4
    1134:	439c                	lw	a5,0(a5)
    1136:	07c2                	slli	a5,a5,0x10
    1138:	83c1                	srli	a5,a5,0x10
    113a:	0307f793          	andi	a5,a5,48
    113e:	fef42223          	sw	a5,-28(s0)
    1142:	a015                	j	1166 <Data_Setup0+0x184>
    1144:	fd442783          	lw	a5,-44(s0)
    1148:	00279713          	slli	a4,a5,0x2
    114c:	400067b7          	lui	a5,0x40006
    1150:	c0078793          	addi	a5,a5,-1024 # 40005c00 <_eusrstack+0x20003400>
    1154:	97ba                	add	a5,a5,a4
    1156:	439c                	lw	a5,0(a5)
    1158:	07c2                	slli	a5,a5,0x10
    115a:	83c1                	srli	a5,a5,0x10
    115c:	873e                	mv	a4,a5
    115e:	678d                	lui	a5,0x3
    1160:	8ff9                	and	a5,a5,a4
    1162:	fef42223          	sw	a5,-28(s0)
    1166:	200007b7          	lui	a5,0x20000
    116a:	2387c783          	lbu	a5,568(a5) # 20000238 <Device_Table>
    116e:	873e                	mv	a4,a5
    1170:	fd442783          	lw	a5,-44(s0)
    1174:	0ae7f263          	bgeu	a5,a4,1218 <Data_Setup0+0x236>
    1178:	fd042783          	lw	a5,-48(s0)
    117c:	efd1                	bnez	a5,1218 <Data_Setup0+0x236>
    117e:	fe442783          	lw	a5,-28(s0)
    1182:	cbd9                	beqz	a5,1218 <Data_Setup0+0x236>
    1184:	000007b7          	lui	a5,0x0
    1188:	47e78793          	addi	a5,a5,1150 # 47e <Standard_GetStatus>
    118c:	fef42623          	sw	a5,-20(s0)
    1190:	a061                	j	1218 <Data_Setup0+0x236>
    1192:	fe042703          	lw	a4,-32(s0)
    1196:	47a1                	li	a5,8
    1198:	00f71f63          	bne	a4,a5,11b6 <Data_Setup0+0x1d4>
    119c:	8381a783          	lw	a5,-1992(gp) # 20000270 <pInformation>
    11a0:	239c                	lbu	a5,0(a5)
    11a2:	07f7f793          	andi	a5,a5,127
    11a6:	ebb5                	bnez	a5,121a <Data_Setup0+0x238>
    11a8:	000007b7          	lui	a5,0x0
    11ac:	34278793          	addi	a5,a5,834 # 342 <Standard_GetConfiguration>
    11b0:	fef42623          	sw	a5,-20(s0)
    11b4:	a09d                	j	121a <Data_Setup0+0x238>
    11b6:	fe042703          	lw	a4,-32(s0)
    11ba:	47a9                	li	a5,10
    11bc:	04f71f63          	bne	a4,a5,121a <Data_Setup0+0x238>
    11c0:	8381a783          	lw	a5,-1992(gp) # 20000270 <pInformation>
    11c4:	239c                	lbu	a5,0(a5)
    11c6:	07f7f713          	andi	a4,a5,127
    11ca:	4785                	li	a5,1
    11cc:	04f71763          	bne	a4,a5,121a <Data_Setup0+0x238>
    11d0:	8381a783          	lw	a5,-1992(gp) # 20000270 <pInformation>
    11d4:	27bc                	lbu	a5,10(a5)
    11d6:	c3b1                	beqz	a5,121a <Data_Setup0+0x238>
    11d8:	8381a783          	lw	a5,-1992(gp) # 20000270 <pInformation>
    11dc:	23be                	lhu	a5,2(a5)
    11de:	ef95                	bnez	a5,121a <Data_Setup0+0x238>
    11e0:	8381a783          	lw	a5,-1992(gp) # 20000270 <pInformation>
    11e4:	23dc                	lbu	a5,4(a5)
    11e6:	eb95                	bnez	a5,121a <Data_Setup0+0x238>
    11e8:	8381a783          	lw	a5,-1992(gp) # 20000270 <pInformation>
    11ec:	23fa                	lhu	a4,6(a5)
    11ee:	4785                	li	a5,1
    11f0:	02f71563          	bne	a4,a5,121a <Data_Setup0+0x238>
    11f4:	83c1a783          	lw	a5,-1988(gp) # 20000274 <pProperty>
    11f8:	4f98                	lw	a4,24(a5)
    11fa:	8381a783          	lw	a5,-1992(gp) # 20000270 <pInformation>
    11fe:	33dc                	lbu	a5,5(a5)
    1200:	4581                	li	a1,0
    1202:	853e                	mv	a0,a5
    1204:	9702                	jalr	a4
    1206:	87aa                	mv	a5,a0
    1208:	eb89                	bnez	a5,121a <Data_Setup0+0x238>
    120a:	000007b7          	lui	a5,0x0
    120e:	3ca78793          	addi	a5,a5,970 # 3ca <Standard_GetInterface>
    1212:	fef42623          	sw	a5,-20(s0)
    1216:	a011                	j	121a <Data_Setup0+0x238>
    1218:	0001                	nop
    121a:	fec42783          	lw	a5,-20(s0)
    121e:	c785                	beqz	a5,1246 <Data_Setup0+0x264>
    1220:	8381a783          	lw	a5,-1992(gp) # 20000270 <pInformation>
    1224:	fdc42703          	lw	a4,-36(s0)
    1228:	0742                	slli	a4,a4,0x10
    122a:	8341                	srli	a4,a4,0x10
    122c:	abba                	sh	a4,18(a5)
    122e:	8381a783          	lw	a5,-1992(gp) # 20000270 <pInformation>
    1232:	fec42703          	lw	a4,-20(s0)
    1236:	cf98                	sw	a4,24(a5)
    1238:	fec42783          	lw	a5,-20(s0)
    123c:	4501                	li	a0,0
    123e:	9782                	jalr	a5
    1240:	fe042423          	sw	zero,-24(s0)
    1244:	a02d                	j	126e <Data_Setup0+0x28c>
    1246:	83c1a783          	lw	a5,-1988(gp) # 20000274 <pProperty>
    124a:	4b98                	lw	a4,16(a5)
    124c:	8381a783          	lw	a5,-1992(gp) # 20000270 <pInformation>
    1250:	339c                	lbu	a5,1(a5)
    1252:	853e                	mv	a0,a5
    1254:	9702                	jalr	a4
    1256:	fea42423          	sw	a0,-24(s0)
    125a:	fe842703          	lw	a4,-24(s0)
    125e:	478d                	li	a5,3
    1260:	00f71763          	bne	a4,a5,126e <Data_Setup0+0x28c>
    1264:	8381a783          	lw	a5,-1992(gp) # 20000270 <pInformation>
    1268:	4725                	li	a4,9
    126a:	a798                	sb	a4,8(a5)
    126c:	a8f9                	j	134a <Data_Setup0+0x368>
    126e:	8381a783          	lw	a5,-1992(gp) # 20000270 <pInformation>
    1272:	2b9a                	lhu	a4,16(a5)
    1274:	67c1                	lui	a5,0x10
    1276:	17fd                	addi	a5,a5,-1
    1278:	00f71763          	bne	a4,a5,1286 <Data_Setup0+0x2a4>
    127c:	8381a783          	lw	a5,-1992(gp) # 20000270 <pInformation>
    1280:	4725                	li	a4,9
    1282:	a798                	sb	a4,8(a5)
    1284:	a0d9                	j	134a <Data_Setup0+0x368>
    1286:	fe842703          	lw	a4,-24(s0)
    128a:	4789                	li	a5,2
    128c:	00f70663          	beq	a4,a5,1298 <Data_Setup0+0x2b6>
    1290:	8381a783          	lw	a5,-1992(gp) # 20000270 <pInformation>
    1294:	2b9e                	lhu	a5,16(a5)
    1296:	e791                	bnez	a5,12a2 <Data_Setup0+0x2c0>
    1298:	8381a783          	lw	a5,-1992(gp) # 20000270 <pInformation>
    129c:	4721                	li	a4,8
    129e:	a798                	sb	a4,8(a5)
    12a0:	a06d                	j	134a <Data_Setup0+0x368>
    12a2:	8381a783          	lw	a5,-1992(gp) # 20000270 <pInformation>
    12a6:	239c                	lbu	a5,0(a5)
    12a8:	07e2                	slli	a5,a5,0x18
    12aa:	87e1                	srai	a5,a5,0x18
    12ac:	0807d763          	bgez	a5,133a <Data_Setup0+0x358>
    12b0:	8381a783          	lw	a5,-1992(gp) # 20000270 <pInformation>
    12b4:	23fe                	lhu	a5,6(a5)
    12b6:	fcf42623          	sw	a5,-52(s0)
    12ba:	8381a783          	lw	a5,-1992(gp) # 20000270 <pInformation>
    12be:	2b9e                	lhu	a5,16(a5)
    12c0:	873e                	mv	a4,a5
    12c2:	fcc42783          	lw	a5,-52(s0)
    12c6:	00e7fa63          	bgeu	a5,a4,12da <Data_Setup0+0x2f8>
    12ca:	fcc42703          	lw	a4,-52(s0)
    12ce:	8381a783          	lw	a5,-1992(gp) # 20000270 <pInformation>
    12d2:	0742                	slli	a4,a4,0x10
    12d4:	8341                	srli	a4,a4,0x10
    12d6:	ab9a                	sh	a4,16(a5)
    12d8:	a0a9                	j	1322 <Data_Setup0+0x340>
    12da:	8381a783          	lw	a5,-1992(gp) # 20000270 <pInformation>
    12de:	2b9a                	lhu	a4,16(a5)
    12e0:	8381a783          	lw	a5,-1992(gp) # 20000270 <pInformation>
    12e4:	23fe                	lhu	a5,6(a5)
    12e6:	02f77e63          	bgeu	a4,a5,1322 <Data_Setup0+0x340>
    12ea:	8381a783          	lw	a5,-1992(gp) # 20000270 <pInformation>
    12ee:	2b9a                	lhu	a4,16(a5)
    12f0:	83c1a783          	lw	a5,-1988(gp) # 20000274 <pProperty>
    12f4:	02c7c783          	lbu	a5,44(a5) # 1002c <_data_lma+0xb894>
    12f8:	07c2                	slli	a5,a5,0x10
    12fa:	83c1                	srli	a5,a5,0x10
    12fc:	00f77563          	bgeu	a4,a5,1306 <Data_Setup0+0x324>
    1300:	82018923          	sb	zero,-1998(gp) # 2000026a <Data_Mul_MaxPacketSize>
    1304:	a839                	j	1322 <Data_Setup0+0x340>
    1306:	8381a783          	lw	a5,-1992(gp) # 20000270 <pInformation>
    130a:	2b9e                	lhu	a5,16(a5)
    130c:	873e                	mv	a4,a5
    130e:	83c1a783          	lw	a5,-1988(gp) # 20000274 <pProperty>
    1312:	02c7c783          	lbu	a5,44(a5)
    1316:	02f767b3          	rem	a5,a4,a5
    131a:	e781                	bnez	a5,1322 <Data_Setup0+0x340>
    131c:	4705                	li	a4,1
    131e:	82e18923          	sb	a4,-1998(gp) # 2000026a <Data_Mul_MaxPacketSize>
    1322:	83c1a783          	lw	a5,-1988(gp) # 20000274 <pProperty>
    1326:	02c7c703          	lbu	a4,44(a5)
    132a:	8381a783          	lw	a5,-1992(gp) # 20000270 <pInformation>
    132e:	0742                	slli	a4,a4,0x10
    1330:	8341                	srli	a4,a4,0x10
    1332:	abda                	sh	a4,20(a5)
    1334:	99bff0ef          	jal	ra,cce <DataStageIn>
    1338:	a809                	j	134a <Data_Setup0+0x368>
    133a:	8381a783          	lw	a5,-1992(gp) # 20000270 <pInformation>
    133e:	470d                	li	a4,3
    1340:	a798                	sb	a4,8(a5)
    1342:	670d                	lui	a4,0x3
    1344:	84e19423          	sh	a4,-1976(gp) # 20000280 <SaveRState>
    1348:	0001                	nop
    134a:	50f2                	lw	ra,60(sp)
    134c:	5462                	lw	s0,56(sp)
    134e:	6121                	addi	sp,sp,64
    1350:	8082                	ret

00001352 <Setup0_Process>:
    1352:	1101                	addi	sp,sp,-32
    1354:	ce06                	sw	ra,28(sp)
    1356:	cc22                	sw	s0,24(sp)
    1358:	ca26                	sw	s1,20(sp)
    135a:	1000                	addi	s0,sp,32
    135c:	4785                	li	a5,1
    135e:	fef41723          	sh	a5,-18(s0)
    1362:	400067b7          	lui	a5,0x40006
    1366:	c5078793          	addi	a5,a5,-944 # 40005c50 <_eusrstack+0x20003450>
    136a:	439c                	lw	a5,0(a5)
    136c:	07c2                	slli	a5,a5,0x10
    136e:	83c1                	srli	a5,a5,0x10
    1370:	873e                	mv	a4,a5
    1372:	200037b7          	lui	a5,0x20003
    1376:	0791                	addi	a5,a5,4
    1378:	97ba                	add	a5,a5,a4
    137a:	0786                	slli	a5,a5,0x1
    137c:	439c                	lw	a5,0(a5)
    137e:	07c2                	slli	a5,a5,0x10
    1380:	83c1                	srli	a5,a5,0x10
    1382:	0786                	slli	a5,a5,0x1
    1384:	873e                	mv	a4,a5
    1386:	400067b7          	lui	a5,0x40006
    138a:	97ba                	add	a5,a5,a4
    138c:	fef42423          	sw	a5,-24(s0)
    1390:	8381a783          	lw	a5,-1992(gp) # 20000270 <pInformation>
    1394:	2798                	lbu	a4,8(a5)
    1396:	47a5                	li	a5,9
    1398:	0af70063          	beq	a4,a5,1438 <Setup0_Process+0xe6>
    139c:	fe842783          	lw	a5,-24(s0)
    13a0:	00178713          	addi	a4,a5,1 # 40006001 <_eusrstack+0x20003801>
    13a4:	fee42423          	sw	a4,-24(s0)
    13a8:	8381a703          	lw	a4,-1992(gp) # 20000270 <pInformation>
    13ac:	239c                	lbu	a5,0(a5)
    13ae:	a31c                	sb	a5,0(a4)
    13b0:	fe842783          	lw	a5,-24(s0)
    13b4:	00178713          	addi	a4,a5,1
    13b8:	fee42423          	sw	a4,-24(s0)
    13bc:	8381a703          	lw	a4,-1992(gp) # 20000270 <pInformation>
    13c0:	239c                	lbu	a5,0(a5)
    13c2:	b31c                	sb	a5,1(a4)
    13c4:	fe842703          	lw	a4,-24(s0)
    13c8:	fee45783          	lhu	a5,-18(s0)
    13cc:	0786                	slli	a5,a5,0x1
    13ce:	97ba                	add	a5,a5,a4
    13d0:	fef42423          	sw	a5,-24(s0)
    13d4:	fe842783          	lw	a5,-24(s0)
    13d8:	00278713          	addi	a4,a5,2
    13dc:	fee42423          	sw	a4,-24(s0)
    13e0:	239a                	lhu	a4,0(a5)
    13e2:	8381a483          	lw	s1,-1992(gp) # 20000270 <pInformation>
    13e6:	853a                	mv	a0,a4
    13e8:	232020ef          	jal	ra,361a <ByteSwap>
    13ec:	87aa                	mv	a5,a0
    13ee:	a0be                	sh	a5,2(s1)
    13f0:	fe842703          	lw	a4,-24(s0)
    13f4:	fee45783          	lhu	a5,-18(s0)
    13f8:	0786                	slli	a5,a5,0x1
    13fa:	97ba                	add	a5,a5,a4
    13fc:	fef42423          	sw	a5,-24(s0)
    1400:	fe842783          	lw	a5,-24(s0)
    1404:	00278713          	addi	a4,a5,2
    1408:	fee42423          	sw	a4,-24(s0)
    140c:	239a                	lhu	a4,0(a5)
    140e:	8381a483          	lw	s1,-1992(gp) # 20000270 <pInformation>
    1412:	853a                	mv	a0,a4
    1414:	206020ef          	jal	ra,361a <ByteSwap>
    1418:	87aa                	mv	a5,a0
    141a:	a0de                	sh	a5,4(s1)
    141c:	fe842703          	lw	a4,-24(s0)
    1420:	fee45783          	lhu	a5,-18(s0)
    1424:	0786                	slli	a5,a5,0x1
    1426:	97ba                	add	a5,a5,a4
    1428:	fef42423          	sw	a5,-24(s0)
    142c:	fe842703          	lw	a4,-24(s0)
    1430:	8381a783          	lw	a5,-1992(gp) # 20000270 <pInformation>
    1434:	231a                	lhu	a4,0(a4)
    1436:	a3fa                	sh	a4,6(a5)
    1438:	8381a783          	lw	a5,-1992(gp) # 20000270 <pInformation>
    143c:	4705                	li	a4,1
    143e:	a798                	sb	a4,8(a5)
    1440:	8381a783          	lw	a5,-1992(gp) # 20000270 <pInformation>
    1444:	23fe                	lhu	a5,6(a5)
    1446:	e781                	bnez	a5,144e <Setup0_Process+0xfc>
    1448:	9dbff0ef          	jal	ra,e22 <NoData_Setup0>
    144c:	a011                	j	1450 <Setup0_Process+0xfe>
    144e:	3e51                	jal	fe2 <Data_Setup0>
    1450:	2a2d                	jal	158a <Post0_Process>
    1452:	87aa                	mv	a5,a0
    1454:	853e                	mv	a0,a5
    1456:	40f2                	lw	ra,28(sp)
    1458:	4462                	lw	s0,24(sp)
    145a:	44d2                	lw	s1,20(sp)
    145c:	6105                	addi	sp,sp,32
    145e:	8082                	ret

00001460 <In0_Process>:
    1460:	1101                	addi	sp,sp,-32
    1462:	ce06                	sw	ra,28(sp)
    1464:	cc22                	sw	s0,24(sp)
    1466:	1000                	addi	s0,sp,32
    1468:	8381a783          	lw	a5,-1992(gp) # 20000270 <pInformation>
    146c:	279c                	lbu	a5,8(a5)
    146e:	fef42623          	sw	a5,-20(s0)
    1472:	fec42703          	lw	a4,-20(s0)
    1476:	4789                	li	a5,2
    1478:	00f70763          	beq	a4,a5,1486 <In0_Process+0x26>
    147c:	fec42703          	lw	a4,-20(s0)
    1480:	4791                	li	a5,4
    1482:	00f71a63          	bne	a4,a5,1496 <In0_Process+0x36>
    1486:	849ff0ef          	jal	ra,cce <DataStageIn>
    148a:	8381a783          	lw	a5,-1992(gp) # 20000270 <pInformation>
    148e:	279c                	lbu	a5,8(a5)
    1490:	fef42623          	sw	a5,-20(s0)
    1494:	a0b1                	j	14e0 <In0_Process+0x80>
    1496:	fec42703          	lw	a4,-20(s0)
    149a:	4799                	li	a5,6
    149c:	02f71f63          	bne	a4,a5,14da <In0_Process+0x7a>
    14a0:	8381a783          	lw	a5,-1992(gp) # 20000270 <pInformation>
    14a4:	3398                	lbu	a4,1(a5)
    14a6:	4795                	li	a5,5
    14a8:	02f71163          	bne	a4,a5,14ca <In0_Process+0x6a>
    14ac:	8381a783          	lw	a5,-1992(gp) # 20000270 <pInformation>
    14b0:	239c                	lbu	a5,0(a5)
    14b2:	07f7f793          	andi	a5,a5,127
    14b6:	eb91                	bnez	a5,14ca <In0_Process+0x6a>
    14b8:	8381a783          	lw	a5,-1992(gp) # 20000270 <pInformation>
    14bc:	33bc                	lbu	a5,3(a5)
    14be:	853e                	mv	a0,a5
    14c0:	2a31                	jal	15dc <SetDeviceAddress>
    14c2:	8441a783          	lw	a5,-1980(gp) # 2000027c <pUser_Standard_Requests>
    14c6:	539c                	lw	a5,32(a5)
    14c8:	9782                	jalr	a5
    14ca:	83c1a783          	lw	a5,-1988(gp) # 20000274 <pProperty>
    14ce:	479c                	lw	a5,8(a5)
    14d0:	9782                	jalr	a5
    14d2:	47a1                	li	a5,8
    14d4:	fef42623          	sw	a5,-20(s0)
    14d8:	a021                	j	14e0 <In0_Process+0x80>
    14da:	47a1                	li	a5,8
    14dc:	fef42623          	sw	a5,-20(s0)
    14e0:	8381a783          	lw	a5,-1992(gp) # 20000270 <pInformation>
    14e4:	fec42703          	lw	a4,-20(s0)
    14e8:	0ff77713          	andi	a4,a4,255
    14ec:	a798                	sb	a4,8(a5)
    14ee:	2871                	jal	158a <Post0_Process>
    14f0:	87aa                	mv	a5,a0
    14f2:	853e                	mv	a0,a5
    14f4:	40f2                	lw	ra,28(sp)
    14f6:	4462                	lw	s0,24(sp)
    14f8:	6105                	addi	sp,sp,32
    14fa:	8082                	ret

000014fc <Out0_Process>:
    14fc:	1101                	addi	sp,sp,-32
    14fe:	ce06                	sw	ra,28(sp)
    1500:	cc22                	sw	s0,24(sp)
    1502:	1000                	addi	s0,sp,32
    1504:	8381a783          	lw	a5,-1992(gp) # 20000270 <pInformation>
    1508:	279c                	lbu	a5,8(a5)
    150a:	fef42623          	sw	a5,-20(s0)
    150e:	fec42703          	lw	a4,-20(s0)
    1512:	4789                	li	a5,2
    1514:	00f70763          	beq	a4,a5,1522 <Out0_Process+0x26>
    1518:	fec42703          	lw	a4,-20(s0)
    151c:	4791                	li	a5,4
    151e:	00f71663          	bne	a4,a5,152a <Out0_Process+0x2e>
    1522:	47a1                	li	a5,8
    1524:	fef42623          	sw	a5,-20(s0)
    1528:	a099                	j	156e <Out0_Process+0x72>
    152a:	fec42703          	lw	a4,-20(s0)
    152e:	478d                	li	a5,3
    1530:	00f70763          	beq	a4,a5,153e <Out0_Process+0x42>
    1534:	fec42703          	lw	a4,-20(s0)
    1538:	4795                	li	a5,5
    153a:	00f71a63          	bne	a4,a5,154e <Out0_Process+0x52>
    153e:	e50ff0ef          	jal	ra,b8e <DataStageOut>
    1542:	8381a783          	lw	a5,-1992(gp) # 20000270 <pInformation>
    1546:	279c                	lbu	a5,8(a5)
    1548:	fef42623          	sw	a5,-20(s0)
    154c:	a00d                	j	156e <Out0_Process+0x72>
    154e:	fec42703          	lw	a4,-20(s0)
    1552:	479d                	li	a5,7
    1554:	00f71a63          	bne	a4,a5,1568 <Out0_Process+0x6c>
    1558:	83c1a783          	lw	a5,-1988(gp) # 20000274 <pProperty>
    155c:	47dc                	lw	a5,12(a5)
    155e:	9782                	jalr	a5
    1560:	47a1                	li	a5,8
    1562:	fef42623          	sw	a5,-20(s0)
    1566:	a021                	j	156e <Out0_Process+0x72>
    1568:	47a1                	li	a5,8
    156a:	fef42623          	sw	a5,-20(s0)
    156e:	8381a783          	lw	a5,-1992(gp) # 20000270 <pInformation>
    1572:	fec42703          	lw	a4,-20(s0)
    1576:	0ff77713          	andi	a4,a4,255
    157a:	a798                	sb	a4,8(a5)
    157c:	2039                	jal	158a <Post0_Process>
    157e:	87aa                	mv	a5,a0
    1580:	853e                	mv	a0,a5
    1582:	40f2                	lw	ra,28(sp)
    1584:	4462                	lw	s0,24(sp)
    1586:	6105                	addi	sp,sp,32
    1588:	8082                	ret

0000158a <Post0_Process>:
    158a:	1141                	addi	sp,sp,-16
    158c:	c606                	sw	ra,12(sp)
    158e:	c422                	sw	s0,8(sp)
    1590:	0800                	addi	s0,sp,16
    1592:	200007b7          	lui	a5,0x20000
    1596:	1c078793          	addi	a5,a5,448 # 200001c0 <Device_Property>
    159a:	02c7c783          	lbu	a5,44(a5)
    159e:	07c2                	slli	a5,a5,0x10
    15a0:	83c1                	srli	a5,a5,0x10
    15a2:	85be                	mv	a1,a5
    15a4:	4501                	li	a0,0
    15a6:	6dd010ef          	jal	ra,3482 <SetEPRxCount>
    15aa:	8381a783          	lw	a5,-1992(gp) # 20000270 <pInformation>
    15ae:	2798                	lbu	a4,8(a5)
    15b0:	47a1                	li	a5,8
    15b2:	00f71863          	bne	a4,a5,15c2 <Post0_Process+0x38>
    15b6:	6705                	lui	a4,0x1
    15b8:	84e19423          	sh	a4,-1976(gp) # 20000280 <SaveRState>
    15bc:	4741                	li	a4,16
    15be:	84e19523          	sh	a4,-1974(gp) # 20000282 <SaveTState>
    15c2:	8381a783          	lw	a5,-1992(gp) # 20000270 <pInformation>
    15c6:	279c                	lbu	a5,8(a5)
    15c8:	17dd                	addi	a5,a5,-9
    15ca:	0017b793          	seqz	a5,a5
    15ce:	0ff7f793          	andi	a5,a5,255
    15d2:	853e                	mv	a0,a5
    15d4:	40b2                	lw	ra,12(sp)
    15d6:	4422                	lw	s0,8(sp)
    15d8:	0141                	addi	sp,sp,16
    15da:	8082                	ret

000015dc <SetDeviceAddress>:
    15dc:	7179                	addi	sp,sp,-48
    15de:	d622                	sw	s0,44(sp)
    15e0:	1800                	addi	s0,sp,48
    15e2:	87aa                	mv	a5,a0
    15e4:	fcf40fa3          	sb	a5,-33(s0)
    15e8:	200007b7          	lui	a5,0x20000
    15ec:	2387c783          	lbu	a5,568(a5) # 20000238 <Device_Table>
    15f0:	fef42423          	sw	a5,-24(s0)
    15f4:	fe042623          	sw	zero,-20(s0)
    15f8:	a085                	j	1658 <SetDeviceAddress+0x7c>
    15fa:	fec42783          	lw	a5,-20(s0)
    15fe:	0ff7f793          	andi	a5,a5,255
    1602:	00279713          	slli	a4,a5,0x2
    1606:	400067b7          	lui	a5,0x40006
    160a:	c0078793          	addi	a5,a5,-1024 # 40005c00 <_eusrstack+0x20003400>
    160e:	97ba                	add	a5,a5,a4
    1610:	439c                	lw	a5,0(a5)
    1612:	07c2                	slli	a5,a5,0x10
    1614:	83c1                	srli	a5,a5,0x10
    1616:	873e                	mv	a4,a5
    1618:	6785                	lui	a5,0x1
    161a:	f0f78793          	addi	a5,a5,-241 # f0f <NoData_Setup0+0xed>
    161e:	8f7d                	and	a4,a4,a5
    1620:	67a1                	lui	a5,0x8
    1622:	08078793          	addi	a5,a5,128 # 8080 <_data_lma+0x38e8>
    1626:	8fd9                	or	a5,a5,a4
    1628:	fec42703          	lw	a4,-20(s0)
    162c:	0ff77713          	andi	a4,a4,255
    1630:	00e7e6b3          	or	a3,a5,a4
    1634:	fec42783          	lw	a5,-20(s0)
    1638:	0ff7f793          	andi	a5,a5,255
    163c:	00279713          	slli	a4,a5,0x2
    1640:	400067b7          	lui	a5,0x40006
    1644:	c0078793          	addi	a5,a5,-1024 # 40005c00 <_eusrstack+0x20003400>
    1648:	97ba                	add	a5,a5,a4
    164a:	8736                	mv	a4,a3
    164c:	c398                	sw	a4,0(a5)
    164e:	fec42783          	lw	a5,-20(s0)
    1652:	0785                	addi	a5,a5,1
    1654:	fef42623          	sw	a5,-20(s0)
    1658:	fec42703          	lw	a4,-20(s0)
    165c:	fe842783          	lw	a5,-24(s0)
    1660:	f8f76de3          	bltu	a4,a5,15fa <SetDeviceAddress+0x1e>
    1664:	fdf44783          	lbu	a5,-33(s0)
    1668:	f807e793          	ori	a5,a5,-128
    166c:	0ff7f713          	andi	a4,a5,255
    1670:	400067b7          	lui	a5,0x40006
    1674:	c4c78793          	addi	a5,a5,-948 # 40005c4c <_eusrstack+0x2000344c>
    1678:	c398                	sw	a4,0(a5)
    167a:	0001                	nop
    167c:	5432                	lw	s0,44(sp)
    167e:	6145                	addi	sp,sp,48
    1680:	8082                	ret

00001682 <NOP_Process>:
    1682:	1141                	addi	sp,sp,-16
    1684:	c622                	sw	s0,12(sp)
    1686:	0800                	addi	s0,sp,16
    1688:	0001                	nop
    168a:	4432                	lw	s0,12(sp)
    168c:	0141                	addi	sp,sp,16
    168e:	8082                	ret

00001690 <USB_String_data_init>:
    1690:	7179                	addi	sp,sp,-48
    1692:	d606                	sw	ra,44(sp)
    1694:	d422                	sw	s0,40(sp)
    1696:	1800                	addi	s0,sp,48
    1698:	fca42e23          	sw	a0,-36(s0)
    169c:	fcb42c23          	sw	a1,-40(s0)
    16a0:	87b2                	mv	a5,a2
    16a2:	fcf40ba3          	sb	a5,-41(s0)
    16a6:	fe040723          	sb	zero,-18(s0)
    16aa:	fdc42503          	lw	a0,-36(s0)
    16ae:	01a030ef          	jal	ra,46c8 <strlen>
    16b2:	87aa                	mv	a5,a0
    16b4:	fef40723          	sb	a5,-18(s0)
    16b8:	fee44783          	lbu	a5,-18(s0)
    16bc:	0785                	addi	a5,a5,1
    16be:	0ff7f793          	andi	a5,a5,255
    16c2:	0786                	slli	a5,a5,0x1
    16c4:	0ff7f713          	andi	a4,a5,255
    16c8:	fd842783          	lw	a5,-40(s0)
    16cc:	a398                	sb	a4,0(a5)
    16ce:	fd842783          	lw	a5,-40(s0)
    16d2:	0785                	addi	a5,a5,1
    16d4:	fd744703          	lbu	a4,-41(s0)
    16d8:	a398                	sb	a4,0(a5)
    16da:	fe0407a3          	sb	zero,-17(s0)
    16de:	a835                	j	171a <USB_String_data_init+0x8a>
    16e0:	fef44783          	lbu	a5,-17(s0)
    16e4:	fdc42703          	lw	a4,-36(s0)
    16e8:	973e                	add	a4,a4,a5
    16ea:	fef44783          	lbu	a5,-17(s0)
    16ee:	0785                	addi	a5,a5,1
    16f0:	0786                	slli	a5,a5,0x1
    16f2:	86be                	mv	a3,a5
    16f4:	fd842783          	lw	a5,-40(s0)
    16f8:	97b6                	add	a5,a5,a3
    16fa:	2318                	lbu	a4,0(a4)
    16fc:	a398                	sb	a4,0(a5)
    16fe:	fef44783          	lbu	a5,-17(s0)
    1702:	0786                	slli	a5,a5,0x1
    1704:	078d                	addi	a5,a5,3
    1706:	fd842703          	lw	a4,-40(s0)
    170a:	97ba                	add	a5,a5,a4
    170c:	00078023          	sb	zero,0(a5)
    1710:	fef44783          	lbu	a5,-17(s0)
    1714:	0785                	addi	a5,a5,1
    1716:	fef407a3          	sb	a5,-17(s0)
    171a:	fef44703          	lbu	a4,-17(s0)
    171e:	fee44783          	lbu	a5,-18(s0)
    1722:	faf76fe3          	bltu	a4,a5,16e0 <USB_String_data_init+0x50>
    1726:	fd842783          	lw	a5,-40(s0)
    172a:	239c                	lbu	a5,0(a5)
    172c:	853e                	mv	a0,a5
    172e:	50b2                	lw	ra,44(sp)
    1730:	5422                	lw	s0,40(sp)
    1732:	6145                	addi	sp,sp,48
    1734:	8082                	ret

00001736 <EP1_OUT_Callback>:
    1736:	1141                	addi	sp,sp,-16
    1738:	c606                	sw	ra,12(sp)
    173a:	c422                	sw	s0,8(sp)
    173c:	c226                	sw	s1,4(sp)
    173e:	c04a                	sw	s2,0(sp)
    1740:	0800                	addi	s0,sp,16
    1742:	8a01c783          	lbu	a5,-1888(gp) # 200002d8 <RingBuffer_Comm>
    1746:	0ff7f793          	andi	a5,a5,255
    174a:	00679713          	slli	a4,a5,0x6
    174e:	200007b7          	lui	a5,0x20000
    1752:	2ec78793          	addi	a5,a5,748 # 200002ec <Data_Buffer>
    1756:	00f704b3          	add	s1,a4,a5
    175a:	4505                	li	a0,1
    175c:	4a5010ef          	jal	ra,3400 <GetEPRxAddr>
    1760:	87aa                	mv	a5,a0
    1762:	893e                	mv	s2,a5
    1764:	4505                	li	a0,1
    1766:	671010ef          	jal	ra,35d6 <GetEPRxCount>
    176a:	87aa                	mv	a5,a0
    176c:	863e                	mv	a2,a5
    176e:	85ca                	mv	a1,s2
    1770:	8526                	mv	a0,s1
    1772:	3bd000ef          	jal	ra,232e <PMAToUserBufferCopy>
    1776:	8a01c783          	lbu	a5,-1888(gp) # 200002d8 <RingBuffer_Comm>
    177a:	0ff7f793          	andi	a5,a5,255
    177e:	873e                	mv	a4,a5
    1780:	8a018793          	addi	a5,gp,-1888 # 200002d8 <RingBuffer_Comm>
    1784:	97ba                	add	a5,a5,a4
    1786:	04000713          	li	a4,64
    178a:	b3b8                	sb	a4,3(a5)
    178c:	8a01c783          	lbu	a5,-1888(gp) # 200002d8 <RingBuffer_Comm>
    1790:	0ff7f793          	andi	a5,a5,255
    1794:	0785                	addi	a5,a5,1
    1796:	0ff7f713          	andi	a4,a5,255
    179a:	8ae18023          	sb	a4,-1888(gp) # 200002d8 <RingBuffer_Comm>
    179e:	8a01c783          	lbu	a5,-1888(gp) # 200002d8 <RingBuffer_Comm>
    17a2:	0ff7f713          	andi	a4,a5,255
    17a6:	47c1                	li	a5,16
    17a8:	00f71463          	bne	a4,a5,17b0 <EP1_OUT_Callback+0x7a>
    17ac:	8a018023          	sb	zero,-1888(gp) # 200002d8 <RingBuffer_Comm>
    17b0:	8a018793          	addi	a5,gp,-1888 # 200002d8 <RingBuffer_Comm>
    17b4:	23bc                	lbu	a5,2(a5)
    17b6:	0ff7f793          	andi	a5,a5,255
    17ba:	0785                	addi	a5,a5,1
    17bc:	0ff7f713          	andi	a4,a5,255
    17c0:	8a018793          	addi	a5,gp,-1888 # 200002d8 <RingBuffer_Comm>
    17c4:	a3b8                	sb	a4,2(a5)
    17c6:	8a018793          	addi	a5,gp,-1888 # 200002d8 <RingBuffer_Comm>
    17ca:	23bc                	lbu	a5,2(a5)
    17cc:	0ff7f713          	andi	a4,a5,255
    17d0:	47ad                	li	a5,11
    17d2:	00e7fb63          	bgeu	a5,a4,17e8 <EP1_OUT_Callback+0xb2>
    17d6:	6589                	lui	a1,0x2
    17d8:	4505                	li	a0,1
    17da:	057010ef          	jal	ra,3030 <SetEPRxStatus>
    17de:	8a018793          	addi	a5,gp,-1888 # 200002d8 <RingBuffer_Comm>
    17e2:	4705                	li	a4,1
    17e4:	bbb8                	sb	a4,19(a5)
    17e6:	a021                	j	17ee <EP1_OUT_Callback+0xb8>
    17e8:	4505                	li	a0,1
    17ea:	12f010ef          	jal	ra,3118 <SetEPRxValid>
    17ee:	0001                	nop
    17f0:	40b2                	lw	ra,12(sp)
    17f2:	4422                	lw	s0,8(sp)
    17f4:	4492                	lw	s1,4(sp)
    17f6:	4902                	lw	s2,0(sp)
    17f8:	0141                	addi	sp,sp,16
    17fa:	8082                	ret

000017fc <EP2_IN_Callback>:
    17fc:	1141                	addi	sp,sp,-16
    17fe:	c622                	sw	s0,12(sp)
    1800:	0800                	addi	s0,sp,16
    1802:	820189a3          	sb	zero,-1997(gp) # 2000026b <USBD_Endp2_Busy>
    1806:	0001                	nop
    1808:	4432                	lw	s0,12(sp)
    180a:	0141                	addi	sp,sp,16
    180c:	8082                	ret

0000180e <USBD_ENDPx_DataUp>:
    180e:	1101                	addi	sp,sp,-32
    1810:	ce06                	sw	ra,28(sp)
    1812:	cc22                	sw	s0,24(sp)
    1814:	1000                	addi	s0,sp,32
    1816:	87aa                	mv	a5,a0
    1818:	feb42423          	sw	a1,-24(s0)
    181c:	8732                	mv	a4,a2
    181e:	fef407a3          	sb	a5,-17(s0)
    1822:	87ba                	mv	a5,a4
    1824:	fef41623          	sh	a5,-20(s0)
    1828:	fef44703          	lbu	a4,-17(s0)
    182c:	4789                	li	a5,2
    182e:	02f71a63          	bne	a4,a5,1862 <USBD_ENDPx_DataUp+0x54>
    1832:	8331c783          	lbu	a5,-1997(gp) # 2000026b <USBD_Endp2_Busy>
    1836:	c399                	beqz	a5,183c <USBD_ENDPx_DataUp+0x2e>
    1838:	4785                	li	a5,1
    183a:	a02d                	j	1864 <USBD_ENDPx_DataUp+0x56>
    183c:	fec45783          	lhu	a5,-20(s0)
    1840:	863e                	mv	a2,a5
    1842:	fe842583          	lw	a1,-24(s0)
    1846:	08200513          	li	a0,130
    184a:	649010ef          	jal	ra,3692 <USB_SIL_Write>
    184e:	4705                	li	a4,1
    1850:	82e189a3          	sb	a4,-1997(gp) # 2000026b <USBD_Endp2_Busy>
    1854:	03000593          	li	a1,48
    1858:	4509                	li	a0,2
    185a:	6f2010ef          	jal	ra,2f4c <SetEPTxStatus>
    185e:	4781                	li	a5,0
    1860:	a011                	j	1864 <USBD_ENDPx_DataUp+0x56>
    1862:	4785                	li	a5,1
    1864:	853e                	mv	a0,a5
    1866:	40f2                	lw	ra,28(sp)
    1868:	4462                	lw	s0,24(sp)
    186a:	6105                	addi	sp,sp,32
    186c:	8082                	ret

0000186e <USB_Init>:
    186e:	1141                	addi	sp,sp,-16
    1870:	c606                	sw	ra,12(sp)
    1872:	c422                	sw	s0,8(sp)
    1874:	0800                	addi	s0,sp,16
    1876:	460d                	li	a2,3
    1878:	200007b7          	lui	a5,0x20000
    187c:	08078593          	addi	a1,a5,128 # 20000080 <USBD_StringVendor>
    1880:	200007b7          	lui	a5,0x20000
    1884:	00078513          	mv	a0,a5
    1888:	3521                	jal	1690 <USB_String_data_init>
    188a:	87aa                	mv	a5,a0
    188c:	01079713          	slli	a4,a5,0x10
    1890:	8341                	srli	a4,a4,0x10
    1892:	200007b7          	lui	a5,0x20000
    1896:	21478793          	addi	a5,a5,532 # 20000214 <String_Descriptor>
    189a:	a7da                	sh	a4,12(a5)
    189c:	460d                	li	a2,3
    189e:	200007b7          	lui	a5,0x20000
    18a2:	10478593          	addi	a1,a5,260 # 20000104 <USBD_StringProduct>
    18a6:	200007b7          	lui	a5,0x20000
    18aa:	04078513          	addi	a0,a5,64 # 20000040 <StringProduct>
    18ae:	33cd                	jal	1690 <USB_String_data_init>
    18b0:	87aa                	mv	a5,a0
    18b2:	01079713          	slli	a4,a5,0x10
    18b6:	8341                	srli	a4,a4,0x10
    18b8:	200007b7          	lui	a5,0x20000
    18bc:	21478793          	addi	a5,a5,532 # 20000214 <String_Descriptor>
    18c0:	abda                	sh	a4,20(a5)
    18c2:	88418713          	addi	a4,gp,-1916 # 200002bc <Device_Info>
    18c6:	82e1ac23          	sw	a4,-1992(gp) # 20000270 <pInformation>
    18ca:	8381a783          	lw	a5,-1992(gp) # 20000270 <pInformation>
    18ce:	4709                	li	a4,2
    18d0:	a798                	sb	a4,8(a5)
    18d2:	20000737          	lui	a4,0x20000
    18d6:	1c070713          	addi	a4,a4,448 # 200001c0 <Device_Property>
    18da:	82e1ae23          	sw	a4,-1988(gp) # 20000274 <pProperty>
    18de:	20000737          	lui	a4,0x20000
    18e2:	1f070713          	addi	a4,a4,496 # 200001f0 <User_Standard_Requests>
    18e6:	84e1a223          	sw	a4,-1980(gp) # 2000027c <pUser_Standard_Requests>
    18ea:	83c1a783          	lw	a5,-1988(gp) # 20000274 <pProperty>
    18ee:	439c                	lw	a5,0(a5)
    18f0:	9782                	jalr	a5
    18f2:	0001                	nop
    18f4:	40b2                	lw	ra,12(sp)
    18f6:	4422                	lw	s0,8(sp)
    18f8:	0141                	addi	sp,sp,16
    18fa:	8082                	ret

000018fc <CTR_LP>:
    18fc:	1101                	addi	sp,sp,-32
    18fe:	ce06                	sw	ra,28(sp)
    1900:	cc22                	sw	s0,24(sp)
    1902:	ca26                	sw	s1,20(sp)
    1904:	c84a                	sw	s2,16(sp)
    1906:	1000                	addi	s0,sp,32
    1908:	fe041723          	sh	zero,-18(s0)
    190c:	ad2d                	j	1f46 <CTR_LP+0x64a>
    190e:	84e1d783          	lhu	a5,-1970(gp) # 20000286 <wIstr>
    1912:	07c2                	slli	a5,a5,0x10
    1914:	83c1                	srli	a5,a5,0x10
    1916:	0ff7f793          	andi	a5,a5,255
    191a:	8bbd                	andi	a5,a5,15
    191c:	0ff7f713          	andi	a4,a5,255
    1920:	82e18a23          	sb	a4,-1996(gp) # 2000026c <EPindex>
    1924:	8341c783          	lbu	a5,-1996(gp) # 2000026c <EPindex>
    1928:	54079463          	bnez	a5,1e70 <CTR_LP+0x574>
    192c:	400067b7          	lui	a5,0x40006
    1930:	c0078793          	addi	a5,a5,-1024 # 40005c00 <_eusrstack+0x20003400>
    1934:	439c                	lw	a5,0(a5)
    1936:	01079713          	slli	a4,a5,0x10
    193a:	8341                	srli	a4,a4,0x10
    193c:	84e19423          	sh	a4,-1976(gp) # 20000280 <SaveRState>
    1940:	8481d783          	lhu	a5,-1976(gp) # 20000280 <SaveRState>
    1944:	07c2                	slli	a5,a5,0x10
    1946:	83c1                	srli	a5,a5,0x10
    1948:	0307f793          	andi	a5,a5,48
    194c:	01079713          	slli	a4,a5,0x10
    1950:	8341                	srli	a4,a4,0x10
    1952:	84e19523          	sh	a4,-1974(gp) # 20000282 <SaveTState>
    1956:	8481d783          	lhu	a5,-1976(gp) # 20000280 <SaveRState>
    195a:	01079713          	slli	a4,a5,0x10
    195e:	8341                	srli	a4,a4,0x10
    1960:	678d                	lui	a5,0x3
    1962:	8ff9                	and	a5,a5,a4
    1964:	01079713          	slli	a4,a5,0x10
    1968:	8341                	srli	a4,a4,0x10
    196a:	84e19423          	sh	a4,-1976(gp) # 20000280 <SaveRState>
    196e:	400067b7          	lui	a5,0x40006
    1972:	c0078793          	addi	a5,a5,-1024 # 40005c00 <_eusrstack+0x20003400>
    1976:	439c                	lw	a5,0(a5)
    1978:	07c2                	slli	a5,a5,0x10
    197a:	83c1                	srli	a5,a5,0x10
    197c:	873e                	mv	a4,a5
    197e:	67a5                	lui	a5,0x9
    1980:	fbf78793          	addi	a5,a5,-65 # 8fbf <_data_lma+0x4827>
    1984:	00f77933          	and	s2,a4,a5
    1988:	400067b7          	lui	a5,0x40006
    198c:	c0078793          	addi	a5,a5,-1024 # 40005c00 <_eusrstack+0x20003400>
    1990:	439c                	lw	a5,0(a5)
    1992:	07c2                	slli	a5,a5,0x10
    1994:	83c1                	srli	a5,a5,0x10
    1996:	873e                	mv	a4,a5
    1998:	67b1                	lui	a5,0xc
    199a:	f8f78793          	addi	a5,a5,-113 # bf8f <_data_lma+0x77f7>
    199e:	00f774b3          	and	s1,a4,a5
    19a2:	6789                	lui	a5,0x2
    19a4:	8cbd                	xor	s1,s1,a5
    19a6:	02094913          	xori	s2,s2,32
    19aa:	01091793          	slli	a5,s2,0x10
    19ae:	83c1                	srli	a5,a5,0x10
    19b0:	00f4e6b3          	or	a3,s1,a5
    19b4:	400067b7          	lui	a5,0x40006
    19b8:	c0078793          	addi	a5,a5,-1024 # 40005c00 <_eusrstack+0x20003400>
    19bc:	6721                	lui	a4,0x8
    19be:	08070713          	addi	a4,a4,128 # 8080 <_data_lma+0x38e8>
    19c2:	8f55                	or	a4,a4,a3
    19c4:	c398                	sw	a4,0(a5)
    19c6:	a005                	j	19e6 <CTR_LP+0xea>
    19c8:	01091713          	slli	a4,s2,0x10
    19cc:	8341                	srli	a4,a4,0x10
    19ce:	77e1                	lui	a5,0xffff8
    19d0:	08078793          	addi	a5,a5,128 # ffff8080 <_eusrstack+0xdfff5880>
    19d4:	8fd9                	or	a5,a5,a4
    19d6:	01079713          	slli	a4,a5,0x10
    19da:	8341                	srli	a4,a4,0x10
    19dc:	400067b7          	lui	a5,0x40006
    19e0:	c0078793          	addi	a5,a5,-1024 # 40005c00 <_eusrstack+0x20003400>
    19e4:	c398                	sw	a4,0(a5)
    19e6:	400067b7          	lui	a5,0x40006
    19ea:	c0078793          	addi	a5,a5,-1024 # 40005c00 <_eusrstack+0x20003400>
    19ee:	439c                	lw	a5,0(a5)
    19f0:	07c2                	slli	a5,a5,0x10
    19f2:	83c1                	srli	a5,a5,0x10
    19f4:	0307f713          	andi	a4,a5,48
    19f8:	02000793          	li	a5,32
    19fc:	fcf716e3          	bne	a4,a5,19c8 <CTR_LP+0xcc>
    1a00:	a005                	j	1a20 <CTR_LP+0x124>
    1a02:	01049713          	slli	a4,s1,0x10
    1a06:	8341                	srli	a4,a4,0x10
    1a08:	77e1                	lui	a5,0xffff8
    1a0a:	08078793          	addi	a5,a5,128 # ffff8080 <_eusrstack+0xdfff5880>
    1a0e:	8fd9                	or	a5,a5,a4
    1a10:	01079713          	slli	a4,a5,0x10
    1a14:	8341                	srli	a4,a4,0x10
    1a16:	400067b7          	lui	a5,0x40006
    1a1a:	c0078793          	addi	a5,a5,-1024 # 40005c00 <_eusrstack+0x20003400>
    1a1e:	c398                	sw	a4,0(a5)
    1a20:	400067b7          	lui	a5,0x40006
    1a24:	c0078793          	addi	a5,a5,-1024 # 40005c00 <_eusrstack+0x20003400>
    1a28:	439c                	lw	a5,0(a5)
    1a2a:	07c2                	slli	a5,a5,0x10
    1a2c:	83c1                	srli	a5,a5,0x10
    1a2e:	873e                	mv	a4,a5
    1a30:	678d                	lui	a5,0x3
    1a32:	8f7d                	and	a4,a4,a5
    1a34:	6789                	lui	a5,0x2
    1a36:	fcf716e3          	bne	a4,a5,1a02 <CTR_LP+0x106>
    1a3a:	84e1d783          	lhu	a5,-1970(gp) # 20000286 <wIstr>
    1a3e:	07c2                	slli	a5,a5,0x10
    1a40:	83c1                	srli	a5,a5,0x10
    1a42:	8bc1                	andi	a5,a5,16
    1a44:	14079a63          	bnez	a5,1b98 <CTR_LP+0x29c>
    1a48:	400067b7          	lui	a5,0x40006
    1a4c:	c0078793          	addi	a5,a5,-1024 # 40005c00 <_eusrstack+0x20003400>
    1a50:	439c                	lw	a5,0(a5)
    1a52:	07c2                	slli	a5,a5,0x10
    1a54:	83c1                	srli	a5,a5,0x10
    1a56:	86be                	mv	a3,a5
    1a58:	400067b7          	lui	a5,0x40006
    1a5c:	c0078793          	addi	a5,a5,-1024 # 40005c00 <_eusrstack+0x20003400>
    1a60:	6725                	lui	a4,0x9
    1a62:	f0f70713          	addi	a4,a4,-241 # 8f0f <_data_lma+0x4777>
    1a66:	8f75                	and	a4,a4,a3
    1a68:	c398                	sw	a4,0(a5)
    1a6a:	9f7ff0ef          	jal	ra,1460 <In0_Process>
    1a6e:	400067b7          	lui	a5,0x40006
    1a72:	c0078793          	addi	a5,a5,-1024 # 40005c00 <_eusrstack+0x20003400>
    1a76:	439c                	lw	a5,0(a5)
    1a78:	07c2                	slli	a5,a5,0x10
    1a7a:	83c1                	srli	a5,a5,0x10
    1a7c:	873e                	mv	a4,a5
    1a7e:	67a5                	lui	a5,0x9
    1a80:	fbf78793          	addi	a5,a5,-65 # 8fbf <_data_lma+0x4827>
    1a84:	00f77933          	and	s2,a4,a5
    1a88:	400067b7          	lui	a5,0x40006
    1a8c:	c0078793          	addi	a5,a5,-1024 # 40005c00 <_eusrstack+0x20003400>
    1a90:	439c                	lw	a5,0(a5)
    1a92:	07c2                	slli	a5,a5,0x10
    1a94:	83c1                	srli	a5,a5,0x10
    1a96:	873e                	mv	a4,a5
    1a98:	67b1                	lui	a5,0xc
    1a9a:	f8f78793          	addi	a5,a5,-113 # bf8f <_data_lma+0x77f7>
    1a9e:	00f774b3          	and	s1,a4,a5
    1aa2:	8481d783          	lhu	a5,-1976(gp) # 20000280 <SaveRState>
    1aa6:	01079713          	slli	a4,a5,0x10
    1aaa:	8341                	srli	a4,a4,0x10
    1aac:	6785                	lui	a5,0x1
    1aae:	8ff9                	and	a5,a5,a4
    1ab0:	07c2                	slli	a5,a5,0x10
    1ab2:	83c1                	srli	a5,a5,0x10
    1ab4:	c399                	beqz	a5,1aba <CTR_LP+0x1be>
    1ab6:	6785                	lui	a5,0x1
    1ab8:	8cbd                	xor	s1,s1,a5
    1aba:	8481d783          	lhu	a5,-1976(gp) # 20000280 <SaveRState>
    1abe:	01079713          	slli	a4,a5,0x10
    1ac2:	8341                	srli	a4,a4,0x10
    1ac4:	6789                	lui	a5,0x2
    1ac6:	8ff9                	and	a5,a5,a4
    1ac8:	07c2                	slli	a5,a5,0x10
    1aca:	83c1                	srli	a5,a5,0x10
    1acc:	c399                	beqz	a5,1ad2 <CTR_LP+0x1d6>
    1ace:	6789                	lui	a5,0x2
    1ad0:	8cbd                	xor	s1,s1,a5
    1ad2:	84a1d783          	lhu	a5,-1974(gp) # 20000282 <SaveTState>
    1ad6:	07c2                	slli	a5,a5,0x10
    1ad8:	83c1                	srli	a5,a5,0x10
    1ada:	8bc1                	andi	a5,a5,16
    1adc:	07c2                	slli	a5,a5,0x10
    1ade:	83c1                	srli	a5,a5,0x10
    1ae0:	c399                	beqz	a5,1ae6 <CTR_LP+0x1ea>
    1ae2:	01094913          	xori	s2,s2,16
    1ae6:	84a1d783          	lhu	a5,-1974(gp) # 20000282 <SaveTState>
    1aea:	07c2                	slli	a5,a5,0x10
    1aec:	83c1                	srli	a5,a5,0x10
    1aee:	0207f793          	andi	a5,a5,32
    1af2:	07c2                	slli	a5,a5,0x10
    1af4:	83c1                	srli	a5,a5,0x10
    1af6:	c399                	beqz	a5,1afc <CTR_LP+0x200>
    1af8:	02094913          	xori	s2,s2,32
    1afc:	01091793          	slli	a5,s2,0x10
    1b00:	83c1                	srli	a5,a5,0x10
    1b02:	00f4e6b3          	or	a3,s1,a5
    1b06:	400067b7          	lui	a5,0x40006
    1b0a:	c0078793          	addi	a5,a5,-1024 # 40005c00 <_eusrstack+0x20003400>
    1b0e:	6721                	lui	a4,0x8
    1b10:	08070713          	addi	a4,a4,128 # 8080 <_data_lma+0x38e8>
    1b14:	8f55                	or	a4,a4,a3
    1b16:	c398                	sw	a4,0(a5)
    1b18:	a005                	j	1b38 <CTR_LP+0x23c>
    1b1a:	01091713          	slli	a4,s2,0x10
    1b1e:	8341                	srli	a4,a4,0x10
    1b20:	77e1                	lui	a5,0xffff8
    1b22:	08078793          	addi	a5,a5,128 # ffff8080 <_eusrstack+0xdfff5880>
    1b26:	8fd9                	or	a5,a5,a4
    1b28:	01079713          	slli	a4,a5,0x10
    1b2c:	8341                	srli	a4,a4,0x10
    1b2e:	400067b7          	lui	a5,0x40006
    1b32:	c0078793          	addi	a5,a5,-1024 # 40005c00 <_eusrstack+0x20003400>
    1b36:	c398                	sw	a4,0(a5)
    1b38:	400067b7          	lui	a5,0x40006
    1b3c:	c0078793          	addi	a5,a5,-1024 # 40005c00 <_eusrstack+0x20003400>
    1b40:	439c                	lw	a5,0(a5)
    1b42:	07c2                	slli	a5,a5,0x10
    1b44:	83c1                	srli	a5,a5,0x10
    1b46:	0307f793          	andi	a5,a5,48
    1b4a:	84a1d703          	lhu	a4,-1974(gp) # 20000282 <SaveTState>
    1b4e:	0742                	slli	a4,a4,0x10
    1b50:	8341                	srli	a4,a4,0x10
    1b52:	fce794e3          	bne	a5,a4,1b1a <CTR_LP+0x21e>
    1b56:	a005                	j	1b76 <CTR_LP+0x27a>
    1b58:	01049713          	slli	a4,s1,0x10
    1b5c:	8341                	srli	a4,a4,0x10
    1b5e:	77e1                	lui	a5,0xffff8
    1b60:	08078793          	addi	a5,a5,128 # ffff8080 <_eusrstack+0xdfff5880>
    1b64:	8fd9                	or	a5,a5,a4
    1b66:	01079713          	slli	a4,a5,0x10
    1b6a:	8341                	srli	a4,a4,0x10
    1b6c:	400067b7          	lui	a5,0x40006
    1b70:	c0078793          	addi	a5,a5,-1024 # 40005c00 <_eusrstack+0x20003400>
    1b74:	c398                	sw	a4,0(a5)
    1b76:	400067b7          	lui	a5,0x40006
    1b7a:	c0078793          	addi	a5,a5,-1024 # 40005c00 <_eusrstack+0x20003400>
    1b7e:	439c                	lw	a5,0(a5)
    1b80:	07c2                	slli	a5,a5,0x10
    1b82:	83c1                	srli	a5,a5,0x10
    1b84:	873e                	mv	a4,a5
    1b86:	678d                	lui	a5,0x3
    1b88:	8ff9                	and	a5,a5,a4
    1b8a:	8481d703          	lhu	a4,-1976(gp) # 20000280 <SaveRState>
    1b8e:	0742                	slli	a4,a4,0x10
    1b90:	8341                	srli	a4,a4,0x10
    1b92:	fce793e3          	bne	a5,a4,1b58 <CTR_LP+0x25c>
    1b96:	a6e9                	j	1f60 <CTR_LP+0x664>
    1b98:	400067b7          	lui	a5,0x40006
    1b9c:	c0078793          	addi	a5,a5,-1024 # 40005c00 <_eusrstack+0x20003400>
    1ba0:	439c                	lw	a5,0(a5)
    1ba2:	07c2                	slli	a5,a5,0x10
    1ba4:	83c1                	srli	a5,a5,0x10
    1ba6:	fef41723          	sh	a5,-18(s0)
    1baa:	fee45783          	lhu	a5,-18(s0)
    1bae:	07c2                	slli	a5,a5,0x10
    1bb0:	83c1                	srli	a5,a5,0x10
    1bb2:	873e                	mv	a4,a5
    1bb4:	6785                	lui	a5,0x1
    1bb6:	80078793          	addi	a5,a5,-2048 # 800 <Standard_ClearFeature+0x22c>
    1bba:	8ff9                	and	a5,a5,a4
    1bbc:	14078a63          	beqz	a5,1d10 <CTR_LP+0x414>
    1bc0:	400067b7          	lui	a5,0x40006
    1bc4:	c0078793          	addi	a5,a5,-1024 # 40005c00 <_eusrstack+0x20003400>
    1bc8:	439c                	lw	a5,0(a5)
    1bca:	07c2                	slli	a5,a5,0x10
    1bcc:	83c1                	srli	a5,a5,0x10
    1bce:	86be                	mv	a3,a5
    1bd0:	400067b7          	lui	a5,0x40006
    1bd4:	c0078793          	addi	a5,a5,-1024 # 40005c00 <_eusrstack+0x20003400>
    1bd8:	6705                	lui	a4,0x1
    1bda:	f8f70713          	addi	a4,a4,-113 # f8f <NoData_Setup0+0x16d>
    1bde:	8f75                	and	a4,a4,a3
    1be0:	c398                	sw	a4,0(a5)
    1be2:	f70ff0ef          	jal	ra,1352 <Setup0_Process>
    1be6:	400067b7          	lui	a5,0x40006
    1bea:	c0078793          	addi	a5,a5,-1024 # 40005c00 <_eusrstack+0x20003400>
    1bee:	439c                	lw	a5,0(a5)
    1bf0:	07c2                	slli	a5,a5,0x10
    1bf2:	83c1                	srli	a5,a5,0x10
    1bf4:	873e                	mv	a4,a5
    1bf6:	67a5                	lui	a5,0x9
    1bf8:	fbf78793          	addi	a5,a5,-65 # 8fbf <_data_lma+0x4827>
    1bfc:	00f77933          	and	s2,a4,a5
    1c00:	400067b7          	lui	a5,0x40006
    1c04:	c0078793          	addi	a5,a5,-1024 # 40005c00 <_eusrstack+0x20003400>
    1c08:	439c                	lw	a5,0(a5)
    1c0a:	07c2                	slli	a5,a5,0x10
    1c0c:	83c1                	srli	a5,a5,0x10
    1c0e:	873e                	mv	a4,a5
    1c10:	67b1                	lui	a5,0xc
    1c12:	f8f78793          	addi	a5,a5,-113 # bf8f <_data_lma+0x77f7>
    1c16:	00f774b3          	and	s1,a4,a5
    1c1a:	8481d783          	lhu	a5,-1976(gp) # 20000280 <SaveRState>
    1c1e:	01079713          	slli	a4,a5,0x10
    1c22:	8341                	srli	a4,a4,0x10
    1c24:	6785                	lui	a5,0x1
    1c26:	8ff9                	and	a5,a5,a4
    1c28:	07c2                	slli	a5,a5,0x10
    1c2a:	83c1                	srli	a5,a5,0x10
    1c2c:	c399                	beqz	a5,1c32 <CTR_LP+0x336>
    1c2e:	6785                	lui	a5,0x1
    1c30:	8cbd                	xor	s1,s1,a5
    1c32:	8481d783          	lhu	a5,-1976(gp) # 20000280 <SaveRState>
    1c36:	01079713          	slli	a4,a5,0x10
    1c3a:	8341                	srli	a4,a4,0x10
    1c3c:	6789                	lui	a5,0x2
    1c3e:	8ff9                	and	a5,a5,a4
    1c40:	07c2                	slli	a5,a5,0x10
    1c42:	83c1                	srli	a5,a5,0x10
    1c44:	c399                	beqz	a5,1c4a <CTR_LP+0x34e>
    1c46:	6789                	lui	a5,0x2
    1c48:	8cbd                	xor	s1,s1,a5
    1c4a:	84a1d783          	lhu	a5,-1974(gp) # 20000282 <SaveTState>
    1c4e:	07c2                	slli	a5,a5,0x10
    1c50:	83c1                	srli	a5,a5,0x10
    1c52:	8bc1                	andi	a5,a5,16
    1c54:	07c2                	slli	a5,a5,0x10
    1c56:	83c1                	srli	a5,a5,0x10
    1c58:	c399                	beqz	a5,1c5e <CTR_LP+0x362>
    1c5a:	01094913          	xori	s2,s2,16
    1c5e:	84a1d783          	lhu	a5,-1974(gp) # 20000282 <SaveTState>
    1c62:	07c2                	slli	a5,a5,0x10
    1c64:	83c1                	srli	a5,a5,0x10
    1c66:	0207f793          	andi	a5,a5,32
    1c6a:	07c2                	slli	a5,a5,0x10
    1c6c:	83c1                	srli	a5,a5,0x10
    1c6e:	c399                	beqz	a5,1c74 <CTR_LP+0x378>
    1c70:	02094913          	xori	s2,s2,32
    1c74:	01091793          	slli	a5,s2,0x10
    1c78:	83c1                	srli	a5,a5,0x10
    1c7a:	00f4e6b3          	or	a3,s1,a5
    1c7e:	400067b7          	lui	a5,0x40006
    1c82:	c0078793          	addi	a5,a5,-1024 # 40005c00 <_eusrstack+0x20003400>
    1c86:	6721                	lui	a4,0x8
    1c88:	08070713          	addi	a4,a4,128 # 8080 <_data_lma+0x38e8>
    1c8c:	8f55                	or	a4,a4,a3
    1c8e:	c398                	sw	a4,0(a5)
    1c90:	a005                	j	1cb0 <CTR_LP+0x3b4>
    1c92:	01091713          	slli	a4,s2,0x10
    1c96:	8341                	srli	a4,a4,0x10
    1c98:	77e1                	lui	a5,0xffff8
    1c9a:	08078793          	addi	a5,a5,128 # ffff8080 <_eusrstack+0xdfff5880>
    1c9e:	8fd9                	or	a5,a5,a4
    1ca0:	01079713          	slli	a4,a5,0x10
    1ca4:	8341                	srli	a4,a4,0x10
    1ca6:	400067b7          	lui	a5,0x40006
    1caa:	c0078793          	addi	a5,a5,-1024 # 40005c00 <_eusrstack+0x20003400>
    1cae:	c398                	sw	a4,0(a5)
    1cb0:	400067b7          	lui	a5,0x40006
    1cb4:	c0078793          	addi	a5,a5,-1024 # 40005c00 <_eusrstack+0x20003400>
    1cb8:	439c                	lw	a5,0(a5)
    1cba:	07c2                	slli	a5,a5,0x10
    1cbc:	83c1                	srli	a5,a5,0x10
    1cbe:	0307f793          	andi	a5,a5,48
    1cc2:	84a1d703          	lhu	a4,-1974(gp) # 20000282 <SaveTState>
    1cc6:	0742                	slli	a4,a4,0x10
    1cc8:	8341                	srli	a4,a4,0x10
    1cca:	fce794e3          	bne	a5,a4,1c92 <CTR_LP+0x396>
    1cce:	a005                	j	1cee <CTR_LP+0x3f2>
    1cd0:	01049713          	slli	a4,s1,0x10
    1cd4:	8341                	srli	a4,a4,0x10
    1cd6:	77e1                	lui	a5,0xffff8
    1cd8:	08078793          	addi	a5,a5,128 # ffff8080 <_eusrstack+0xdfff5880>
    1cdc:	8fd9                	or	a5,a5,a4
    1cde:	01079713          	slli	a4,a5,0x10
    1ce2:	8341                	srli	a4,a4,0x10
    1ce4:	400067b7          	lui	a5,0x40006
    1ce8:	c0078793          	addi	a5,a5,-1024 # 40005c00 <_eusrstack+0x20003400>
    1cec:	c398                	sw	a4,0(a5)
    1cee:	400067b7          	lui	a5,0x40006
    1cf2:	c0078793          	addi	a5,a5,-1024 # 40005c00 <_eusrstack+0x20003400>
    1cf6:	439c                	lw	a5,0(a5)
    1cf8:	07c2                	slli	a5,a5,0x10
    1cfa:	83c1                	srli	a5,a5,0x10
    1cfc:	873e                	mv	a4,a5
    1cfe:	678d                	lui	a5,0x3
    1d00:	8ff9                	and	a5,a5,a4
    1d02:	8481d703          	lhu	a4,-1976(gp) # 20000280 <SaveRState>
    1d06:	0742                	slli	a4,a4,0x10
    1d08:	8341                	srli	a4,a4,0x10
    1d0a:	fce793e3          	bne	a5,a4,1cd0 <CTR_LP+0x3d4>
    1d0e:	ac89                	j	1f60 <CTR_LP+0x664>
    1d10:	fee45783          	lhu	a5,-18(s0)
    1d14:	07c2                	slli	a5,a5,0x10
    1d16:	83c1                	srli	a5,a5,0x10
    1d18:	07c2                	slli	a5,a5,0x10
    1d1a:	87c1                	srai	a5,a5,0x10
    1d1c:	2207d563          	bgez	a5,1f46 <CTR_LP+0x64a>
    1d20:	400067b7          	lui	a5,0x40006
    1d24:	c0078793          	addi	a5,a5,-1024 # 40005c00 <_eusrstack+0x20003400>
    1d28:	439c                	lw	a5,0(a5)
    1d2a:	07c2                	slli	a5,a5,0x10
    1d2c:	83c1                	srli	a5,a5,0x10
    1d2e:	86be                	mv	a3,a5
    1d30:	400067b7          	lui	a5,0x40006
    1d34:	c0078793          	addi	a5,a5,-1024 # 40005c00 <_eusrstack+0x20003400>
    1d38:	6705                	lui	a4,0x1
    1d3a:	f8f70713          	addi	a4,a4,-113 # f8f <NoData_Setup0+0x16d>
    1d3e:	8f75                	and	a4,a4,a3
    1d40:	c398                	sw	a4,0(a5)
    1d42:	fbaff0ef          	jal	ra,14fc <Out0_Process>
    1d46:	400067b7          	lui	a5,0x40006
    1d4a:	c0078793          	addi	a5,a5,-1024 # 40005c00 <_eusrstack+0x20003400>
    1d4e:	439c                	lw	a5,0(a5)
    1d50:	07c2                	slli	a5,a5,0x10
    1d52:	83c1                	srli	a5,a5,0x10
    1d54:	873e                	mv	a4,a5
    1d56:	67a5                	lui	a5,0x9
    1d58:	fbf78793          	addi	a5,a5,-65 # 8fbf <_data_lma+0x4827>
    1d5c:	00f77933          	and	s2,a4,a5
    1d60:	400067b7          	lui	a5,0x40006
    1d64:	c0078793          	addi	a5,a5,-1024 # 40005c00 <_eusrstack+0x20003400>
    1d68:	439c                	lw	a5,0(a5)
    1d6a:	07c2                	slli	a5,a5,0x10
    1d6c:	83c1                	srli	a5,a5,0x10
    1d6e:	873e                	mv	a4,a5
    1d70:	67b1                	lui	a5,0xc
    1d72:	f8f78793          	addi	a5,a5,-113 # bf8f <_data_lma+0x77f7>
    1d76:	00f774b3          	and	s1,a4,a5
    1d7a:	8481d783          	lhu	a5,-1976(gp) # 20000280 <SaveRState>
    1d7e:	01079713          	slli	a4,a5,0x10
    1d82:	8341                	srli	a4,a4,0x10
    1d84:	6785                	lui	a5,0x1
    1d86:	8ff9                	and	a5,a5,a4
    1d88:	07c2                	slli	a5,a5,0x10
    1d8a:	83c1                	srli	a5,a5,0x10
    1d8c:	c399                	beqz	a5,1d92 <CTR_LP+0x496>
    1d8e:	6785                	lui	a5,0x1
    1d90:	8cbd                	xor	s1,s1,a5
    1d92:	8481d783          	lhu	a5,-1976(gp) # 20000280 <SaveRState>
    1d96:	01079713          	slli	a4,a5,0x10
    1d9a:	8341                	srli	a4,a4,0x10
    1d9c:	6789                	lui	a5,0x2
    1d9e:	8ff9                	and	a5,a5,a4
    1da0:	07c2                	slli	a5,a5,0x10
    1da2:	83c1                	srli	a5,a5,0x10
    1da4:	c399                	beqz	a5,1daa <CTR_LP+0x4ae>
    1da6:	6789                	lui	a5,0x2
    1da8:	8cbd                	xor	s1,s1,a5
    1daa:	84a1d783          	lhu	a5,-1974(gp) # 20000282 <SaveTState>
    1dae:	07c2                	slli	a5,a5,0x10
    1db0:	83c1                	srli	a5,a5,0x10
    1db2:	8bc1                	andi	a5,a5,16
    1db4:	07c2                	slli	a5,a5,0x10
    1db6:	83c1                	srli	a5,a5,0x10
    1db8:	c399                	beqz	a5,1dbe <CTR_LP+0x4c2>
    1dba:	01094913          	xori	s2,s2,16
    1dbe:	84a1d783          	lhu	a5,-1974(gp) # 20000282 <SaveTState>
    1dc2:	07c2                	slli	a5,a5,0x10
    1dc4:	83c1                	srli	a5,a5,0x10
    1dc6:	0207f793          	andi	a5,a5,32
    1dca:	07c2                	slli	a5,a5,0x10
    1dcc:	83c1                	srli	a5,a5,0x10
    1dce:	c399                	beqz	a5,1dd4 <CTR_LP+0x4d8>
    1dd0:	02094913          	xori	s2,s2,32
    1dd4:	01091793          	slli	a5,s2,0x10
    1dd8:	83c1                	srli	a5,a5,0x10
    1dda:	00f4e6b3          	or	a3,s1,a5
    1dde:	400067b7          	lui	a5,0x40006
    1de2:	c0078793          	addi	a5,a5,-1024 # 40005c00 <_eusrstack+0x20003400>
    1de6:	6721                	lui	a4,0x8
    1de8:	08070713          	addi	a4,a4,128 # 8080 <_data_lma+0x38e8>
    1dec:	8f55                	or	a4,a4,a3
    1dee:	c398                	sw	a4,0(a5)
    1df0:	a005                	j	1e10 <CTR_LP+0x514>
    1df2:	01091713          	slli	a4,s2,0x10
    1df6:	8341                	srli	a4,a4,0x10
    1df8:	77e1                	lui	a5,0xffff8
    1dfa:	08078793          	addi	a5,a5,128 # ffff8080 <_eusrstack+0xdfff5880>
    1dfe:	8fd9                	or	a5,a5,a4
    1e00:	01079713          	slli	a4,a5,0x10
    1e04:	8341                	srli	a4,a4,0x10
    1e06:	400067b7          	lui	a5,0x40006
    1e0a:	c0078793          	addi	a5,a5,-1024 # 40005c00 <_eusrstack+0x20003400>
    1e0e:	c398                	sw	a4,0(a5)
    1e10:	400067b7          	lui	a5,0x40006
    1e14:	c0078793          	addi	a5,a5,-1024 # 40005c00 <_eusrstack+0x20003400>
    1e18:	439c                	lw	a5,0(a5)
    1e1a:	07c2                	slli	a5,a5,0x10
    1e1c:	83c1                	srli	a5,a5,0x10
    1e1e:	0307f793          	andi	a5,a5,48
    1e22:	84a1d703          	lhu	a4,-1974(gp) # 20000282 <SaveTState>
    1e26:	0742                	slli	a4,a4,0x10
    1e28:	8341                	srli	a4,a4,0x10
    1e2a:	fce794e3          	bne	a5,a4,1df2 <CTR_LP+0x4f6>
    1e2e:	a005                	j	1e4e <CTR_LP+0x552>
    1e30:	01049713          	slli	a4,s1,0x10
    1e34:	8341                	srli	a4,a4,0x10
    1e36:	77e1                	lui	a5,0xffff8
    1e38:	08078793          	addi	a5,a5,128 # ffff8080 <_eusrstack+0xdfff5880>
    1e3c:	8fd9                	or	a5,a5,a4
    1e3e:	01079713          	slli	a4,a5,0x10
    1e42:	8341                	srli	a4,a4,0x10
    1e44:	400067b7          	lui	a5,0x40006
    1e48:	c0078793          	addi	a5,a5,-1024 # 40005c00 <_eusrstack+0x20003400>
    1e4c:	c398                	sw	a4,0(a5)
    1e4e:	400067b7          	lui	a5,0x40006
    1e52:	c0078793          	addi	a5,a5,-1024 # 40005c00 <_eusrstack+0x20003400>
    1e56:	439c                	lw	a5,0(a5)
    1e58:	07c2                	slli	a5,a5,0x10
    1e5a:	83c1                	srli	a5,a5,0x10
    1e5c:	873e                	mv	a4,a5
    1e5e:	678d                	lui	a5,0x3
    1e60:	8ff9                	and	a5,a5,a4
    1e62:	8481d703          	lhu	a4,-1976(gp) # 20000280 <SaveRState>
    1e66:	0742                	slli	a4,a4,0x10
    1e68:	8341                	srli	a4,a4,0x10
    1e6a:	fce793e3          	bne	a5,a4,1e30 <CTR_LP+0x534>
    1e6e:	a8cd                	j	1f60 <CTR_LP+0x664>
    1e70:	8341c783          	lbu	a5,-1996(gp) # 2000026c <EPindex>
    1e74:	00279713          	slli	a4,a5,0x2
    1e78:	400067b7          	lui	a5,0x40006
    1e7c:	c0078793          	addi	a5,a5,-1024 # 40005c00 <_eusrstack+0x20003400>
    1e80:	97ba                	add	a5,a5,a4
    1e82:	439c                	lw	a5,0(a5)
    1e84:	07c2                	slli	a5,a5,0x10
    1e86:	83c1                	srli	a5,a5,0x10
    1e88:	fef41723          	sh	a5,-18(s0)
    1e8c:	fee45783          	lhu	a5,-18(s0)
    1e90:	07c2                	slli	a5,a5,0x10
    1e92:	83c1                	srli	a5,a5,0x10
    1e94:	07c2                	slli	a5,a5,0x10
    1e96:	87c1                	srai	a5,a5,0x10
    1e98:	0407d963          	bgez	a5,1eea <CTR_LP+0x5ee>
    1e9c:	8341c783          	lbu	a5,-1996(gp) # 2000026c <EPindex>
    1ea0:	00279713          	slli	a4,a5,0x2
    1ea4:	400067b7          	lui	a5,0x40006
    1ea8:	c0078793          	addi	a5,a5,-1024 # 40005c00 <_eusrstack+0x20003400>
    1eac:	97ba                	add	a5,a5,a4
    1eae:	439c                	lw	a5,0(a5)
    1eb0:	07c2                	slli	a5,a5,0x10
    1eb2:	83c1                	srli	a5,a5,0x10
    1eb4:	86be                	mv	a3,a5
    1eb6:	8341c783          	lbu	a5,-1996(gp) # 2000026c <EPindex>
    1eba:	00279713          	slli	a4,a5,0x2
    1ebe:	400067b7          	lui	a5,0x40006
    1ec2:	c0078793          	addi	a5,a5,-1024 # 40005c00 <_eusrstack+0x20003400>
    1ec6:	97ba                	add	a5,a5,a4
    1ec8:	6705                	lui	a4,0x1
    1eca:	f8f70713          	addi	a4,a4,-113 # f8f <NoData_Setup0+0x16d>
    1ece:	8f75                	and	a4,a4,a3
    1ed0:	c398                	sw	a4,0(a5)
    1ed2:	8341c783          	lbu	a5,-1996(gp) # 2000026c <EPindex>
    1ed6:	fff78713          	addi	a4,a5,-1
    1eda:	200007b7          	lui	a5,0x20000
    1ede:	070a                	slli	a4,a4,0x2
    1ee0:	1a478793          	addi	a5,a5,420 # 200001a4 <pEpInt_OUT>
    1ee4:	97ba                	add	a5,a5,a4
    1ee6:	439c                	lw	a5,0(a5)
    1ee8:	9782                	jalr	a5
    1eea:	fee45783          	lhu	a5,-18(s0)
    1eee:	07c2                	slli	a5,a5,0x10
    1ef0:	83c1                	srli	a5,a5,0x10
    1ef2:	0807f793          	andi	a5,a5,128
    1ef6:	cba1                	beqz	a5,1f46 <CTR_LP+0x64a>
    1ef8:	8341c783          	lbu	a5,-1996(gp) # 2000026c <EPindex>
    1efc:	00279713          	slli	a4,a5,0x2
    1f00:	400067b7          	lui	a5,0x40006
    1f04:	c0078793          	addi	a5,a5,-1024 # 40005c00 <_eusrstack+0x20003400>
    1f08:	97ba                	add	a5,a5,a4
    1f0a:	439c                	lw	a5,0(a5)
    1f0c:	07c2                	slli	a5,a5,0x10
    1f0e:	83c1                	srli	a5,a5,0x10
    1f10:	86be                	mv	a3,a5
    1f12:	8341c783          	lbu	a5,-1996(gp) # 2000026c <EPindex>
    1f16:	00279713          	slli	a4,a5,0x2
    1f1a:	400067b7          	lui	a5,0x40006
    1f1e:	c0078793          	addi	a5,a5,-1024 # 40005c00 <_eusrstack+0x20003400>
    1f22:	97ba                	add	a5,a5,a4
    1f24:	6725                	lui	a4,0x9
    1f26:	f0f70713          	addi	a4,a4,-241 # 8f0f <_data_lma+0x4777>
    1f2a:	8f75                	and	a4,a4,a3
    1f2c:	c398                	sw	a4,0(a5)
    1f2e:	8341c783          	lbu	a5,-1996(gp) # 2000026c <EPindex>
    1f32:	fff78713          	addi	a4,a5,-1
    1f36:	200007b7          	lui	a5,0x20000
    1f3a:	070a                	slli	a4,a4,0x2
    1f3c:	18878793          	addi	a5,a5,392 # 20000188 <pEpInt_IN>
    1f40:	97ba                	add	a5,a5,a4
    1f42:	439c                	lw	a5,0(a5)
    1f44:	9782                	jalr	a5
    1f46:	400067b7          	lui	a5,0x40006
    1f4a:	c4478793          	addi	a5,a5,-956 # 40005c44 <_eusrstack+0x20003444>
    1f4e:	439c                	lw	a5,0(a5)
    1f50:	07c2                	slli	a5,a5,0x10
    1f52:	83c1                	srli	a5,a5,0x10
    1f54:	84f19723          	sh	a5,-1970(gp) # 20000286 <wIstr>
    1f58:	07c2                	slli	a5,a5,0x10
    1f5a:	87c1                	srai	a5,a5,0x10
    1f5c:	9a07c9e3          	bltz	a5,190e <CTR_LP+0x12>
    1f60:	40f2                	lw	ra,28(sp)
    1f62:	4462                	lw	s0,24(sp)
    1f64:	44d2                	lw	s1,20(sp)
    1f66:	4942                	lw	s2,16(sp)
    1f68:	6105                	addi	sp,sp,32
    1f6a:	8082                	ret

00001f6c <USB_Istr>:
    1f6c:	7139                	addi	sp,sp,-64
    1f6e:	de06                	sw	ra,60(sp)
    1f70:	dc22                	sw	s0,56(sp)
    1f72:	0080                	addi	s0,sp,64
    1f74:	fe042623          	sw	zero,-20(s0)
    1f78:	400067b7          	lui	a5,0x40006
    1f7c:	c5078793          	addi	a5,a5,-944 # 40005c50 <_eusrstack+0x20003450>
    1f80:	439c                	lw	a5,0(a5)
    1f82:	07c2                	slli	a5,a5,0x10
    1f84:	83c1                	srli	a5,a5,0x10
    1f86:	873e                	mv	a4,a5
    1f88:	200037b7          	lui	a5,0x20003
    1f8c:	0799                	addi	a5,a5,6
    1f8e:	97ba                	add	a5,a5,a4
    1f90:	0786                	slli	a5,a5,0x1
    1f92:	4398                	lw	a4,0(a5)
    1f94:	67c1                	lui	a5,0x10
    1f96:	c0078793          	addi	a5,a5,-1024 # fc00 <_data_lma+0xb468>
    1f9a:	8ff9                	and	a5,a5,a4
    1f9c:	84c1d703          	lhu	a4,-1972(gp) # 20000284 <Ep0RxBlks>
    1fa0:	04e78263          	beq	a5,a4,1fe4 <USB_Istr+0x78>
    1fa4:	400067b7          	lui	a5,0x40006
    1fa8:	c5078793          	addi	a5,a5,-944 # 40005c50 <_eusrstack+0x20003450>
    1fac:	4394                	lw	a3,0(a5)
    1fae:	01069793          	slli	a5,a3,0x10
    1fb2:	83c1                	srli	a5,a5,0x10
    1fb4:	873e                	mv	a4,a5
    1fb6:	200037b7          	lui	a5,0x20003
    1fba:	0799                	addi	a5,a5,6
    1fbc:	97ba                	add	a5,a5,a4
    1fbe:	0786                	slli	a5,a5,0x1
    1fc0:	4398                	lw	a4,0(a5)
    1fc2:	84c1d783          	lhu	a5,-1972(gp) # 20000284 <Ep0RxBlks>
    1fc6:	863e                	mv	a2,a5
    1fc8:	67c1                	lui	a5,0x10
    1fca:	c0078793          	addi	a5,a5,-1024 # fc00 <_data_lma+0xb468>
    1fce:	8ff1                	and	a5,a5,a2
    1fd0:	06c2                	slli	a3,a3,0x10
    1fd2:	82c1                	srli	a3,a3,0x10
    1fd4:	8636                	mv	a2,a3
    1fd6:	200036b7          	lui	a3,0x20003
    1fda:	0699                	addi	a3,a3,6
    1fdc:	96b2                	add	a3,a3,a2
    1fde:	0686                	slli	a3,a3,0x1
    1fe0:	8fd9                	or	a5,a5,a4
    1fe2:	c29c                	sw	a5,0(a3)
    1fe4:	400067b7          	lui	a5,0x40006
    1fe8:	c4478793          	addi	a5,a5,-956 # 40005c44 <_eusrstack+0x20003444>
    1fec:	439c                	lw	a5,0(a5)
    1fee:	01079713          	slli	a4,a5,0x10
    1ff2:	8341                	srli	a4,a4,0x10
    1ff4:	84e19723          	sh	a4,-1970(gp) # 20000286 <wIstr>
    1ff8:	84e1d783          	lhu	a5,-1970(gp) # 20000286 <wIstr>
    1ffc:	07c2                	slli	a5,a5,0x10
    1ffe:	83c1                	srli	a5,a5,0x10
    2000:	2007f793          	andi	a5,a5,512
    2004:	8401d703          	lhu	a4,-1984(gp) # 20000278 <wInterrupt_Mask>
    2008:	8ff9                	and	a5,a5,a4
    200a:	c395                	beqz	a5,202e <USB_Istr+0xc2>
    200c:	400067b7          	lui	a5,0x40006
    2010:	c4478793          	addi	a5,a5,-956 # 40005c44 <_eusrstack+0x20003444>
    2014:	6741                	lui	a4,0x10
    2016:	dff70713          	addi	a4,a4,-513 # fdff <_data_lma+0xb667>
    201a:	c398                	sw	a4,0(a5)
    201c:	8501c783          	lbu	a5,-1968(gp) # 20000288 <bIntPackSOF>
    2020:	0ff7f793          	andi	a5,a5,255
    2024:	0785                	addi	a5,a5,1
    2026:	0ff7f713          	andi	a4,a5,255
    202a:	84e18823          	sb	a4,-1968(gp) # 20000288 <bIntPackSOF>
    202e:	84e1d783          	lhu	a5,-1970(gp) # 20000286 <wIstr>
    2032:	07c2                	slli	a5,a5,0x10
    2034:	83c1                	srli	a5,a5,0x10
    2036:	873e                	mv	a4,a5
    2038:	67a1                	lui	a5,0x8
    203a:	8ff9                	and	a5,a5,a4
    203c:	8401d703          	lhu	a4,-1984(gp) # 20000278 <wInterrupt_Mask>
    2040:	8ff9                	and	a5,a5,a4
    2042:	c399                	beqz	a5,2048 <USB_Istr+0xdc>
    2044:	8b9ff0ef          	jal	ra,18fc <CTR_LP>
    2048:	84e1d783          	lhu	a5,-1970(gp) # 20000286 <wIstr>
    204c:	07c2                	slli	a5,a5,0x10
    204e:	83c1                	srli	a5,a5,0x10
    2050:	4007f793          	andi	a5,a5,1024
    2054:	8401d703          	lhu	a4,-1984(gp) # 20000278 <wInterrupt_Mask>
    2058:	8ff9                	and	a5,a5,a4
    205a:	cf99                	beqz	a5,2078 <USB_Istr+0x10c>
    205c:	400067b7          	lui	a5,0x40006
    2060:	c4478793          	addi	a5,a5,-956 # 40005c44 <_eusrstack+0x20003444>
    2064:	6741                	lui	a4,0x10
    2066:	bff70713          	addi	a4,a4,-1025 # fbff <_data_lma+0xb467>
    206a:	c398                	sw	a4,0(a5)
    206c:	200007b7          	lui	a5,0x20000
    2070:	1c078793          	addi	a5,a5,448 # 200001c0 <Device_Property>
    2074:	43dc                	lw	a5,4(a5)
    2076:	9782                	jalr	a5
    2078:	84e1d783          	lhu	a5,-1970(gp) # 20000286 <wIstr>
    207c:	07c2                	slli	a5,a5,0x10
    207e:	83c1                	srli	a5,a5,0x10
    2080:	873e                	mv	a4,a5
    2082:	6789                	lui	a5,0x2
    2084:	8ff9                	and	a5,a5,a4
    2086:	8401d703          	lhu	a4,-1984(gp) # 20000278 <wInterrupt_Mask>
    208a:	8ff9                	and	a5,a5,a4
    208c:	cb81                	beqz	a5,209c <USB_Istr+0x130>
    208e:	400067b7          	lui	a5,0x40006
    2092:	c4478793          	addi	a5,a5,-956 # 40005c44 <_eusrstack+0x20003444>
    2096:	6739                	lui	a4,0xe
    2098:	177d                	addi	a4,a4,-1
    209a:	c398                	sw	a4,0(a5)
    209c:	84e1d783          	lhu	a5,-1970(gp) # 20000286 <wIstr>
    20a0:	07c2                	slli	a5,a5,0x10
    20a2:	83c1                	srli	a5,a5,0x10
    20a4:	873e                	mv	a4,a5
    20a6:	6785                	lui	a5,0x1
    20a8:	8ff9                	and	a5,a5,a4
    20aa:	8401d703          	lhu	a4,-1984(gp) # 20000278 <wInterrupt_Mask>
    20ae:	8ff9                	and	a5,a5,a4
    20b0:	cb99                	beqz	a5,20c6 <USB_Istr+0x15a>
    20b2:	400067b7          	lui	a5,0x40006
    20b6:	c4478793          	addi	a5,a5,-956 # 40005c44 <_eusrstack+0x20003444>
    20ba:	673d                	lui	a4,0xf
    20bc:	177d                	addi	a4,a4,-1
    20be:	c398                	sw	a4,0(a5)
    20c0:	4501                	li	a0,0
    20c2:	4bb000ef          	jal	ra,2d7c <Resume>
    20c6:	84e1d783          	lhu	a5,-1970(gp) # 20000286 <wIstr>
    20ca:	07c2                	slli	a5,a5,0x10
    20cc:	83c1                	srli	a5,a5,0x10
    20ce:	873e                	mv	a4,a5
    20d0:	6785                	lui	a5,0x1
    20d2:	80078793          	addi	a5,a5,-2048 # 800 <Standard_ClearFeature+0x22c>
    20d6:	8ff9                	and	a5,a5,a4
    20d8:	8401d703          	lhu	a4,-1984(gp) # 20000278 <wInterrupt_Mask>
    20dc:	8ff9                	and	a5,a5,a4
    20de:	c785                	beqz	a5,2106 <USB_Istr+0x19a>
    20e0:	8241c783          	lbu	a5,-2012(gp) # 2000025c <fSuspendEnabled>
    20e4:	0ff7f793          	andi	a5,a5,255
    20e8:	c781                	beqz	a5,20f0 <USB_Istr+0x184>
    20ea:	2e5000ef          	jal	ra,2bce <Suspend>
    20ee:	a021                	j	20f6 <USB_Istr+0x18a>
    20f0:	4509                	li	a0,2
    20f2:	48b000ef          	jal	ra,2d7c <Resume>
    20f6:	400067b7          	lui	a5,0x40006
    20fa:	c4478793          	addi	a5,a5,-956 # 40005c44 <_eusrstack+0x20003444>
    20fe:	673d                	lui	a4,0xf
    2100:	7ff70713          	addi	a4,a4,2047 # f7ff <_data_lma+0xb067>
    2104:	c398                	sw	a4,0(a5)
    2106:	84e1d783          	lhu	a5,-1970(gp) # 20000286 <wIstr>
    210a:	07c2                	slli	a5,a5,0x10
    210c:	83c1                	srli	a5,a5,0x10
    210e:	1007f793          	andi	a5,a5,256
    2112:	8401d703          	lhu	a4,-1984(gp) # 20000278 <wInterrupt_Mask>
    2116:	8ff9                	and	a5,a5,a4
    2118:	16078263          	beqz	a5,227c <USB_Istr+0x310>
    211c:	400067b7          	lui	a5,0x40006
    2120:	c4478793          	addi	a5,a5,-956 # 40005c44 <_eusrstack+0x20003444>
    2124:	6741                	lui	a4,0x10
    2126:	eff70713          	addi	a4,a4,-257 # feff <_data_lma+0xb767>
    212a:	c398                	sw	a4,0(a5)
    212c:	400067b7          	lui	a5,0x40006
    2130:	c4878793          	addi	a5,a5,-952 # 40005c48 <_eusrstack+0x20003448>
    2134:	439c                	lw	a5,0(a5)
    2136:	07c2                	slli	a5,a5,0x10
    2138:	87c1                	srai	a5,a5,0x10
    213a:	1207dc63          	bgez	a5,2272 <USB_Istr+0x306>
    213e:	8541a783          	lw	a5,-1964(gp) # 2000028c <esof_counter>
    2142:	00178713          	addi	a4,a5,1
    2146:	84e1aa23          	sw	a4,-1964(gp) # 2000028c <esof_counter>
    214a:	8541a703          	lw	a4,-1964(gp) # 2000028c <esof_counter>
    214e:	478d                	li	a5,3
    2150:	12e7f363          	bgeu	a5,a4,2276 <USB_Istr+0x30a>
    2154:	400067b7          	lui	a5,0x40006
    2158:	c4078793          	addi	a5,a5,-960 # 40005c40 <_eusrstack+0x20003440>
    215c:	439c                	lw	a5,0(a5)
    215e:	07c2                	slli	a5,a5,0x10
    2160:	83c1                	srli	a5,a5,0x10
    2162:	8ba1                	andi	a5,a5,8
    2164:	10079963          	bnez	a5,2276 <USB_Istr+0x30a>
    2168:	400067b7          	lui	a5,0x40006
    216c:	c4078793          	addi	a5,a5,-960 # 40005c40 <_eusrstack+0x20003440>
    2170:	439c                	lw	a5,0(a5)
    2172:	07c2                	slli	a5,a5,0x10
    2174:	83c1                	srli	a5,a5,0x10
    2176:	873e                	mv	a4,a5
    2178:	84e1ac23          	sw	a4,-1960(gp) # 20000290 <wCNTR>
    217c:	fe042623          	sw	zero,-20(s0)
    2180:	a81d                	j	21b6 <USB_Istr+0x24a>
    2182:	fec42783          	lw	a5,-20(s0)
    2186:	00279713          	slli	a4,a5,0x2
    218a:	400067b7          	lui	a5,0x40006
    218e:	c0078793          	addi	a5,a5,-1024 # 40005c00 <_eusrstack+0x20003400>
    2192:	97ba                	add	a5,a5,a4
    2194:	439c                	lw	a5,0(a5)
    2196:	07c2                	slli	a5,a5,0x10
    2198:	83c1                	srli	a5,a5,0x10
    219a:	873e                	mv	a4,a5
    219c:	fec42783          	lw	a5,-20(s0)
    21a0:	078a                	slli	a5,a5,0x2
    21a2:	ff040693          	addi	a3,s0,-16
    21a6:	97b6                	add	a5,a5,a3
    21a8:	fce7ae23          	sw	a4,-36(a5)
    21ac:	fec42783          	lw	a5,-20(s0)
    21b0:	0785                	addi	a5,a5,1
    21b2:	fef42623          	sw	a5,-20(s0)
    21b6:	fec42703          	lw	a4,-20(s0)
    21ba:	479d                	li	a5,7
    21bc:	fce7f3e3          	bgeu	a5,a4,2182 <USB_Istr+0x216>
    21c0:	8581a783          	lw	a5,-1960(gp) # 20000290 <wCNTR>
    21c4:	0017e713          	ori	a4,a5,1
    21c8:	84e1ac23          	sw	a4,-1960(gp) # 20000290 <wCNTR>
    21cc:	8581a783          	lw	a5,-1960(gp) # 20000290 <wCNTR>
    21d0:	01079713          	slli	a4,a5,0x10
    21d4:	8341                	srli	a4,a4,0x10
    21d6:	400067b7          	lui	a5,0x40006
    21da:	c4078793          	addi	a5,a5,-960 # 40005c40 <_eusrstack+0x20003440>
    21de:	c398                	sw	a4,0(a5)
    21e0:	8581a783          	lw	a5,-1960(gp) # 20000290 <wCNTR>
    21e4:	ffe7f713          	andi	a4,a5,-2
    21e8:	84e1ac23          	sw	a4,-1960(gp) # 20000290 <wCNTR>
    21ec:	8581a783          	lw	a5,-1960(gp) # 20000290 <wCNTR>
    21f0:	01079713          	slli	a4,a5,0x10
    21f4:	8341                	srli	a4,a4,0x10
    21f6:	400067b7          	lui	a5,0x40006
    21fa:	c4078793          	addi	a5,a5,-960 # 40005c40 <_eusrstack+0x20003440>
    21fe:	c398                	sw	a4,0(a5)
    2200:	0001                	nop
    2202:	400067b7          	lui	a5,0x40006
    2206:	c4478793          	addi	a5,a5,-956 # 40005c44 <_eusrstack+0x20003444>
    220a:	439c                	lw	a5,0(a5)
    220c:	07c2                	slli	a5,a5,0x10
    220e:	83c1                	srli	a5,a5,0x10
    2210:	4007f793          	andi	a5,a5,1024
    2214:	d7fd                	beqz	a5,2202 <USB_Istr+0x296>
    2216:	400067b7          	lui	a5,0x40006
    221a:	c4478793          	addi	a5,a5,-956 # 40005c44 <_eusrstack+0x20003444>
    221e:	6741                	lui	a4,0x10
    2220:	bff70713          	addi	a4,a4,-1025 # fbff <_data_lma+0xb467>
    2224:	c398                	sw	a4,0(a5)
    2226:	fe042623          	sw	zero,-20(s0)
    222a:	a825                	j	2262 <USB_Istr+0x2f6>
    222c:	fec42783          	lw	a5,-20(s0)
    2230:	078a                	slli	a5,a5,0x2
    2232:	ff040713          	addi	a4,s0,-16
    2236:	97ba                	add	a5,a5,a4
    2238:	fdc7a783          	lw	a5,-36(a5)
    223c:	01079693          	slli	a3,a5,0x10
    2240:	82c1                	srli	a3,a3,0x10
    2242:	fec42783          	lw	a5,-20(s0)
    2246:	00279713          	slli	a4,a5,0x2
    224a:	400067b7          	lui	a5,0x40006
    224e:	c0078793          	addi	a5,a5,-1024 # 40005c00 <_eusrstack+0x20003400>
    2252:	97ba                	add	a5,a5,a4
    2254:	8736                	mv	a4,a3
    2256:	c398                	sw	a4,0(a5)
    2258:	fec42783          	lw	a5,-20(s0)
    225c:	0785                	addi	a5,a5,1
    225e:	fef42623          	sw	a5,-20(s0)
    2262:	fec42703          	lw	a4,-20(s0)
    2266:	479d                	li	a5,7
    2268:	fce7f2e3          	bgeu	a5,a4,222c <USB_Istr+0x2c0>
    226c:	8401aa23          	sw	zero,-1964(gp) # 2000028c <esof_counter>
    2270:	a019                	j	2276 <USB_Istr+0x30a>
    2272:	8401aa23          	sw	zero,-1964(gp) # 2000028c <esof_counter>
    2276:	451d                	li	a0,7
    2278:	305000ef          	jal	ra,2d7c <Resume>
    227c:	0001                	nop
    227e:	50f2                	lw	ra,60(sp)
    2280:	5462                	lw	s0,56(sp)
    2282:	6121                	addi	sp,sp,64
    2284:	8082                	ret

00002286 <UserToPMABufferCopy>:
    2286:	7139                	addi	sp,sp,-64
    2288:	de22                	sw	s0,60(sp)
    228a:	0080                	addi	s0,sp,64
    228c:	fca42623          	sw	a0,-52(s0)
    2290:	87ae                	mv	a5,a1
    2292:	8732                	mv	a4,a2
    2294:	fcf41523          	sh	a5,-54(s0)
    2298:	87ba                	mv	a5,a4
    229a:	fcf41423          	sh	a5,-56(s0)
    229e:	fc845783          	lhu	a5,-56(s0)
    22a2:	0785                	addi	a5,a5,1
    22a4:	8785                	srai	a5,a5,0x1
    22a6:	fef42223          	sw	a5,-28(s0)
    22aa:	fca45703          	lhu	a4,-54(s0)
    22ae:	200037b7          	lui	a5,0x20003
    22b2:	97ba                	add	a5,a5,a4
    22b4:	0786                	slli	a5,a5,0x1
    22b6:	fef42423          	sw	a5,-24(s0)
    22ba:	fe442783          	lw	a5,-28(s0)
    22be:	fef42623          	sw	a5,-20(s0)
    22c2:	a8b9                	j	2320 <UserToPMABufferCopy+0x9a>
    22c4:	fcc42783          	lw	a5,-52(s0)
    22c8:	239c                	lbu	a5,0(a5)
    22ca:	fef42023          	sw	a5,-32(s0)
    22ce:	fcc42783          	lw	a5,-52(s0)
    22d2:	0785                	addi	a5,a5,1
    22d4:	fcf42623          	sw	a5,-52(s0)
    22d8:	fcc42783          	lw	a5,-52(s0)
    22dc:	239c                	lbu	a5,0(a5)
    22de:	07a2                	slli	a5,a5,0x8
    22e0:	873e                	mv	a4,a5
    22e2:	fe042783          	lw	a5,-32(s0)
    22e6:	8fd9                	or	a5,a5,a4
    22e8:	fcf42e23          	sw	a5,-36(s0)
    22ec:	fe842783          	lw	a5,-24(s0)
    22f0:	00278713          	addi	a4,a5,2 # 20003002 <_eusrstack+0x802>
    22f4:	fee42423          	sw	a4,-24(s0)
    22f8:	fdc42703          	lw	a4,-36(s0)
    22fc:	0742                	slli	a4,a4,0x10
    22fe:	8341                	srli	a4,a4,0x10
    2300:	a39a                	sh	a4,0(a5)
    2302:	fe842783          	lw	a5,-24(s0)
    2306:	0789                	addi	a5,a5,2
    2308:	fef42423          	sw	a5,-24(s0)
    230c:	fcc42783          	lw	a5,-52(s0)
    2310:	0785                	addi	a5,a5,1
    2312:	fcf42623          	sw	a5,-52(s0)
    2316:	fec42783          	lw	a5,-20(s0)
    231a:	17fd                	addi	a5,a5,-1
    231c:	fef42623          	sw	a5,-20(s0)
    2320:	fec42783          	lw	a5,-20(s0)
    2324:	f3c5                	bnez	a5,22c4 <UserToPMABufferCopy+0x3e>
    2326:	0001                	nop
    2328:	5472                	lw	s0,60(sp)
    232a:	6121                	addi	sp,sp,64
    232c:	8082                	ret

0000232e <PMAToUserBufferCopy>:
    232e:	7179                	addi	sp,sp,-48
    2330:	d622                	sw	s0,44(sp)
    2332:	1800                	addi	s0,sp,48
    2334:	fca42e23          	sw	a0,-36(s0)
    2338:	87ae                	mv	a5,a1
    233a:	8732                	mv	a4,a2
    233c:	fcf41d23          	sh	a5,-38(s0)
    2340:	87ba                	mv	a5,a4
    2342:	fcf41c23          	sh	a5,-40(s0)
    2346:	fd845783          	lhu	a5,-40(s0)
    234a:	0785                	addi	a5,a5,1
    234c:	8785                	srai	a5,a5,0x1
    234e:	fef42223          	sw	a5,-28(s0)
    2352:	fda45703          	lhu	a4,-38(s0)
    2356:	200037b7          	lui	a5,0x20003
    235a:	97ba                	add	a5,a5,a4
    235c:	0786                	slli	a5,a5,0x1
    235e:	fef42423          	sw	a5,-24(s0)
    2362:	fe442783          	lw	a5,-28(s0)
    2366:	fef42623          	sw	a5,-20(s0)
    236a:	a825                	j	23a2 <PMAToUserBufferCopy+0x74>
    236c:	fe842783          	lw	a5,-24(s0)
    2370:	00478713          	addi	a4,a5,4 # 20003004 <_eusrstack+0x804>
    2374:	fee42423          	sw	a4,-24(s0)
    2378:	4394                	lw	a3,0(a5)
    237a:	fdc42783          	lw	a5,-36(s0)
    237e:	00178713          	addi	a4,a5,1
    2382:	fce42e23          	sw	a4,-36(s0)
    2386:	01069713          	slli	a4,a3,0x10
    238a:	8341                	srli	a4,a4,0x10
    238c:	a39a                	sh	a4,0(a5)
    238e:	fdc42783          	lw	a5,-36(s0)
    2392:	0785                	addi	a5,a5,1
    2394:	fcf42e23          	sw	a5,-36(s0)
    2398:	fec42783          	lw	a5,-20(s0)
    239c:	17fd                	addi	a5,a5,-1
    239e:	fef42623          	sw	a5,-20(s0)
    23a2:	fec42783          	lw	a5,-20(s0)
    23a6:	f3f9                	bnez	a5,236c <PMAToUserBufferCopy+0x3e>
    23a8:	0001                	nop
    23aa:	5432                	lw	s0,44(sp)
    23ac:	6145                	addi	sp,sp,48
    23ae:	8082                	ret

000023b0 <USBD_SetConfiguration>:
    23b0:	1101                	addi	sp,sp,-32
    23b2:	ce22                	sw	s0,28(sp)
    23b4:	1000                	addi	s0,sp,32
    23b6:	88418793          	addi	a5,gp,-1916 # 200002bc <Device_Info>
    23ba:	fef42623          	sw	a5,-20(s0)
    23be:	fec42783          	lw	a5,-20(s0)
    23c2:	27bc                	lbu	a5,10(a5)
    23c4:	c781                	beqz	a5,23cc <USBD_SetConfiguration+0x1c>
    23c6:	4715                	li	a4,5
    23c8:	86e1a223          	sw	a4,-1948(gp) # 2000029c <bDeviceState>
    23cc:	0001                	nop
    23ce:	4472                	lw	s0,28(sp)
    23d0:	6105                	addi	sp,sp,32
    23d2:	8082                	ret

000023d4 <USBD_SetDeviceAddress>:
    23d4:	1141                	addi	sp,sp,-16
    23d6:	c622                	sw	s0,12(sp)
    23d8:	0800                	addi	s0,sp,16
    23da:	4711                	li	a4,4
    23dc:	86e1a223          	sw	a4,-1948(gp) # 2000029c <bDeviceState>
    23e0:	0001                	nop
    23e2:	4432                	lw	s0,12(sp)
    23e4:	0141                	addi	sp,sp,16
    23e6:	8082                	ret

000023e8 <USBD_SetDeviceFeature>:
    23e8:	1141                	addi	sp,sp,-16
    23ea:	c622                	sw	s0,12(sp)
    23ec:	0800                	addi	s0,sp,16
    23ee:	0001                	nop
    23f0:	4432                	lw	s0,12(sp)
    23f2:	0141                	addi	sp,sp,16
    23f4:	8082                	ret

000023f6 <USBD_ClearFeature>:
    23f6:	1141                	addi	sp,sp,-16
    23f8:	c622                	sw	s0,12(sp)
    23fa:	0800                	addi	s0,sp,16
    23fc:	0001                	nop
    23fe:	4432                	lw	s0,12(sp)
    2400:	0141                	addi	sp,sp,16
    2402:	8082                	ret

00002404 <USBD_Status_In>:
    2404:	1101                	addi	sp,sp,-32
    2406:	ce22                	sw	s0,28(sp)
    2408:	1000                	addi	s0,sp,32
    240a:	8381a783          	lw	a5,-1992(gp) # 20000270 <pInformation>
    240e:	239c                	lbu	a5,0(a5)
    2410:	07f7f713          	andi	a4,a5,127
    2414:	02100793          	li	a5,33
    2418:	02f71663          	bne	a4,a5,2444 <USBD_Status_In+0x40>
    241c:	8381a783          	lw	a5,-1992(gp) # 20000270 <pInformation>
    2420:	3398                	lbu	a4,1(a5)
    2422:	47a5                	li	a5,9
    2424:	02f71063          	bne	a4,a5,2444 <USBD_Status_In+0x40>
    2428:	fe041723          	sh	zero,-18(s0)
    242c:	a031                	j	2438 <USBD_Status_In+0x34>
    242e:	fee45783          	lhu	a5,-18(s0)
    2432:	0785                	addi	a5,a5,1
    2434:	fef41723          	sh	a5,-18(s0)
    2438:	fee45703          	lhu	a4,-18(s0)
    243c:	03f00793          	li	a5,63
    2440:	fee7f7e3          	bgeu	a5,a4,242e <USBD_Status_In+0x2a>
    2444:	0001                	nop
    2446:	4472                	lw	s0,28(sp)
    2448:	6105                	addi	sp,sp,32
    244a:	8082                	ret

0000244c <USBD_Status_Out>:
    244c:	1141                	addi	sp,sp,-16
    244e:	c622                	sw	s0,12(sp)
    2450:	0800                	addi	s0,sp,16
    2452:	0001                	nop
    2454:	4432                	lw	s0,12(sp)
    2456:	0141                	addi	sp,sp,16
    2458:	8082                	ret

0000245a <USBD_init>:
    245a:	1101                	addi	sp,sp,-32
    245c:	ce06                	sw	ra,28(sp)
    245e:	cc22                	sw	s0,24(sp)
    2460:	1000                	addi	s0,sp,32
    2462:	8381a783          	lw	a5,-1992(gp) # 20000270 <pInformation>
    2466:	00078523          	sb	zero,10(a5)
    246a:	70a000ef          	jal	ra,2b74 <PowerOn>
    246e:	fe0407a3          	sb	zero,-17(s0)
    2472:	a089                	j	24b4 <USBD_init+0x5a>
    2474:	fef44783          	lbu	a5,-17(s0)
    2478:	00279713          	slli	a4,a5,0x2
    247c:	400067b7          	lui	a5,0x40006
    2480:	c0078793          	addi	a5,a5,-1024 # 40005c00 <_eusrstack+0x20003400>
    2484:	97ba                	add	a5,a5,a4
    2486:	439c                	lw	a5,0(a5)
    2488:	07c2                	slli	a5,a5,0x10
    248a:	83c1                	srli	a5,a5,0x10
    248c:	86be                	mv	a3,a5
    248e:	fef44783          	lbu	a5,-17(s0)
    2492:	00279713          	slli	a4,a5,0x2
    2496:	400067b7          	lui	a5,0x40006
    249a:	c0078793          	addi	a5,a5,-1024 # 40005c00 <_eusrstack+0x20003400>
    249e:	97ba                	add	a5,a5,a4
    24a0:	6705                	lui	a4,0x1
    24a2:	f0f70713          	addi	a4,a4,-241 # f0f <NoData_Setup0+0xed>
    24a6:	8f75                	and	a4,a4,a3
    24a8:	c398                	sw	a4,0(a5)
    24aa:	fef44783          	lbu	a5,-17(s0)
    24ae:	0785                	addi	a5,a5,1
    24b0:	fef407a3          	sb	a5,-17(s0)
    24b4:	fef44703          	lbu	a4,-17(s0)
    24b8:	479d                	li	a5,7
    24ba:	fae7fde3          	bgeu	a5,a4,2474 <USBD_init+0x1a>
    24be:	400067b7          	lui	a5,0x40006
    24c2:	c4478793          	addi	a5,a5,-956 # 40005c44 <_eusrstack+0x20003444>
    24c6:	0ff00713          	li	a4,255
    24ca:	c398                	sw	a4,0(a5)
    24cc:	192010ef          	jal	ra,365e <USB_SIL_Init>
    24d0:	8601a223          	sw	zero,-1948(gp) # 2000029c <bDeviceState>
    24d4:	4581                	li	a1,0
    24d6:	4501                	li	a0,0
    24d8:	d29fd0ef          	jal	ra,200 <USB_Port_Set>
    24dc:	4551                	li	a0,20
    24de:	345010ef          	jal	ra,4022 <Delay_ms>
    24e2:	4585                	li	a1,1
    24e4:	4505                	li	a0,1
    24e6:	d1bfd0ef          	jal	ra,200 <USB_Port_Set>
    24ea:	0001                	nop
    24ec:	40f2                	lw	ra,28(sp)
    24ee:	4462                	lw	s0,24(sp)
    24f0:	6105                	addi	sp,sp,32
    24f2:	8082                	ret

000024f4 <USBD_Reset>:
    24f4:	1141                	addi	sp,sp,-16
    24f6:	c606                	sw	ra,12(sp)
    24f8:	c422                	sw	s0,8(sp)
    24fa:	0800                	addi	s0,sp,16
    24fc:	8381a783          	lw	a5,-1992(gp) # 20000270 <pInformation>
    2500:	00078523          	sb	zero,10(a5)
    2504:	8381a783          	lw	a5,-1992(gp) # 20000270 <pInformation>
    2508:	6711                	lui	a4,0x4
    250a:	6f070713          	addi	a4,a4,1776 # 46f0 <USBD_ConfigDescriptor>
    250e:	3378                	lbu	a4,7(a4)
    2510:	b798                	sb	a4,9(a5)
    2512:	8381a783          	lw	a5,-1992(gp) # 20000270 <pInformation>
    2516:	000785a3          	sb	zero,11(a5)
    251a:	4501                	li	a0,0
    251c:	19f000ef          	jal	ra,2eba <SetBTABLE>
    2520:	20000593          	li	a1,512
    2524:	4501                	li	a0,0
    2526:	1bd000ef          	jal	ra,2ee2 <SetEPType>
    252a:	45c1                	li	a1,16
    252c:	4501                	li	a0,0
    252e:	21f000ef          	jal	ra,2f4c <SetEPTxStatus>
    2532:	04000593          	li	a1,64
    2536:	4501                	li	a0,0
    2538:	63f000ef          	jal	ra,3376 <SetEPRxAddr>
    253c:	08000593          	li	a1,128
    2540:	4501                	li	a0,0
    2542:	5e7000ef          	jal	ra,3328 <SetEPTxAddr>
    2546:	4501                	li	a0,0
    2548:	493000ef          	jal	ra,31da <Clear_Status_Out>
    254c:	200007b7          	lui	a5,0x20000
    2550:	1c078793          	addi	a5,a5,448 # 200001c0 <Device_Property>
    2554:	02c7c783          	lbu	a5,44(a5)
    2558:	07c2                	slli	a5,a5,0x10
    255a:	83c1                	srli	a5,a5,0x10
    255c:	85be                	mv	a1,a5
    255e:	4501                	li	a0,0
    2560:	723000ef          	jal	ra,3482 <SetEPRxCount>
    2564:	4501                	li	a0,0
    2566:	3b3000ef          	jal	ra,3118 <SetEPRxValid>
    256a:	400067b7          	lui	a5,0x40006
    256e:	c0078793          	addi	a5,a5,-1024 # 40005c00 <_eusrstack+0x20003400>
    2572:	439c                	lw	a5,0(a5)
    2574:	07c2                	slli	a5,a5,0x10
    2576:	83c1                	srli	a5,a5,0x10
    2578:	873e                	mv	a4,a5
    257a:	6791                	lui	a5,0x4
    257c:	8ff9                	and	a5,a5,a4
    257e:	c795                	beqz	a5,25aa <USBD_Reset+0xb6>
    2580:	400067b7          	lui	a5,0x40006
    2584:	c0078793          	addi	a5,a5,-1024 # 40005c00 <_eusrstack+0x20003400>
    2588:	439c                	lw	a5,0(a5)
    258a:	07c2                	slli	a5,a5,0x10
    258c:	83c1                	srli	a5,a5,0x10
    258e:	873e                	mv	a4,a5
    2590:	6785                	lui	a5,0x1
    2592:	f0f78793          	addi	a5,a5,-241 # f0f <NoData_Setup0+0xed>
    2596:	8f7d                	and	a4,a4,a5
    2598:	67b1                	lui	a5,0xc
    259a:	08078793          	addi	a5,a5,128 # c080 <_data_lma+0x78e8>
    259e:	8f5d                	or	a4,a4,a5
    25a0:	400067b7          	lui	a5,0x40006
    25a4:	c0078793          	addi	a5,a5,-1024 # 40005c00 <_eusrstack+0x20003400>
    25a8:	c398                	sw	a4,0(a5)
    25aa:	400067b7          	lui	a5,0x40006
    25ae:	c0078793          	addi	a5,a5,-1024 # 40005c00 <_eusrstack+0x20003400>
    25b2:	439c                	lw	a5,0(a5)
    25b4:	07c2                	slli	a5,a5,0x10
    25b6:	83c1                	srli	a5,a5,0x10
    25b8:	0407f793          	andi	a5,a5,64
    25bc:	c795                	beqz	a5,25e8 <USBD_Reset+0xf4>
    25be:	400067b7          	lui	a5,0x40006
    25c2:	c0078793          	addi	a5,a5,-1024 # 40005c00 <_eusrstack+0x20003400>
    25c6:	439c                	lw	a5,0(a5)
    25c8:	07c2                	slli	a5,a5,0x10
    25ca:	83c1                	srli	a5,a5,0x10
    25cc:	873e                	mv	a4,a5
    25ce:	6785                	lui	a5,0x1
    25d0:	f0f78793          	addi	a5,a5,-241 # f0f <NoData_Setup0+0xed>
    25d4:	8f7d                	and	a4,a4,a5
    25d6:	67a1                	lui	a5,0x8
    25d8:	0c078793          	addi	a5,a5,192 # 80c0 <_data_lma+0x3928>
    25dc:	8f5d                	or	a4,a4,a5
    25de:	400067b7          	lui	a5,0x40006
    25e2:	c0078793          	addi	a5,a5,-1024 # 40005c00 <_eusrstack+0x20003400>
    25e6:	c398                	sw	a4,0(a5)
    25e8:	60000593          	li	a1,1536
    25ec:	4505                	li	a0,1
    25ee:	0f5000ef          	jal	ra,2ee2 <SetEPType>
    25f2:	4581                	li	a1,0
    25f4:	4505                	li	a0,1
    25f6:	157000ef          	jal	ra,2f4c <SetEPTxStatus>
    25fa:	0c000593          	li	a1,192
    25fe:	4505                	li	a0,1
    2600:	577000ef          	jal	ra,3376 <SetEPRxAddr>
    2604:	04000593          	li	a1,64
    2608:	4505                	li	a0,1
    260a:	679000ef          	jal	ra,3482 <SetEPRxCount>
    260e:	658d                	lui	a1,0x3
    2610:	4505                	li	a0,1
    2612:	21f000ef          	jal	ra,3030 <SetEPRxStatus>
    2616:	400067b7          	lui	a5,0x40006
    261a:	c0478793          	addi	a5,a5,-1020 # 40005c04 <_eusrstack+0x20003404>
    261e:	439c                	lw	a5,0(a5)
    2620:	07c2                	slli	a5,a5,0x10
    2622:	83c1                	srli	a5,a5,0x10
    2624:	0407f793          	andi	a5,a5,64
    2628:	c795                	beqz	a5,2654 <USBD_Reset+0x160>
    262a:	400067b7          	lui	a5,0x40006
    262e:	c0478793          	addi	a5,a5,-1020 # 40005c04 <_eusrstack+0x20003404>
    2632:	439c                	lw	a5,0(a5)
    2634:	07c2                	slli	a5,a5,0x10
    2636:	83c1                	srli	a5,a5,0x10
    2638:	873e                	mv	a4,a5
    263a:	6785                	lui	a5,0x1
    263c:	f0f78793          	addi	a5,a5,-241 # f0f <NoData_Setup0+0xed>
    2640:	8f7d                	and	a4,a4,a5
    2642:	67a1                	lui	a5,0x8
    2644:	0c078793          	addi	a5,a5,192 # 80c0 <_data_lma+0x3928>
    2648:	8f5d                	or	a4,a4,a5
    264a:	400067b7          	lui	a5,0x40006
    264e:	c0478793          	addi	a5,a5,-1020 # 40005c04 <_eusrstack+0x20003404>
    2652:	c398                	sw	a4,0(a5)
    2654:	400067b7          	lui	a5,0x40006
    2658:	c0478793          	addi	a5,a5,-1020 # 40005c04 <_eusrstack+0x20003404>
    265c:	439c                	lw	a5,0(a5)
    265e:	07c2                	slli	a5,a5,0x10
    2660:	83c1                	srli	a5,a5,0x10
    2662:	873e                	mv	a4,a5
    2664:	6791                	lui	a5,0x4
    2666:	8ff9                	and	a5,a5,a4
    2668:	c795                	beqz	a5,2694 <USBD_Reset+0x1a0>
    266a:	400067b7          	lui	a5,0x40006
    266e:	c0478793          	addi	a5,a5,-1020 # 40005c04 <_eusrstack+0x20003404>
    2672:	439c                	lw	a5,0(a5)
    2674:	07c2                	slli	a5,a5,0x10
    2676:	83c1                	srli	a5,a5,0x10
    2678:	873e                	mv	a4,a5
    267a:	6785                	lui	a5,0x1
    267c:	f0f78793          	addi	a5,a5,-241 # f0f <NoData_Setup0+0xed>
    2680:	8f7d                	and	a4,a4,a5
    2682:	67b1                	lui	a5,0xc
    2684:	08078793          	addi	a5,a5,128 # c080 <_data_lma+0x78e8>
    2688:	8f5d                	or	a4,a4,a5
    268a:	400067b7          	lui	a5,0x40006
    268e:	c0478793          	addi	a5,a5,-1020 # 40005c04 <_eusrstack+0x20003404>
    2692:	c398                	sw	a4,0(a5)
    2694:	60000593          	li	a1,1536
    2698:	4509                	li	a0,2
    269a:	049000ef          	jal	ra,2ee2 <SetEPType>
    269e:	10000593          	li	a1,256
    26a2:	4509                	li	a0,2
    26a4:	485000ef          	jal	ra,3328 <SetEPTxAddr>
    26a8:	02000593          	li	a1,32
    26ac:	4509                	li	a0,2
    26ae:	09f000ef          	jal	ra,2f4c <SetEPTxStatus>
    26b2:	4581                	li	a1,0
    26b4:	4509                	li	a0,2
    26b6:	17b000ef          	jal	ra,3030 <SetEPRxStatus>
    26ba:	400067b7          	lui	a5,0x40006
    26be:	c0878793          	addi	a5,a5,-1016 # 40005c08 <_eusrstack+0x20003408>
    26c2:	439c                	lw	a5,0(a5)
    26c4:	07c2                	slli	a5,a5,0x10
    26c6:	83c1                	srli	a5,a5,0x10
    26c8:	0407f793          	andi	a5,a5,64
    26cc:	c795                	beqz	a5,26f8 <USBD_Reset+0x204>
    26ce:	400067b7          	lui	a5,0x40006
    26d2:	c0878793          	addi	a5,a5,-1016 # 40005c08 <_eusrstack+0x20003408>
    26d6:	439c                	lw	a5,0(a5)
    26d8:	07c2                	slli	a5,a5,0x10
    26da:	83c1                	srli	a5,a5,0x10
    26dc:	873e                	mv	a4,a5
    26de:	6785                	lui	a5,0x1
    26e0:	f0f78793          	addi	a5,a5,-241 # f0f <NoData_Setup0+0xed>
    26e4:	8f7d                	and	a4,a4,a5
    26e6:	67a1                	lui	a5,0x8
    26e8:	0c078793          	addi	a5,a5,192 # 80c0 <_data_lma+0x3928>
    26ec:	8f5d                	or	a4,a4,a5
    26ee:	400067b7          	lui	a5,0x40006
    26f2:	c0878793          	addi	a5,a5,-1016 # 40005c08 <_eusrstack+0x20003408>
    26f6:	c398                	sw	a4,0(a5)
    26f8:	400067b7          	lui	a5,0x40006
    26fc:	c0878793          	addi	a5,a5,-1016 # 40005c08 <_eusrstack+0x20003408>
    2700:	439c                	lw	a5,0(a5)
    2702:	07c2                	slli	a5,a5,0x10
    2704:	83c1                	srli	a5,a5,0x10
    2706:	873e                	mv	a4,a5
    2708:	6791                	lui	a5,0x4
    270a:	8ff9                	and	a5,a5,a4
    270c:	c795                	beqz	a5,2738 <USBD_Reset+0x244>
    270e:	400067b7          	lui	a5,0x40006
    2712:	c0878793          	addi	a5,a5,-1016 # 40005c08 <_eusrstack+0x20003408>
    2716:	439c                	lw	a5,0(a5)
    2718:	07c2                	slli	a5,a5,0x10
    271a:	83c1                	srli	a5,a5,0x10
    271c:	873e                	mv	a4,a5
    271e:	6785                	lui	a5,0x1
    2720:	f0f78793          	addi	a5,a5,-241 # f0f <NoData_Setup0+0xed>
    2724:	8f7d                	and	a4,a4,a5
    2726:	67b1                	lui	a5,0xc
    2728:	08078793          	addi	a5,a5,128 # c080 <_data_lma+0x78e8>
    272c:	8f5d                	or	a4,a4,a5
    272e:	400067b7          	lui	a5,0x40006
    2732:	c0878793          	addi	a5,a5,-1016 # 40005c08 <_eusrstack+0x20003408>
    2736:	c398                	sw	a4,0(a5)
    2738:	4501                	li	a0,0
    273a:	ea3fe0ef          	jal	ra,15dc <SetDeviceAddress>
    273e:	4705                	li	a4,1
    2740:	86e1a223          	sw	a4,-1948(gp) # 2000029c <bDeviceState>
    2744:	0001                	nop
    2746:	40b2                	lw	ra,12(sp)
    2748:	4422                	lw	s0,8(sp)
    274a:	0141                	addi	sp,sp,16
    274c:	8082                	ret

0000274e <USBD_GetDeviceDescriptor>:
    274e:	1101                	addi	sp,sp,-32
    2750:	ce06                	sw	ra,28(sp)
    2752:	cc22                	sw	s0,24(sp)
    2754:	1000                	addi	s0,sp,32
    2756:	87aa                	mv	a5,a0
    2758:	fef41723          	sh	a5,-18(s0)
    275c:	fee45703          	lhu	a4,-18(s0)
    2760:	200007b7          	lui	a5,0x20000
    2764:	23c78593          	addi	a1,a5,572 # 2000023c <Device_Descriptor>
    2768:	853a                	mv	a0,a4
    276a:	bcefe0ef          	jal	ra,b38 <Standard_GetDescriptorData>
    276e:	87aa                	mv	a5,a0
    2770:	853e                	mv	a0,a5
    2772:	40f2                	lw	ra,28(sp)
    2774:	4462                	lw	s0,24(sp)
    2776:	6105                	addi	sp,sp,32
    2778:	8082                	ret

0000277a <USBD_GetConfigDescriptor>:
    277a:	1101                	addi	sp,sp,-32
    277c:	ce06                	sw	ra,28(sp)
    277e:	cc22                	sw	s0,24(sp)
    2780:	1000                	addi	s0,sp,32
    2782:	87aa                	mv	a5,a0
    2784:	fef41723          	sh	a5,-18(s0)
    2788:	fee45703          	lhu	a4,-18(s0)
    278c:	80c18593          	addi	a1,gp,-2036 # 20000244 <Config_Descriptor>
    2790:	853a                	mv	a0,a4
    2792:	ba6fe0ef          	jal	ra,b38 <Standard_GetDescriptorData>
    2796:	87aa                	mv	a5,a0
    2798:	853e                	mv	a0,a5
    279a:	40f2                	lw	ra,28(sp)
    279c:	4462                	lw	s0,24(sp)
    279e:	6105                	addi	sp,sp,32
    27a0:	8082                	ret

000027a2 <USBD_GetStringDescriptor>:
    27a2:	7179                	addi	sp,sp,-48
    27a4:	d606                	sw	ra,44(sp)
    27a6:	d422                	sw	s0,40(sp)
    27a8:	1800                	addi	s0,sp,48
    27aa:	87aa                	mv	a5,a0
    27ac:	fcf41f23          	sh	a5,-34(s0)
    27b0:	8381a783          	lw	a5,-1992(gp) # 20000270 <pInformation>
    27b4:	33bc                	lbu	a5,3(a5)
    27b6:	fef407a3          	sb	a5,-17(s0)
    27ba:	fef44703          	lbu	a4,-17(s0)
    27be:	4791                	li	a5,4
    27c0:	00e7f463          	bgeu	a5,a4,27c8 <USBD_GetStringDescriptor+0x26>
    27c4:	4781                	li	a5,0
    27c6:	a00d                	j	27e8 <USBD_GetStringDescriptor+0x46>
    27c8:	fef44783          	lbu	a5,-17(s0)
    27cc:	00379713          	slli	a4,a5,0x3
    27d0:	200007b7          	lui	a5,0x20000
    27d4:	21478793          	addi	a5,a5,532 # 20000214 <String_Descriptor>
    27d8:	973e                	add	a4,a4,a5
    27da:	fde45783          	lhu	a5,-34(s0)
    27de:	85ba                	mv	a1,a4
    27e0:	853e                	mv	a0,a5
    27e2:	b56fe0ef          	jal	ra,b38 <Standard_GetDescriptorData>
    27e6:	87aa                	mv	a5,a0
    27e8:	853e                	mv	a0,a5
    27ea:	50b2                	lw	ra,44(sp)
    27ec:	5422                	lw	s0,40(sp)
    27ee:	6145                	addi	sp,sp,48
    27f0:	8082                	ret

000027f2 <USBD_GetReportDescriptor>:
    27f2:	7179                	addi	sp,sp,-48
    27f4:	d606                	sw	ra,44(sp)
    27f6:	d422                	sw	s0,40(sp)
    27f8:	1800                	addi	s0,sp,48
    27fa:	87aa                	mv	a5,a0
    27fc:	fcf41f23          	sh	a5,-34(s0)
    2800:	8381a783          	lw	a5,-1992(gp) # 20000270 <pInformation>
    2804:	33dc                	lbu	a5,5(a5)
    2806:	fef407a3          	sb	a5,-17(s0)
    280a:	fef44703          	lbu	a4,-17(s0)
    280e:	4789                	li	a5,2
    2810:	00e7f463          	bgeu	a5,a4,2818 <USBD_GetReportDescriptor+0x26>
    2814:	4781                	li	a5,0
    2816:	a839                	j	2834 <USBD_GetReportDescriptor+0x42>
    2818:	fef44783          	lbu	a5,-17(s0)
    281c:	00379713          	slli	a4,a5,0x3
    2820:	81418793          	addi	a5,gp,-2028 # 2000024c <Report_Descriptor>
    2824:	973e                	add	a4,a4,a5
    2826:	fde45783          	lhu	a5,-34(s0)
    282a:	85ba                	mv	a1,a4
    282c:	853e                	mv	a0,a5
    282e:	b0afe0ef          	jal	ra,b38 <Standard_GetDescriptorData>
    2832:	87aa                	mv	a5,a0
    2834:	853e                	mv	a0,a5
    2836:	50b2                	lw	ra,44(sp)
    2838:	5422                	lw	s0,40(sp)
    283a:	6145                	addi	sp,sp,48
    283c:	8082                	ret

0000283e <USBD_GetHidDescriptor>:
    283e:	7179                	addi	sp,sp,-48
    2840:	d606                	sw	ra,44(sp)
    2842:	d422                	sw	s0,40(sp)
    2844:	1800                	addi	s0,sp,48
    2846:	87aa                	mv	a5,a0
    2848:	fcf41f23          	sh	a5,-34(s0)
    284c:	8381a783          	lw	a5,-1992(gp) # 20000270 <pInformation>
    2850:	33dc                	lbu	a5,5(a5)
    2852:	fef407a3          	sb	a5,-17(s0)
    2856:	fef44703          	lbu	a4,-17(s0)
    285a:	4789                	li	a5,2
    285c:	00e7f463          	bgeu	a5,a4,2864 <USBD_GetHidDescriptor+0x26>
    2860:	4781                	li	a5,0
    2862:	a839                	j	2880 <USBD_GetHidDescriptor+0x42>
    2864:	fef44783          	lbu	a5,-17(s0)
    2868:	00379713          	slli	a4,a5,0x3
    286c:	81c18793          	addi	a5,gp,-2020 # 20000254 <Hid_Descriptor>
    2870:	973e                	add	a4,a4,a5
    2872:	fde45783          	lhu	a5,-34(s0)
    2876:	85ba                	mv	a1,a4
    2878:	853e                	mv	a0,a5
    287a:	abefe0ef          	jal	ra,b38 <Standard_GetDescriptorData>
    287e:	87aa                	mv	a5,a0
    2880:	853e                	mv	a0,a5
    2882:	50b2                	lw	ra,44(sp)
    2884:	5422                	lw	s0,40(sp)
    2886:	6145                	addi	sp,sp,48
    2888:	8082                	ret

0000288a <USBD_Get_Interface_Setting>:
    288a:	1101                	addi	sp,sp,-32
    288c:	ce22                	sw	s0,28(sp)
    288e:	1000                	addi	s0,sp,32
    2890:	87aa                	mv	a5,a0
    2892:	872e                	mv	a4,a1
    2894:	fef407a3          	sb	a5,-17(s0)
    2898:	87ba                	mv	a5,a4
    289a:	fef40723          	sb	a5,-18(s0)
    289e:	fee44783          	lbu	a5,-18(s0)
    28a2:	c399                	beqz	a5,28a8 <USBD_Get_Interface_Setting+0x1e>
    28a4:	4789                	li	a5,2
    28a6:	a809                	j	28b8 <USBD_Get_Interface_Setting+0x2e>
    28a8:	fef44703          	lbu	a4,-17(s0)
    28ac:	4785                	li	a5,1
    28ae:	00e7f463          	bgeu	a5,a4,28b6 <USBD_Get_Interface_Setting+0x2c>
    28b2:	4789                	li	a5,2
    28b4:	a011                	j	28b8 <USBD_Get_Interface_Setting+0x2e>
    28b6:	4781                	li	a5,0
    28b8:	853e                	mv	a0,a5
    28ba:	4472                	lw	s0,28(sp)
    28bc:	6105                	addi	sp,sp,32
    28be:	8082                	ret

000028c0 <USBD_Data_Setup>:
    28c0:	7179                	addi	sp,sp,-48
    28c2:	d606                	sw	ra,44(sp)
    28c4:	d422                	sw	s0,40(sp)
    28c6:	1800                	addi	s0,sp,48
    28c8:	87aa                	mv	a5,a0
    28ca:	fcf40fa3          	sb	a5,-33(s0)
    28ce:	8381a783          	lw	a5,-1992(gp) # 20000270 <pInformation>
    28d2:	339c                	lbu	a5,1(a5)
    28d4:	fef42423          	sw	a5,-24(s0)
    28d8:	fe042623          	sw	zero,-20(s0)
    28dc:	fe042223          	sw	zero,-28(s0)
    28e0:	8381a783          	lw	a5,-1992(gp) # 20000270 <pInformation>
    28e4:	239c                	lbu	a5,0(a5)
    28e6:	07f7f713          	andi	a4,a5,127
    28ea:	4785                	li	a5,1
    28ec:	06f71663          	bne	a4,a5,2958 <USBD_Data_Setup+0x98>
    28f0:	8381a783          	lw	a5,-1992(gp) # 20000270 <pInformation>
    28f4:	23bc                	lbu	a5,2(a5)
    28f6:	fef401a3          	sb	a5,-29(s0)
    28fa:	fe344703          	lbu	a4,-29(s0)
    28fe:	02200793          	li	a5,34
    2902:	00f71963          	bne	a4,a5,2914 <USBD_Data_Setup+0x54>
    2906:	000027b7          	lui	a5,0x2
    290a:	7f278793          	addi	a5,a5,2034 # 27f2 <USBD_GetReportDescriptor>
    290e:	fef42623          	sw	a5,-20(s0)
    2912:	a829                	j	292c <USBD_Data_Setup+0x6c>
    2914:	fe344703          	lbu	a4,-29(s0)
    2918:	02100793          	li	a5,33
    291c:	00f71863          	bne	a4,a5,292c <USBD_Data_Setup+0x6c>
    2920:	000037b7          	lui	a5,0x3
    2924:	83e78793          	addi	a5,a5,-1986 # 283e <USBD_GetHidDescriptor>
    2928:	fef42623          	sw	a5,-20(s0)
    292c:	fec42783          	lw	a5,-20(s0)
    2930:	c395                	beqz	a5,2954 <USBD_Data_Setup+0x94>
    2932:	8381a783          	lw	a5,-1992(gp) # 20000270 <pInformation>
    2936:	fe442703          	lw	a4,-28(s0)
    293a:	0742                	slli	a4,a4,0x10
    293c:	8341                	srli	a4,a4,0x10
    293e:	abba                	sh	a4,18(a5)
    2940:	8381a783          	lw	a5,-1992(gp) # 20000270 <pInformation>
    2944:	fec42703          	lw	a4,-20(s0)
    2948:	cf98                	sw	a4,24(a5)
    294a:	fec42783          	lw	a5,-20(s0)
    294e:	4501                	li	a0,0
    2950:	9782                	jalr	a5
    2952:	a84d                	j	2a04 <USBD_Data_Setup+0x144>
    2954:	4789                	li	a5,2
    2956:	a845                	j	2a06 <USBD_Data_Setup+0x146>
    2958:	8381a783          	lw	a5,-1992(gp) # 20000270 <pInformation>
    295c:	239c                	lbu	a5,0(a5)
    295e:	07f7f713          	andi	a4,a5,127
    2962:	02100793          	li	a5,33
    2966:	08f71f63          	bne	a4,a5,2a04 <USBD_Data_Setup+0x144>
    296a:	fe842703          	lw	a4,-24(s0)
    296e:	4785                	li	a5,1
    2970:	00f71f63          	bne	a4,a5,298e <USBD_Data_Setup+0xce>
    2974:	8381a783          	lw	a5,-1992(gp) # 20000270 <pInformation>
    2978:	04000713          	li	a4,64
    297c:	ab9a                	sh	a4,16(a5)
    297e:	8381a783          	lw	a5,-1992(gp) # 20000270 <pInformation>
    2982:	00003737          	lui	a4,0x3
    2986:	aa870713          	addi	a4,a4,-1368 # 2aa8 <HID_Get_Report>
    298a:	cf98                	sw	a4,24(a5)
    298c:	a8a5                	j	2a04 <USBD_Data_Setup+0x144>
    298e:	fe842703          	lw	a4,-24(s0)
    2992:	4789                	li	a5,2
    2994:	00f71e63          	bne	a4,a5,29b0 <USBD_Data_Setup+0xf0>
    2998:	8381a783          	lw	a5,-1992(gp) # 20000270 <pInformation>
    299c:	4705                	li	a4,1
    299e:	ab9a                	sh	a4,16(a5)
    29a0:	8381a783          	lw	a5,-1992(gp) # 20000270 <pInformation>
    29a4:	00003737          	lui	a4,0x3
    29a8:	b0870713          	addi	a4,a4,-1272 # 2b08 <HID_Get_Idle>
    29ac:	cf98                	sw	a4,24(a5)
    29ae:	a899                	j	2a04 <USBD_Data_Setup+0x144>
    29b0:	fe842703          	lw	a4,-24(s0)
    29b4:	478d                	li	a5,3
    29b6:	00f71e63          	bne	a4,a5,29d2 <USBD_Data_Setup+0x112>
    29ba:	8381a783          	lw	a5,-1992(gp) # 20000270 <pInformation>
    29be:	4705                	li	a4,1
    29c0:	ab9a                	sh	a4,16(a5)
    29c2:	8381a783          	lw	a5,-1992(gp) # 20000270 <pInformation>
    29c6:	00003737          	lui	a4,0x3
    29ca:	b3e70713          	addi	a4,a4,-1218 # 2b3e <HID_Get_Protocol>
    29ce:	cf98                	sw	a4,24(a5)
    29d0:	a815                	j	2a04 <USBD_Data_Setup+0x144>
    29d2:	fe842703          	lw	a4,-24(s0)
    29d6:	47a5                	li	a5,9
    29d8:	02f71463          	bne	a4,a5,2a00 <USBD_Data_Setup+0x140>
    29dc:	8381a703          	lw	a4,-1992(gp) # 20000270 <pInformation>
    29e0:	8381a783          	lw	a5,-1992(gp) # 20000270 <pInformation>
    29e4:	237a                	lhu	a4,6(a4)
    29e6:	ab9a                	sh	a4,16(a5)
    29e8:	8381a783          	lw	a5,-1992(gp) # 20000270 <pInformation>
    29ec:	00003737          	lui	a4,0x3
    29f0:	ad870713          	addi	a4,a4,-1320 # 2ad8 <HID_Set_Report>
    29f4:	cf98                	sw	a4,24(a5)
    29f6:	8381a783          	lw	a5,-1992(gp) # 20000270 <pInformation>
    29fa:	470d                	li	a4,3
    29fc:	a798                	sb	a4,8(a5)
    29fe:	a019                	j	2a04 <USBD_Data_Setup+0x144>
    2a00:	4789                	li	a5,2
    2a02:	a011                	j	2a06 <USBD_Data_Setup+0x146>
    2a04:	4781                	li	a5,0
    2a06:	853e                	mv	a0,a5
    2a08:	50b2                	lw	ra,44(sp)
    2a0a:	5422                	lw	s0,40(sp)
    2a0c:	6145                	addi	sp,sp,48
    2a0e:	8082                	ret

00002a10 <USBD_NoData_Setup>:
    2a10:	7179                	addi	sp,sp,-48
    2a12:	d622                	sw	s0,44(sp)
    2a14:	1800                	addi	s0,sp,48
    2a16:	87aa                	mv	a5,a0
    2a18:	fcf40fa3          	sb	a5,-33(s0)
    2a1c:	8381a783          	lw	a5,-1992(gp) # 20000270 <pInformation>
    2a20:	339c                	lbu	a5,1(a5)
    2a22:	fef42623          	sw	a5,-20(s0)
    2a26:	8381a783          	lw	a5,-1992(gp) # 20000270 <pInformation>
    2a2a:	33dc                	lbu	a5,5(a5)
    2a2c:	fef405a3          	sb	a5,-21(s0)
    2a30:	8381a783          	lw	a5,-1992(gp) # 20000270 <pInformation>
    2a34:	239c                	lbu	a5,0(a5)
    2a36:	07f7f713          	andi	a4,a5,127
    2a3a:	02100793          	li	a5,33
    2a3e:	06f71063          	bne	a4,a5,2a9e <USBD_NoData_Setup+0x8e>
    2a42:	fec42703          	lw	a4,-20(s0)
    2a46:	47a9                	li	a5,10
    2a48:	02f71363          	bne	a4,a5,2a6e <USBD_NoData_Setup+0x5e>
    2a4c:	feb44703          	lbu	a4,-21(s0)
    2a50:	4789                	li	a5,2
    2a52:	00e7f463          	bgeu	a5,a4,2a5a <USBD_NoData_Setup+0x4a>
    2a56:	4789                	li	a5,2
    2a58:	a0a1                	j	2aa0 <USBD_NoData_Setup+0x90>
    2a5a:	8381a783          	lw	a5,-1992(gp) # 20000270 <pInformation>
    2a5e:	feb44683          	lbu	a3,-21(s0)
    2a62:	23b8                	lbu	a4,2(a5)
    2a64:	85c18793          	addi	a5,gp,-1956 # 20000294 <HID_Idle_Value>
    2a68:	97b6                	add	a5,a5,a3
    2a6a:	a398                	sb	a4,0(a5)
    2a6c:	a80d                	j	2a9e <USBD_NoData_Setup+0x8e>
    2a6e:	fec42703          	lw	a4,-20(s0)
    2a72:	47ad                	li	a5,11
    2a74:	02f71363          	bne	a4,a5,2a9a <USBD_NoData_Setup+0x8a>
    2a78:	feb44703          	lbu	a4,-21(s0)
    2a7c:	4789                	li	a5,2
    2a7e:	00e7f463          	bgeu	a5,a4,2a86 <USBD_NoData_Setup+0x76>
    2a82:	4789                	li	a5,2
    2a84:	a831                	j	2aa0 <USBD_NoData_Setup+0x90>
    2a86:	8381a783          	lw	a5,-1992(gp) # 20000270 <pInformation>
    2a8a:	feb44683          	lbu	a3,-21(s0)
    2a8e:	33b8                	lbu	a4,3(a5)
    2a90:	86018793          	addi	a5,gp,-1952 # 20000298 <HID_Protocol_Value>
    2a94:	97b6                	add	a5,a5,a3
    2a96:	a398                	sb	a4,0(a5)
    2a98:	a019                	j	2a9e <USBD_NoData_Setup+0x8e>
    2a9a:	4789                	li	a5,2
    2a9c:	a011                	j	2aa0 <USBD_NoData_Setup+0x90>
    2a9e:	4781                	li	a5,0
    2aa0:	853e                	mv	a0,a5
    2aa2:	5432                	lw	s0,44(sp)
    2aa4:	6145                	addi	sp,sp,48
    2aa6:	8082                	ret

00002aa8 <HID_Get_Report>:
    2aa8:	7179                	addi	sp,sp,-48
    2aaa:	d622                	sw	s0,44(sp)
    2aac:	1800                	addi	s0,sp,48
    2aae:	87aa                	mv	a5,a0
    2ab0:	fcf41f23          	sh	a5,-34(s0)
    2ab4:	8381a783          	lw	a5,-1992(gp) # 20000270 <pInformation>
    2ab8:	33dc                	lbu	a5,5(a5)
    2aba:	fef407a3          	sb	a5,-17(s0)
    2abe:	fef44703          	lbu	a4,-17(s0)
    2ac2:	4785                	li	a5,1
    2ac4:	00e7f463          	bgeu	a5,a4,2acc <HID_Get_Report+0x24>
    2ac8:	4781                	li	a5,0
    2aca:	a019                	j	2ad0 <HID_Get_Report+0x28>
    2acc:	cd418793          	addi	a5,gp,-812 # 2000070c <HID_Report_Buffer>
    2ad0:	853e                	mv	a0,a5
    2ad2:	5432                	lw	s0,44(sp)
    2ad4:	6145                	addi	sp,sp,48
    2ad6:	8082                	ret

00002ad8 <HID_Set_Report>:
    2ad8:	7179                	addi	sp,sp,-48
    2ada:	d622                	sw	s0,44(sp)
    2adc:	1800                	addi	s0,sp,48
    2ade:	87aa                	mv	a5,a0
    2ae0:	fcf41f23          	sh	a5,-34(s0)
    2ae4:	8381a783          	lw	a5,-1992(gp) # 20000270 <pInformation>
    2ae8:	33dc                	lbu	a5,5(a5)
    2aea:	fef407a3          	sb	a5,-17(s0)
    2aee:	fef44703          	lbu	a4,-17(s0)
    2af2:	4785                	li	a5,1
    2af4:	00e7f463          	bgeu	a5,a4,2afc <HID_Set_Report+0x24>
    2af8:	4781                	li	a5,0
    2afa:	a019                	j	2b00 <HID_Set_Report+0x28>
    2afc:	cd418793          	addi	a5,gp,-812 # 2000070c <HID_Report_Buffer>
    2b00:	853e                	mv	a0,a5
    2b02:	5432                	lw	s0,44(sp)
    2b04:	6145                	addi	sp,sp,48
    2b06:	8082                	ret

00002b08 <HID_Get_Idle>:
    2b08:	7179                	addi	sp,sp,-48
    2b0a:	d622                	sw	s0,44(sp)
    2b0c:	1800                	addi	s0,sp,48
    2b0e:	87aa                	mv	a5,a0
    2b10:	fcf41f23          	sh	a5,-34(s0)
    2b14:	8381a783          	lw	a5,-1992(gp) # 20000270 <pInformation>
    2b18:	33dc                	lbu	a5,5(a5)
    2b1a:	fef407a3          	sb	a5,-17(s0)
    2b1e:	fef44703          	lbu	a4,-17(s0)
    2b22:	4785                	li	a5,1
    2b24:	00e7f463          	bgeu	a5,a4,2b2c <HID_Get_Idle+0x24>
    2b28:	4781                	li	a5,0
    2b2a:	a031                	j	2b36 <HID_Get_Idle+0x2e>
    2b2c:	fef44703          	lbu	a4,-17(s0)
    2b30:	85c18793          	addi	a5,gp,-1956 # 20000294 <HID_Idle_Value>
    2b34:	97ba                	add	a5,a5,a4
    2b36:	853e                	mv	a0,a5
    2b38:	5432                	lw	s0,44(sp)
    2b3a:	6145                	addi	sp,sp,48
    2b3c:	8082                	ret

00002b3e <HID_Get_Protocol>:
    2b3e:	7179                	addi	sp,sp,-48
    2b40:	d622                	sw	s0,44(sp)
    2b42:	1800                	addi	s0,sp,48
    2b44:	87aa                	mv	a5,a0
    2b46:	fcf41f23          	sh	a5,-34(s0)
    2b4a:	8381a783          	lw	a5,-1992(gp) # 20000270 <pInformation>
    2b4e:	33dc                	lbu	a5,5(a5)
    2b50:	fef407a3          	sb	a5,-17(s0)
    2b54:	fef44703          	lbu	a4,-17(s0)
    2b58:	4789                	li	a5,2
    2b5a:	00e7f463          	bgeu	a5,a4,2b62 <HID_Get_Protocol+0x24>
    2b5e:	4781                	li	a5,0
    2b60:	a031                	j	2b6c <HID_Get_Protocol+0x2e>
    2b62:	fef44703          	lbu	a4,-17(s0)
    2b66:	86018793          	addi	a5,gp,-1952 # 20000298 <HID_Protocol_Value>
    2b6a:	97ba                	add	a5,a5,a4
    2b6c:	853e                	mv	a0,a5
    2b6e:	5432                	lw	s0,44(sp)
    2b70:	6145                	addi	sp,sp,48
    2b72:	8082                	ret

00002b74 <PowerOn>:
    2b74:	1101                	addi	sp,sp,-32
    2b76:	ce22                	sw	s0,28(sp)
    2b78:	1000                	addi	s0,sp,32
    2b7a:	4785                	li	a5,1
    2b7c:	fef41723          	sh	a5,-18(s0)
    2b80:	400067b7          	lui	a5,0x40006
    2b84:	c4078793          	addi	a5,a5,-960 # 40005c40 <_eusrstack+0x20003440>
    2b88:	fee45703          	lhu	a4,-18(s0)
    2b8c:	c398                	sw	a4,0(a5)
    2b8e:	84019023          	sh	zero,-1984(gp) # 20000278 <wInterrupt_Mask>
    2b92:	8401d703          	lhu	a4,-1984(gp) # 20000278 <wInterrupt_Mask>
    2b96:	400067b7          	lui	a5,0x40006
    2b9a:	c4078793          	addi	a5,a5,-960 # 40005c40 <_eusrstack+0x20003440>
    2b9e:	c398                	sw	a4,0(a5)
    2ba0:	400067b7          	lui	a5,0x40006
    2ba4:	c4478793          	addi	a5,a5,-956 # 40005c44 <_eusrstack+0x20003444>
    2ba8:	0007a023          	sw	zero,0(a5)
    2bac:	6709                	lui	a4,0x2
    2bae:	c0070713          	addi	a4,a4,-1024 # 1c00 <CTR_LP+0x304>
    2bb2:	84e19023          	sh	a4,-1984(gp) # 20000278 <wInterrupt_Mask>
    2bb6:	8401d703          	lhu	a4,-1984(gp) # 20000278 <wInterrupt_Mask>
    2bba:	400067b7          	lui	a5,0x40006
    2bbe:	c4078793          	addi	a5,a5,-960 # 40005c40 <_eusrstack+0x20003440>
    2bc2:	c398                	sw	a4,0(a5)
    2bc4:	4781                	li	a5,0
    2bc6:	853e                	mv	a0,a5
    2bc8:	4472                	lw	s0,28(sp)
    2bca:	6105                	addi	sp,sp,32
    2bcc:	8082                	ret

00002bce <Suspend>:
    2bce:	1101                	addi	sp,sp,-32
    2bd0:	ce06                	sw	ra,28(sp)
    2bd2:	cc22                	sw	s0,24(sp)
    2bd4:	1000                	addi	s0,sp,32
    2bd6:	fe042623          	sw	zero,-20(s0)
    2bda:	400067b7          	lui	a5,0x40006
    2bde:	c4078793          	addi	a5,a5,-960 # 40005c40 <_eusrstack+0x20003440>
    2be2:	439c                	lw	a5,0(a5)
    2be4:	fef41523          	sh	a5,-22(s0)
    2be8:	fe042623          	sw	zero,-20(s0)
    2bec:	a815                	j	2c20 <Suspend+0x52>
    2bee:	fec42783          	lw	a5,-20(s0)
    2bf2:	00279713          	slli	a4,a5,0x2
    2bf6:	400067b7          	lui	a5,0x40006
    2bfa:	c0078793          	addi	a5,a5,-1024 # 40005c00 <_eusrstack+0x20003400>
    2bfe:	97ba                	add	a5,a5,a4
    2c00:	439c                	lw	a5,0(a5)
    2c02:	07c2                	slli	a5,a5,0x10
    2c04:	83c1                	srli	a5,a5,0x10
    2c06:	86be                	mv	a3,a5
    2c08:	fec42703          	lw	a4,-20(s0)
    2c0c:	070a                	slli	a4,a4,0x2
    2c0e:	cb418793          	addi	a5,gp,-844 # 200006ec <EP>
    2c12:	97ba                	add	a5,a5,a4
    2c14:	c394                	sw	a3,0(a5)
    2c16:	fec42783          	lw	a5,-20(s0)
    2c1a:	0785                	addi	a5,a5,1
    2c1c:	fef42623          	sw	a5,-20(s0)
    2c20:	fec42703          	lw	a4,-20(s0)
    2c24:	479d                	li	a5,7
    2c26:	fce7f4e3          	bgeu	a5,a4,2bee <Suspend+0x20>
    2c2a:	fea45783          	lhu	a5,-22(s0)
    2c2e:	4007e793          	ori	a5,a5,1024
    2c32:	fef41523          	sh	a5,-22(s0)
    2c36:	400067b7          	lui	a5,0x40006
    2c3a:	c4078793          	addi	a5,a5,-960 # 40005c40 <_eusrstack+0x20003440>
    2c3e:	fea45703          	lhu	a4,-22(s0)
    2c42:	c398                	sw	a4,0(a5)
    2c44:	fea45783          	lhu	a5,-22(s0)
    2c48:	0017e793          	ori	a5,a5,1
    2c4c:	fef41523          	sh	a5,-22(s0)
    2c50:	400067b7          	lui	a5,0x40006
    2c54:	c4078793          	addi	a5,a5,-960 # 40005c40 <_eusrstack+0x20003440>
    2c58:	fea45703          	lhu	a4,-22(s0)
    2c5c:	c398                	sw	a4,0(a5)
    2c5e:	fea45783          	lhu	a5,-22(s0)
    2c62:	9bf9                	andi	a5,a5,-2
    2c64:	fef41523          	sh	a5,-22(s0)
    2c68:	400067b7          	lui	a5,0x40006
    2c6c:	c4078793          	addi	a5,a5,-960 # 40005c40 <_eusrstack+0x20003440>
    2c70:	fea45703          	lhu	a4,-22(s0)
    2c74:	c398                	sw	a4,0(a5)
    2c76:	0001                	nop
    2c78:	400067b7          	lui	a5,0x40006
    2c7c:	c4478793          	addi	a5,a5,-956 # 40005c44 <_eusrstack+0x20003444>
    2c80:	439c                	lw	a5,0(a5)
    2c82:	07c2                	slli	a5,a5,0x10
    2c84:	83c1                	srli	a5,a5,0x10
    2c86:	4007f793          	andi	a5,a5,1024
    2c8a:	d7fd                	beqz	a5,2c78 <Suspend+0xaa>
    2c8c:	400067b7          	lui	a5,0x40006
    2c90:	c4478793          	addi	a5,a5,-956 # 40005c44 <_eusrstack+0x20003444>
    2c94:	6741                	lui	a4,0x10
    2c96:	bff70713          	addi	a4,a4,-1025 # fbff <_data_lma+0xb467>
    2c9a:	c398                	sw	a4,0(a5)
    2c9c:	fe042623          	sw	zero,-20(s0)
    2ca0:	a81d                	j	2cd6 <Suspend+0x108>
    2ca2:	fec42703          	lw	a4,-20(s0)
    2ca6:	070a                	slli	a4,a4,0x2
    2ca8:	cb418793          	addi	a5,gp,-844 # 200006ec <EP>
    2cac:	97ba                	add	a5,a5,a4
    2cae:	439c                	lw	a5,0(a5)
    2cb0:	01079693          	slli	a3,a5,0x10
    2cb4:	82c1                	srli	a3,a3,0x10
    2cb6:	fec42783          	lw	a5,-20(s0)
    2cba:	00279713          	slli	a4,a5,0x2
    2cbe:	400067b7          	lui	a5,0x40006
    2cc2:	c0078793          	addi	a5,a5,-1024 # 40005c00 <_eusrstack+0x20003400>
    2cc6:	97ba                	add	a5,a5,a4
    2cc8:	8736                	mv	a4,a3
    2cca:	c398                	sw	a4,0(a5)
    2ccc:	fec42783          	lw	a5,-20(s0)
    2cd0:	0785                	addi	a5,a5,1
    2cd2:	fef42623          	sw	a5,-20(s0)
    2cd6:	fec42703          	lw	a4,-20(s0)
    2cda:	479d                	li	a5,7
    2cdc:	fce7f3e3          	bgeu	a5,a4,2ca2 <Suspend+0xd4>
    2ce0:	fea45783          	lhu	a5,-22(s0)
    2ce4:	0087e793          	ori	a5,a5,8
    2ce8:	fef41523          	sh	a5,-22(s0)
    2cec:	400067b7          	lui	a5,0x40006
    2cf0:	c4078793          	addi	a5,a5,-960 # 40005c40 <_eusrstack+0x20003440>
    2cf4:	fea45703          	lhu	a4,-22(s0)
    2cf8:	c398                	sw	a4,0(a5)
    2cfa:	400067b7          	lui	a5,0x40006
    2cfe:	c4078793          	addi	a5,a5,-960 # 40005c40 <_eusrstack+0x20003440>
    2d02:	439c                	lw	a5,0(a5)
    2d04:	fef41523          	sh	a5,-22(s0)
    2d08:	fea45783          	lhu	a5,-22(s0)
    2d0c:	0047e793          	ori	a5,a5,4
    2d10:	fef41523          	sh	a5,-22(s0)
    2d14:	400067b7          	lui	a5,0x40006
    2d18:	c4078793          	addi	a5,a5,-960 # 40005c40 <_eusrstack+0x20003440>
    2d1c:	fea45703          	lhu	a4,-22(s0)
    2d20:	c398                	sw	a4,0(a5)
    2d22:	c2afd0ef          	jal	ra,14c <Enter_LowPowerMode>
    2d26:	0001                	nop
    2d28:	40f2                	lw	ra,28(sp)
    2d2a:	4462                	lw	s0,24(sp)
    2d2c:	6105                	addi	sp,sp,32
    2d2e:	8082                	ret

00002d30 <Resume_Init>:
    2d30:	1101                	addi	sp,sp,-32
    2d32:	ce06                	sw	ra,28(sp)
    2d34:	cc22                	sw	s0,24(sp)
    2d36:	1000                	addi	s0,sp,32
    2d38:	400067b7          	lui	a5,0x40006
    2d3c:	c4078793          	addi	a5,a5,-960 # 40005c40 <_eusrstack+0x20003440>
    2d40:	439c                	lw	a5,0(a5)
    2d42:	fef41723          	sh	a5,-18(s0)
    2d46:	fee45783          	lhu	a5,-18(s0)
    2d4a:	9bed                	andi	a5,a5,-5
    2d4c:	fef41723          	sh	a5,-18(s0)
    2d50:	400067b7          	lui	a5,0x40006
    2d54:	c4078793          	addi	a5,a5,-960 # 40005c40 <_eusrstack+0x20003440>
    2d58:	fee45703          	lhu	a4,-18(s0)
    2d5c:	c398                	sw	a4,0(a5)
    2d5e:	c02fd0ef          	jal	ra,160 <Leave_LowPowerMode>
    2d62:	400067b7          	lui	a5,0x40006
    2d66:	c4078793          	addi	a5,a5,-960 # 40005c40 <_eusrstack+0x20003440>
    2d6a:	6731                	lui	a4,0xc
    2d6c:	f0070713          	addi	a4,a4,-256 # bf00 <_data_lma+0x7768>
    2d70:	c398                	sw	a4,0(a5)
    2d72:	0001                	nop
    2d74:	40f2                	lw	ra,28(sp)
    2d76:	4462                	lw	s0,24(sp)
    2d78:	6105                	addi	sp,sp,32
    2d7a:	8082                	ret

00002d7c <Resume>:
    2d7c:	7179                	addi	sp,sp,-48
    2d7e:	d606                	sw	ra,44(sp)
    2d80:	d422                	sw	s0,40(sp)
    2d82:	1800                	addi	s0,sp,48
    2d84:	fca42e23          	sw	a0,-36(s0)
    2d88:	fdc42703          	lw	a4,-36(s0)
    2d8c:	479d                	li	a5,7
    2d8e:	00f70663          	beq	a4,a5,2d9a <Resume+0x1e>
    2d92:	fdc42703          	lw	a4,-36(s0)
    2d96:	86e1a423          	sw	a4,-1944(gp) # 200002a0 <ResumeS>
    2d9a:	8681a783          	lw	a5,-1944(gp) # 200002a0 <ResumeS>
    2d9e:	4715                	li	a4,5
    2da0:	10f76163          	bltu	a4,a5,2ea2 <Resume+0x126>
    2da4:	00279713          	slli	a4,a5,0x2
    2da8:	6791                	lui	a5,0x4
    2daa:	78078793          	addi	a5,a5,1920 # 4780 <USBD_HidRepDesc+0x4c>
    2dae:	97ba                	add	a5,a5,a4
    2db0:	439c                	lw	a5,0(a5)
    2db2:	8782                	jr	a5
    2db4:	8701a783          	lw	a5,-1936(gp) # 200002a8 <remotewakeupon>
    2db8:	e791                	bnez	a5,2dc4 <Resume+0x48>
    2dba:	3f9d                	jal	2d30 <Resume_Init>
    2dbc:	4719                	li	a4,6
    2dbe:	86e1a423          	sw	a4,-1944(gp) # 200002a0 <ResumeS>
    2dc2:	a0fd                	j	2eb0 <Resume+0x134>
    2dc4:	4715                	li	a4,5
    2dc6:	86e1a423          	sw	a4,-1944(gp) # 200002a0 <ResumeS>
    2dca:	a0dd                	j	2eb0 <Resume+0x134>
    2dcc:	3795                	jal	2d30 <Resume_Init>
    2dce:	4711                	li	a4,4
    2dd0:	86e1a423          	sw	a4,-1944(gp) # 200002a0 <ResumeS>
    2dd4:	4705                	li	a4,1
    2dd6:	86e1a823          	sw	a4,-1936(gp) # 200002a8 <remotewakeupon>
    2dda:	a8d9                	j	2eb0 <Resume+0x134>
    2ddc:	86818793          	addi	a5,gp,-1944 # 200002a0 <ResumeS>
    2de0:	4709                	li	a4,2
    2de2:	a3d8                	sb	a4,4(a5)
    2de4:	470d                	li	a4,3
    2de6:	86e1a423          	sw	a4,-1944(gp) # 200002a0 <ResumeS>
    2dea:	a0d9                	j	2eb0 <Resume+0x134>
    2dec:	86818793          	addi	a5,gp,-1944 # 200002a0 <ResumeS>
    2df0:	23dc                	lbu	a5,4(a5)
    2df2:	0ff7f793          	andi	a5,a5,255
    2df6:	17fd                	addi	a5,a5,-1
    2df8:	0ff7f713          	andi	a4,a5,255
    2dfc:	86818793          	addi	a5,gp,-1944 # 200002a0 <ResumeS>
    2e00:	a3d8                	sb	a4,4(a5)
    2e02:	86818793          	addi	a5,gp,-1944 # 200002a0 <ResumeS>
    2e06:	23dc                	lbu	a5,4(a5)
    2e08:	0ff7f793          	andi	a5,a5,255
    2e0c:	efd9                	bnez	a5,2eaa <Resume+0x12e>
    2e0e:	4711                	li	a4,4
    2e10:	86e1a423          	sw	a4,-1944(gp) # 200002a0 <ResumeS>
    2e14:	a859                	j	2eaa <Resume+0x12e>
    2e16:	400067b7          	lui	a5,0x40006
    2e1a:	c4078793          	addi	a5,a5,-960 # 40005c40 <_eusrstack+0x20003440>
    2e1e:	439c                	lw	a5,0(a5)
    2e20:	fef41723          	sh	a5,-18(s0)
    2e24:	fee45783          	lhu	a5,-18(s0)
    2e28:	0107e793          	ori	a5,a5,16
    2e2c:	fef41723          	sh	a5,-18(s0)
    2e30:	400067b7          	lui	a5,0x40006
    2e34:	c4078793          	addi	a5,a5,-960 # 40005c40 <_eusrstack+0x20003440>
    2e38:	fee45703          	lhu	a4,-18(s0)
    2e3c:	c398                	sw	a4,0(a5)
    2e3e:	4715                	li	a4,5
    2e40:	86e1a423          	sw	a4,-1944(gp) # 200002a0 <ResumeS>
    2e44:	86818793          	addi	a5,gp,-1944 # 200002a0 <ResumeS>
    2e48:	4729                	li	a4,10
    2e4a:	a3d8                	sb	a4,4(a5)
    2e4c:	a095                	j	2eb0 <Resume+0x134>
    2e4e:	86818793          	addi	a5,gp,-1944 # 200002a0 <ResumeS>
    2e52:	23dc                	lbu	a5,4(a5)
    2e54:	0ff7f793          	andi	a5,a5,255
    2e58:	17fd                	addi	a5,a5,-1
    2e5a:	0ff7f713          	andi	a4,a5,255
    2e5e:	86818793          	addi	a5,gp,-1944 # 200002a0 <ResumeS>
    2e62:	a3d8                	sb	a4,4(a5)
    2e64:	86818793          	addi	a5,gp,-1944 # 200002a0 <ResumeS>
    2e68:	23dc                	lbu	a5,4(a5)
    2e6a:	0ff7f793          	andi	a5,a5,255
    2e6e:	e3a1                	bnez	a5,2eae <Resume+0x132>
    2e70:	400067b7          	lui	a5,0x40006
    2e74:	c4078793          	addi	a5,a5,-960 # 40005c40 <_eusrstack+0x20003440>
    2e78:	439c                	lw	a5,0(a5)
    2e7a:	fef41723          	sh	a5,-18(s0)
    2e7e:	fee45783          	lhu	a5,-18(s0)
    2e82:	9bbd                	andi	a5,a5,-17
    2e84:	fef41723          	sh	a5,-18(s0)
    2e88:	400067b7          	lui	a5,0x40006
    2e8c:	c4078793          	addi	a5,a5,-960 # 40005c40 <_eusrstack+0x20003440>
    2e90:	fee45703          	lhu	a4,-18(s0)
    2e94:	c398                	sw	a4,0(a5)
    2e96:	4719                	li	a4,6
    2e98:	86e1a423          	sw	a4,-1944(gp) # 200002a0 <ResumeS>
    2e9c:	8601a823          	sw	zero,-1936(gp) # 200002a8 <remotewakeupon>
    2ea0:	a039                	j	2eae <Resume+0x132>
    2ea2:	4719                	li	a4,6
    2ea4:	86e1a423          	sw	a4,-1944(gp) # 200002a0 <ResumeS>
    2ea8:	a021                	j	2eb0 <Resume+0x134>
    2eaa:	0001                	nop
    2eac:	a011                	j	2eb0 <Resume+0x134>
    2eae:	0001                	nop
    2eb0:	0001                	nop
    2eb2:	50b2                	lw	ra,44(sp)
    2eb4:	5422                	lw	s0,40(sp)
    2eb6:	6145                	addi	sp,sp,48
    2eb8:	8082                	ret

00002eba <SetBTABLE>:
    2eba:	1101                	addi	sp,sp,-32
    2ebc:	ce22                	sw	s0,28(sp)
    2ebe:	1000                	addi	s0,sp,32
    2ec0:	87aa                	mv	a5,a0
    2ec2:	fef41723          	sh	a5,-18(s0)
    2ec6:	fee45683          	lhu	a3,-18(s0)
    2eca:	400067b7          	lui	a5,0x40006
    2ece:	c5078793          	addi	a5,a5,-944 # 40005c50 <_eusrstack+0x20003450>
    2ed2:	6741                	lui	a4,0x10
    2ed4:	1761                	addi	a4,a4,-8
    2ed6:	8f75                	and	a4,a4,a3
    2ed8:	c398                	sw	a4,0(a5)
    2eda:	0001                	nop
    2edc:	4472                	lw	s0,28(sp)
    2ede:	6105                	addi	sp,sp,32
    2ee0:	8082                	ret

00002ee2 <SetEPType>:
    2ee2:	1101                	addi	sp,sp,-32
    2ee4:	ce22                	sw	s0,28(sp)
    2ee6:	1000                	addi	s0,sp,32
    2ee8:	87aa                	mv	a5,a0
    2eea:	872e                	mv	a4,a1
    2eec:	fef407a3          	sb	a5,-17(s0)
    2ef0:	87ba                	mv	a5,a4
    2ef2:	fef41623          	sh	a5,-20(s0)
    2ef6:	fef44783          	lbu	a5,-17(s0)
    2efa:	00279713          	slli	a4,a5,0x2
    2efe:	400067b7          	lui	a5,0x40006
    2f02:	c0078793          	addi	a5,a5,-1024 # 40005c00 <_eusrstack+0x20003400>
    2f06:	97ba                	add	a5,a5,a4
    2f08:	439c                	lw	a5,0(a5)
    2f0a:	01079713          	slli	a4,a5,0x10
    2f0e:	8741                	srai	a4,a4,0x10
    2f10:	77e5                	lui	a5,0xffff9
    2f12:	98f78793          	addi	a5,a5,-1649 # ffff898f <_eusrstack+0xdfff618f>
    2f16:	8ff9                	and	a5,a5,a4
    2f18:	01079713          	slli	a4,a5,0x10
    2f1c:	8741                	srai	a4,a4,0x10
    2f1e:	fec41783          	lh	a5,-20(s0)
    2f22:	8fd9                	or	a5,a5,a4
    2f24:	07c2                	slli	a5,a5,0x10
    2f26:	87c1                	srai	a5,a5,0x10
    2f28:	01079693          	slli	a3,a5,0x10
    2f2c:	82c1                	srli	a3,a3,0x10
    2f2e:	fef44783          	lbu	a5,-17(s0)
    2f32:	00279713          	slli	a4,a5,0x2
    2f36:	400067b7          	lui	a5,0x40006
    2f3a:	c0078793          	addi	a5,a5,-1024 # 40005c00 <_eusrstack+0x20003400>
    2f3e:	97ba                	add	a5,a5,a4
    2f40:	8736                	mv	a4,a3
    2f42:	c398                	sw	a4,0(a5)
    2f44:	0001                	nop
    2f46:	4472                	lw	s0,28(sp)
    2f48:	6105                	addi	sp,sp,32
    2f4a:	8082                	ret

00002f4c <SetEPTxStatus>:
    2f4c:	1101                	addi	sp,sp,-32
    2f4e:	ce22                	sw	s0,28(sp)
    2f50:	cc26                	sw	s1,24(sp)
    2f52:	1000                	addi	s0,sp,32
    2f54:	87aa                	mv	a5,a0
    2f56:	872e                	mv	a4,a1
    2f58:	fef407a3          	sb	a5,-17(s0)
    2f5c:	87ba                	mv	a5,a4
    2f5e:	fef41623          	sh	a5,-20(s0)
    2f62:	fef44783          	lbu	a5,-17(s0)
    2f66:	00279713          	slli	a4,a5,0x2
    2f6a:	400067b7          	lui	a5,0x40006
    2f6e:	c0078793          	addi	a5,a5,-1024 # 40005c00 <_eusrstack+0x20003400>
    2f72:	97ba                	add	a5,a5,a4
    2f74:	439c                	lw	a5,0(a5)
    2f76:	01079713          	slli	a4,a5,0x10
    2f7a:	8341                	srli	a4,a4,0x10
    2f7c:	77e5                	lui	a5,0xffff9
    2f7e:	fbf78793          	addi	a5,a5,-65 # ffff8fbf <_eusrstack+0xdfff67bf>
    2f82:	8ff9                	and	a5,a5,a4
    2f84:	01079493          	slli	s1,a5,0x10
    2f88:	80c1                	srli	s1,s1,0x10
    2f8a:	fec45783          	lhu	a5,-20(s0)
    2f8e:	8bc1                	andi	a5,a5,16
    2f90:	07c2                	slli	a5,a5,0x10
    2f92:	83c1                	srli	a5,a5,0x10
    2f94:	c791                	beqz	a5,2fa0 <SetEPTxStatus+0x54>
    2f96:	0104c793          	xori	a5,s1,16
    2f9a:	01079493          	slli	s1,a5,0x10
    2f9e:	80c1                	srli	s1,s1,0x10
    2fa0:	fec45783          	lhu	a5,-20(s0)
    2fa4:	0207f793          	andi	a5,a5,32
    2fa8:	07c2                	slli	a5,a5,0x10
    2faa:	83c1                	srli	a5,a5,0x10
    2fac:	c791                	beqz	a5,2fb8 <SetEPTxStatus+0x6c>
    2fae:	0204c793          	xori	a5,s1,32
    2fb2:	01079493          	slli	s1,a5,0x10
    2fb6:	80c1                	srli	s1,s1,0x10
    2fb8:	77e1                	lui	a5,0xffff8
    2fba:	08078793          	addi	a5,a5,128 # ffff8080 <_eusrstack+0xdfff5880>
    2fbe:	8fc5                	or	a5,a5,s1
    2fc0:	01079693          	slli	a3,a5,0x10
    2fc4:	82c1                	srli	a3,a3,0x10
    2fc6:	fef44783          	lbu	a5,-17(s0)
    2fca:	00279713          	slli	a4,a5,0x2
    2fce:	400067b7          	lui	a5,0x40006
    2fd2:	c0078793          	addi	a5,a5,-1024 # 40005c00 <_eusrstack+0x20003400>
    2fd6:	97ba                	add	a5,a5,a4
    2fd8:	8736                	mv	a4,a3
    2fda:	c398                	sw	a4,0(a5)
    2fdc:	a01d                	j	3002 <SetEPTxStatus+0xb6>
    2fde:	77e1                	lui	a5,0xffff8
    2fe0:	08078793          	addi	a5,a5,128 # ffff8080 <_eusrstack+0xdfff5880>
    2fe4:	8fc5                	or	a5,a5,s1
    2fe6:	01079693          	slli	a3,a5,0x10
    2fea:	82c1                	srli	a3,a3,0x10
    2fec:	fef44783          	lbu	a5,-17(s0)
    2ff0:	00279713          	slli	a4,a5,0x2
    2ff4:	400067b7          	lui	a5,0x40006
    2ff8:	c0078793          	addi	a5,a5,-1024 # 40005c00 <_eusrstack+0x20003400>
    2ffc:	97ba                	add	a5,a5,a4
    2ffe:	8736                	mv	a4,a3
    3000:	c398                	sw	a4,0(a5)
    3002:	fef44783          	lbu	a5,-17(s0)
    3006:	00279713          	slli	a4,a5,0x2
    300a:	400067b7          	lui	a5,0x40006
    300e:	c0078793          	addi	a5,a5,-1024 # 40005c00 <_eusrstack+0x20003400>
    3012:	97ba                	add	a5,a5,a4
    3014:	439c                	lw	a5,0(a5)
    3016:	07c2                	slli	a5,a5,0x10
    3018:	83c1                	srli	a5,a5,0x10
    301a:	0307f713          	andi	a4,a5,48
    301e:	fec45783          	lhu	a5,-20(s0)
    3022:	faf71ee3          	bne	a4,a5,2fde <SetEPTxStatus+0x92>
    3026:	0001                	nop
    3028:	4472                	lw	s0,28(sp)
    302a:	44e2                	lw	s1,24(sp)
    302c:	6105                	addi	sp,sp,32
    302e:	8082                	ret

00003030 <SetEPRxStatus>:
    3030:	1101                	addi	sp,sp,-32
    3032:	ce22                	sw	s0,28(sp)
    3034:	cc26                	sw	s1,24(sp)
    3036:	1000                	addi	s0,sp,32
    3038:	87aa                	mv	a5,a0
    303a:	872e                	mv	a4,a1
    303c:	fef407a3          	sb	a5,-17(s0)
    3040:	87ba                	mv	a5,a4
    3042:	fef41623          	sh	a5,-20(s0)
    3046:	fef44783          	lbu	a5,-17(s0)
    304a:	00279713          	slli	a4,a5,0x2
    304e:	400067b7          	lui	a5,0x40006
    3052:	c0078793          	addi	a5,a5,-1024 # 40005c00 <_eusrstack+0x20003400>
    3056:	97ba                	add	a5,a5,a4
    3058:	439c                	lw	a5,0(a5)
    305a:	01079713          	slli	a4,a5,0x10
    305e:	8341                	srli	a4,a4,0x10
    3060:	77f1                	lui	a5,0xffffc
    3062:	f8f78793          	addi	a5,a5,-113 # ffffbf8f <_eusrstack+0xdfff978f>
    3066:	8ff9                	and	a5,a5,a4
    3068:	01079493          	slli	s1,a5,0x10
    306c:	80c1                	srli	s1,s1,0x10
    306e:	fec45703          	lhu	a4,-20(s0)
    3072:	6785                	lui	a5,0x1
    3074:	8ff9                	and	a5,a5,a4
    3076:	07c2                	slli	a5,a5,0x10
    3078:	83c1                	srli	a5,a5,0x10
    307a:	c791                	beqz	a5,3086 <SetEPRxStatus+0x56>
    307c:	6785                	lui	a5,0x1
    307e:	8fa5                	xor	a5,a5,s1
    3080:	01079493          	slli	s1,a5,0x10
    3084:	80c1                	srli	s1,s1,0x10
    3086:	fec45703          	lhu	a4,-20(s0)
    308a:	6789                	lui	a5,0x2
    308c:	8ff9                	and	a5,a5,a4
    308e:	07c2                	slli	a5,a5,0x10
    3090:	83c1                	srli	a5,a5,0x10
    3092:	c791                	beqz	a5,309e <SetEPRxStatus+0x6e>
    3094:	6789                	lui	a5,0x2
    3096:	8fa5                	xor	a5,a5,s1
    3098:	01079493          	slli	s1,a5,0x10
    309c:	80c1                	srli	s1,s1,0x10
    309e:	77e1                	lui	a5,0xffff8
    30a0:	08078793          	addi	a5,a5,128 # ffff8080 <_eusrstack+0xdfff5880>
    30a4:	8fc5                	or	a5,a5,s1
    30a6:	01079693          	slli	a3,a5,0x10
    30aa:	82c1                	srli	a3,a3,0x10
    30ac:	fef44783          	lbu	a5,-17(s0)
    30b0:	00279713          	slli	a4,a5,0x2
    30b4:	400067b7          	lui	a5,0x40006
    30b8:	c0078793          	addi	a5,a5,-1024 # 40005c00 <_eusrstack+0x20003400>
    30bc:	97ba                	add	a5,a5,a4
    30be:	8736                	mv	a4,a3
    30c0:	c398                	sw	a4,0(a5)
    30c2:	a01d                	j	30e8 <SetEPRxStatus+0xb8>
    30c4:	77e1                	lui	a5,0xffff8
    30c6:	08078793          	addi	a5,a5,128 # ffff8080 <_eusrstack+0xdfff5880>
    30ca:	8fc5                	or	a5,a5,s1
    30cc:	01079693          	slli	a3,a5,0x10
    30d0:	82c1                	srli	a3,a3,0x10
    30d2:	fef44783          	lbu	a5,-17(s0)
    30d6:	00279713          	slli	a4,a5,0x2
    30da:	400067b7          	lui	a5,0x40006
    30de:	c0078793          	addi	a5,a5,-1024 # 40005c00 <_eusrstack+0x20003400>
    30e2:	97ba                	add	a5,a5,a4
    30e4:	8736                	mv	a4,a3
    30e6:	c398                	sw	a4,0(a5)
    30e8:	fef44783          	lbu	a5,-17(s0)
    30ec:	00279713          	slli	a4,a5,0x2
    30f0:	400067b7          	lui	a5,0x40006
    30f4:	c0078793          	addi	a5,a5,-1024 # 40005c00 <_eusrstack+0x20003400>
    30f8:	97ba                	add	a5,a5,a4
    30fa:	439c                	lw	a5,0(a5)
    30fc:	07c2                	slli	a5,a5,0x10
    30fe:	83c1                	srli	a5,a5,0x10
    3100:	873e                	mv	a4,a5
    3102:	678d                	lui	a5,0x3
    3104:	8f7d                	and	a4,a4,a5
    3106:	fec45783          	lhu	a5,-20(s0)
    310a:	faf71de3          	bne	a4,a5,30c4 <SetEPRxStatus+0x94>
    310e:	0001                	nop
    3110:	4472                	lw	s0,28(sp)
    3112:	44e2                	lw	s1,24(sp)
    3114:	6105                	addi	sp,sp,32
    3116:	8082                	ret

00003118 <SetEPRxValid>:
    3118:	1101                	addi	sp,sp,-32
    311a:	ce22                	sw	s0,28(sp)
    311c:	cc26                	sw	s1,24(sp)
    311e:	1000                	addi	s0,sp,32
    3120:	87aa                	mv	a5,a0
    3122:	fef407a3          	sb	a5,-17(s0)
    3126:	fef44783          	lbu	a5,-17(s0)
    312a:	00279713          	slli	a4,a5,0x2
    312e:	400067b7          	lui	a5,0x40006
    3132:	c0078793          	addi	a5,a5,-1024 # 40005c00 <_eusrstack+0x20003400>
    3136:	97ba                	add	a5,a5,a4
    3138:	439c                	lw	a5,0(a5)
    313a:	01079713          	slli	a4,a5,0x10
    313e:	8341                	srli	a4,a4,0x10
    3140:	77f1                	lui	a5,0xffffc
    3142:	f8f78793          	addi	a5,a5,-113 # ffffbf8f <_eusrstack+0xdfff978f>
    3146:	8ff9                	and	a5,a5,a4
    3148:	01079493          	slli	s1,a5,0x10
    314c:	80c1                	srli	s1,s1,0x10
    314e:	6785                	lui	a5,0x1
    3150:	8fa5                	xor	a5,a5,s1
    3152:	01079493          	slli	s1,a5,0x10
    3156:	80c1                	srli	s1,s1,0x10
    3158:	6789                	lui	a5,0x2
    315a:	8fa5                	xor	a5,a5,s1
    315c:	01079493          	slli	s1,a5,0x10
    3160:	80c1                	srli	s1,s1,0x10
    3162:	77e1                	lui	a5,0xffff8
    3164:	08078793          	addi	a5,a5,128 # ffff8080 <_eusrstack+0xdfff5880>
    3168:	8fc5                	or	a5,a5,s1
    316a:	01079693          	slli	a3,a5,0x10
    316e:	82c1                	srli	a3,a3,0x10
    3170:	fef44783          	lbu	a5,-17(s0)
    3174:	00279713          	slli	a4,a5,0x2
    3178:	400067b7          	lui	a5,0x40006
    317c:	c0078793          	addi	a5,a5,-1024 # 40005c00 <_eusrstack+0x20003400>
    3180:	97ba                	add	a5,a5,a4
    3182:	8736                	mv	a4,a3
    3184:	c398                	sw	a4,0(a5)
    3186:	a01d                	j	31ac <SetEPRxValid+0x94>
    3188:	77e1                	lui	a5,0xffff8
    318a:	08078793          	addi	a5,a5,128 # ffff8080 <_eusrstack+0xdfff5880>
    318e:	8fc5                	or	a5,a5,s1
    3190:	01079693          	slli	a3,a5,0x10
    3194:	82c1                	srli	a3,a3,0x10
    3196:	fef44783          	lbu	a5,-17(s0)
    319a:	00279713          	slli	a4,a5,0x2
    319e:	400067b7          	lui	a5,0x40006
    31a2:	c0078793          	addi	a5,a5,-1024 # 40005c00 <_eusrstack+0x20003400>
    31a6:	97ba                	add	a5,a5,a4
    31a8:	8736                	mv	a4,a3
    31aa:	c398                	sw	a4,0(a5)
    31ac:	fef44783          	lbu	a5,-17(s0)
    31b0:	00279713          	slli	a4,a5,0x2
    31b4:	400067b7          	lui	a5,0x40006
    31b8:	c0078793          	addi	a5,a5,-1024 # 40005c00 <_eusrstack+0x20003400>
    31bc:	97ba                	add	a5,a5,a4
    31be:	439c                	lw	a5,0(a5)
    31c0:	07c2                	slli	a5,a5,0x10
    31c2:	83c1                	srli	a5,a5,0x10
    31c4:	873e                	mv	a4,a5
    31c6:	678d                	lui	a5,0x3
    31c8:	8f7d                	and	a4,a4,a5
    31ca:	678d                	lui	a5,0x3
    31cc:	faf71ee3          	bne	a4,a5,3188 <SetEPRxValid+0x70>
    31d0:	0001                	nop
    31d2:	4472                	lw	s0,28(sp)
    31d4:	44e2                	lw	s1,24(sp)
    31d6:	6105                	addi	sp,sp,32
    31d8:	8082                	ret

000031da <Clear_Status_Out>:
    31da:	1101                	addi	sp,sp,-32
    31dc:	ce22                	sw	s0,28(sp)
    31de:	1000                	addi	s0,sp,32
    31e0:	87aa                	mv	a5,a0
    31e2:	fef407a3          	sb	a5,-17(s0)
    31e6:	fef44783          	lbu	a5,-17(s0)
    31ea:	00279713          	slli	a4,a5,0x2
    31ee:	400067b7          	lui	a5,0x40006
    31f2:	c0078793          	addi	a5,a5,-1024 # 40005c00 <_eusrstack+0x20003400>
    31f6:	97ba                	add	a5,a5,a4
    31f8:	439c                	lw	a5,0(a5)
    31fa:	01079713          	slli	a4,a5,0x10
    31fe:	8741                	srai	a4,a4,0x10
    3200:	6785                	lui	a5,0x1
    3202:	e0f78793          	addi	a5,a5,-497 # e0f <DataStageIn+0x141>
    3206:	8ff9                	and	a5,a5,a4
    3208:	01079713          	slli	a4,a5,0x10
    320c:	8741                	srai	a4,a4,0x10
    320e:	77e1                	lui	a5,0xffff8
    3210:	08078793          	addi	a5,a5,128 # ffff8080 <_eusrstack+0xdfff5880>
    3214:	8fd9                	or	a5,a5,a4
    3216:	07c2                	slli	a5,a5,0x10
    3218:	87c1                	srai	a5,a5,0x10
    321a:	01079693          	slli	a3,a5,0x10
    321e:	82c1                	srli	a3,a3,0x10
    3220:	fef44783          	lbu	a5,-17(s0)
    3224:	00279713          	slli	a4,a5,0x2
    3228:	400067b7          	lui	a5,0x40006
    322c:	c0078793          	addi	a5,a5,-1024 # 40005c00 <_eusrstack+0x20003400>
    3230:	97ba                	add	a5,a5,a4
    3232:	8736                	mv	a4,a3
    3234:	c398                	sw	a4,0(a5)
    3236:	0001                	nop
    3238:	4472                	lw	s0,28(sp)
    323a:	6105                	addi	sp,sp,32
    323c:	8082                	ret

0000323e <ClearDTOG_RX>:
    323e:	1101                	addi	sp,sp,-32
    3240:	ce22                	sw	s0,28(sp)
    3242:	1000                	addi	s0,sp,32
    3244:	87aa                	mv	a5,a0
    3246:	fef407a3          	sb	a5,-17(s0)
    324a:	fef44783          	lbu	a5,-17(s0)
    324e:	00279713          	slli	a4,a5,0x2
    3252:	400067b7          	lui	a5,0x40006
    3256:	c0078793          	addi	a5,a5,-1024 # 40005c00 <_eusrstack+0x20003400>
    325a:	97ba                	add	a5,a5,a4
    325c:	439c                	lw	a5,0(a5)
    325e:	07c2                	slli	a5,a5,0x10
    3260:	83c1                	srli	a5,a5,0x10
    3262:	873e                	mv	a4,a5
    3264:	6791                	lui	a5,0x4
    3266:	8ff9                	and	a5,a5,a4
    3268:	c3b1                	beqz	a5,32ac <ClearDTOG_RX+0x6e>
    326a:	fef44783          	lbu	a5,-17(s0)
    326e:	00279713          	slli	a4,a5,0x2
    3272:	400067b7          	lui	a5,0x40006
    3276:	c0078793          	addi	a5,a5,-1024 # 40005c00 <_eusrstack+0x20003400>
    327a:	97ba                	add	a5,a5,a4
    327c:	439c                	lw	a5,0(a5)
    327e:	07c2                	slli	a5,a5,0x10
    3280:	83c1                	srli	a5,a5,0x10
    3282:	873e                	mv	a4,a5
    3284:	6785                	lui	a5,0x1
    3286:	f0f78793          	addi	a5,a5,-241 # f0f <NoData_Setup0+0xed>
    328a:	8f7d                	and	a4,a4,a5
    328c:	67b1                	lui	a5,0xc
    328e:	08078793          	addi	a5,a5,128 # c080 <_data_lma+0x78e8>
    3292:	00f766b3          	or	a3,a4,a5
    3296:	fef44783          	lbu	a5,-17(s0)
    329a:	00279713          	slli	a4,a5,0x2
    329e:	400067b7          	lui	a5,0x40006
    32a2:	c0078793          	addi	a5,a5,-1024 # 40005c00 <_eusrstack+0x20003400>
    32a6:	97ba                	add	a5,a5,a4
    32a8:	8736                	mv	a4,a3
    32aa:	c398                	sw	a4,0(a5)
    32ac:	0001                	nop
    32ae:	4472                	lw	s0,28(sp)
    32b0:	6105                	addi	sp,sp,32
    32b2:	8082                	ret

000032b4 <ClearDTOG_TX>:
    32b4:	1101                	addi	sp,sp,-32
    32b6:	ce22                	sw	s0,28(sp)
    32b8:	1000                	addi	s0,sp,32
    32ba:	87aa                	mv	a5,a0
    32bc:	fef407a3          	sb	a5,-17(s0)
    32c0:	fef44783          	lbu	a5,-17(s0)
    32c4:	00279713          	slli	a4,a5,0x2
    32c8:	400067b7          	lui	a5,0x40006
    32cc:	c0078793          	addi	a5,a5,-1024 # 40005c00 <_eusrstack+0x20003400>
    32d0:	97ba                	add	a5,a5,a4
    32d2:	439c                	lw	a5,0(a5)
    32d4:	07c2                	slli	a5,a5,0x10
    32d6:	83c1                	srli	a5,a5,0x10
    32d8:	0407f793          	andi	a5,a5,64
    32dc:	c3b1                	beqz	a5,3320 <ClearDTOG_TX+0x6c>
    32de:	fef44783          	lbu	a5,-17(s0)
    32e2:	00279713          	slli	a4,a5,0x2
    32e6:	400067b7          	lui	a5,0x40006
    32ea:	c0078793          	addi	a5,a5,-1024 # 40005c00 <_eusrstack+0x20003400>
    32ee:	97ba                	add	a5,a5,a4
    32f0:	439c                	lw	a5,0(a5)
    32f2:	07c2                	slli	a5,a5,0x10
    32f4:	83c1                	srli	a5,a5,0x10
    32f6:	873e                	mv	a4,a5
    32f8:	6785                	lui	a5,0x1
    32fa:	f0f78793          	addi	a5,a5,-241 # f0f <NoData_Setup0+0xed>
    32fe:	8f7d                	and	a4,a4,a5
    3300:	67a1                	lui	a5,0x8
    3302:	0c078793          	addi	a5,a5,192 # 80c0 <_data_lma+0x3928>
    3306:	00f766b3          	or	a3,a4,a5
    330a:	fef44783          	lbu	a5,-17(s0)
    330e:	00279713          	slli	a4,a5,0x2
    3312:	400067b7          	lui	a5,0x40006
    3316:	c0078793          	addi	a5,a5,-1024 # 40005c00 <_eusrstack+0x20003400>
    331a:	97ba                	add	a5,a5,a4
    331c:	8736                	mv	a4,a3
    331e:	c398                	sw	a4,0(a5)
    3320:	0001                	nop
    3322:	4472                	lw	s0,28(sp)
    3324:	6105                	addi	sp,sp,32
    3326:	8082                	ret

00003328 <SetEPTxAddr>:
    3328:	1101                	addi	sp,sp,-32
    332a:	ce22                	sw	s0,28(sp)
    332c:	1000                	addi	s0,sp,32
    332e:	87aa                	mv	a5,a0
    3330:	872e                	mv	a4,a1
    3332:	fef407a3          	sb	a5,-17(s0)
    3336:	87ba                	mv	a5,a4
    3338:	fef41623          	sh	a5,-20(s0)
    333c:	fec45783          	lhu	a5,-20(s0)
    3340:	8385                	srli	a5,a5,0x1
    3342:	07c2                	slli	a5,a5,0x10
    3344:	83c1                	srli	a5,a5,0x10
    3346:	00179693          	slli	a3,a5,0x1
    334a:	400067b7          	lui	a5,0x40006
    334e:	c5078793          	addi	a5,a5,-944 # 40005c50 <_eusrstack+0x20003450>
    3352:	439c                	lw	a5,0(a5)
    3354:	07c2                	slli	a5,a5,0x10
    3356:	83c1                	srli	a5,a5,0x10
    3358:	873e                	mv	a4,a5
    335a:	fef44783          	lbu	a5,-17(s0)
    335e:	078e                	slli	a5,a5,0x3
    3360:	973e                	add	a4,a4,a5
    3362:	200037b7          	lui	a5,0x20003
    3366:	97ba                	add	a5,a5,a4
    3368:	0786                	slli	a5,a5,0x1
    336a:	8736                	mv	a4,a3
    336c:	c398                	sw	a4,0(a5)
    336e:	0001                	nop
    3370:	4472                	lw	s0,28(sp)
    3372:	6105                	addi	sp,sp,32
    3374:	8082                	ret

00003376 <SetEPRxAddr>:
    3376:	1101                	addi	sp,sp,-32
    3378:	ce22                	sw	s0,28(sp)
    337a:	1000                	addi	s0,sp,32
    337c:	87aa                	mv	a5,a0
    337e:	872e                	mv	a4,a1
    3380:	fef407a3          	sb	a5,-17(s0)
    3384:	87ba                	mv	a5,a4
    3386:	fef41623          	sh	a5,-20(s0)
    338a:	fec45783          	lhu	a5,-20(s0)
    338e:	8385                	srli	a5,a5,0x1
    3390:	07c2                	slli	a5,a5,0x10
    3392:	83c1                	srli	a5,a5,0x10
    3394:	00179693          	slli	a3,a5,0x1
    3398:	400067b7          	lui	a5,0x40006
    339c:	c5078793          	addi	a5,a5,-944 # 40005c50 <_eusrstack+0x20003450>
    33a0:	439c                	lw	a5,0(a5)
    33a2:	07c2                	slli	a5,a5,0x10
    33a4:	83c1                	srli	a5,a5,0x10
    33a6:	873e                	mv	a4,a5
    33a8:	fef44783          	lbu	a5,-17(s0)
    33ac:	078e                	slli	a5,a5,0x3
    33ae:	973e                	add	a4,a4,a5
    33b0:	200037b7          	lui	a5,0x20003
    33b4:	0791                	addi	a5,a5,4
    33b6:	97ba                	add	a5,a5,a4
    33b8:	0786                	slli	a5,a5,0x1
    33ba:	8736                	mv	a4,a3
    33bc:	c398                	sw	a4,0(a5)
    33be:	0001                	nop
    33c0:	4472                	lw	s0,28(sp)
    33c2:	6105                	addi	sp,sp,32
    33c4:	8082                	ret

000033c6 <GetEPTxAddr>:
    33c6:	1101                	addi	sp,sp,-32
    33c8:	ce22                	sw	s0,28(sp)
    33ca:	1000                	addi	s0,sp,32
    33cc:	87aa                	mv	a5,a0
    33ce:	fef407a3          	sb	a5,-17(s0)
    33d2:	400067b7          	lui	a5,0x40006
    33d6:	c5078793          	addi	a5,a5,-944 # 40005c50 <_eusrstack+0x20003450>
    33da:	439c                	lw	a5,0(a5)
    33dc:	07c2                	slli	a5,a5,0x10
    33de:	83c1                	srli	a5,a5,0x10
    33e0:	873e                	mv	a4,a5
    33e2:	fef44783          	lbu	a5,-17(s0)
    33e6:	078e                	slli	a5,a5,0x3
    33e8:	973e                	add	a4,a4,a5
    33ea:	200037b7          	lui	a5,0x20003
    33ee:	97ba                	add	a5,a5,a4
    33f0:	0786                	slli	a5,a5,0x1
    33f2:	439c                	lw	a5,0(a5)
    33f4:	07c2                	slli	a5,a5,0x10
    33f6:	83c1                	srli	a5,a5,0x10
    33f8:	853e                	mv	a0,a5
    33fa:	4472                	lw	s0,28(sp)
    33fc:	6105                	addi	sp,sp,32
    33fe:	8082                	ret

00003400 <GetEPRxAddr>:
    3400:	1101                	addi	sp,sp,-32
    3402:	ce22                	sw	s0,28(sp)
    3404:	1000                	addi	s0,sp,32
    3406:	87aa                	mv	a5,a0
    3408:	fef407a3          	sb	a5,-17(s0)
    340c:	400067b7          	lui	a5,0x40006
    3410:	c5078793          	addi	a5,a5,-944 # 40005c50 <_eusrstack+0x20003450>
    3414:	439c                	lw	a5,0(a5)
    3416:	07c2                	slli	a5,a5,0x10
    3418:	83c1                	srli	a5,a5,0x10
    341a:	873e                	mv	a4,a5
    341c:	fef44783          	lbu	a5,-17(s0)
    3420:	078e                	slli	a5,a5,0x3
    3422:	973e                	add	a4,a4,a5
    3424:	200037b7          	lui	a5,0x20003
    3428:	0791                	addi	a5,a5,4
    342a:	97ba                	add	a5,a5,a4
    342c:	0786                	slli	a5,a5,0x1
    342e:	439c                	lw	a5,0(a5)
    3430:	07c2                	slli	a5,a5,0x10
    3432:	83c1                	srli	a5,a5,0x10
    3434:	853e                	mv	a0,a5
    3436:	4472                	lw	s0,28(sp)
    3438:	6105                	addi	sp,sp,32
    343a:	8082                	ret

0000343c <SetEPTxCount>:
    343c:	1101                	addi	sp,sp,-32
    343e:	ce22                	sw	s0,28(sp)
    3440:	1000                	addi	s0,sp,32
    3442:	87aa                	mv	a5,a0
    3444:	872e                	mv	a4,a1
    3446:	fef407a3          	sb	a5,-17(s0)
    344a:	87ba                	mv	a5,a4
    344c:	fef41623          	sh	a5,-20(s0)
    3450:	400067b7          	lui	a5,0x40006
    3454:	c5078793          	addi	a5,a5,-944 # 40005c50 <_eusrstack+0x20003450>
    3458:	439c                	lw	a5,0(a5)
    345a:	07c2                	slli	a5,a5,0x10
    345c:	83c1                	srli	a5,a5,0x10
    345e:	873e                	mv	a4,a5
    3460:	fef44783          	lbu	a5,-17(s0)
    3464:	078e                	slli	a5,a5,0x3
    3466:	973e                	add	a4,a4,a5
    3468:	200037b7          	lui	a5,0x20003
    346c:	0789                	addi	a5,a5,2
    346e:	97ba                	add	a5,a5,a4
    3470:	0786                	slli	a5,a5,0x1
    3472:	873e                	mv	a4,a5
    3474:	fec45783          	lhu	a5,-20(s0)
    3478:	c31c                	sw	a5,0(a4)
    347a:	0001                	nop
    347c:	4472                	lw	s0,28(sp)
    347e:	6105                	addi	sp,sp,32
    3480:	8082                	ret

00003482 <SetEPRxCount>:
    3482:	7179                	addi	sp,sp,-48
    3484:	d622                	sw	s0,44(sp)
    3486:	1800                	addi	s0,sp,48
    3488:	87aa                	mv	a5,a0
    348a:	872e                	mv	a4,a1
    348c:	fcf40fa3          	sb	a5,-33(s0)
    3490:	87ba                	mv	a5,a4
    3492:	fcf41e23          	sh	a5,-36(s0)
    3496:	400067b7          	lui	a5,0x40006
    349a:	c5078793          	addi	a5,a5,-944 # 40005c50 <_eusrstack+0x20003450>
    349e:	439c                	lw	a5,0(a5)
    34a0:	07c2                	slli	a5,a5,0x10
    34a2:	83c1                	srli	a5,a5,0x10
    34a4:	873e                	mv	a4,a5
    34a6:	fdf44783          	lbu	a5,-33(s0)
    34aa:	078e                	slli	a5,a5,0x3
    34ac:	973e                	add	a4,a4,a5
    34ae:	200037b7          	lui	a5,0x20003
    34b2:	0799                	addi	a5,a5,6
    34b4:	97ba                	add	a5,a5,a4
    34b6:	0786                	slli	a5,a5,0x1
    34b8:	fef42423          	sw	a5,-24(s0)
    34bc:	fdc45703          	lhu	a4,-36(s0)
    34c0:	03e00793          	li	a5,62
    34c4:	02e7fb63          	bgeu	a5,a4,34fa <SetEPRxCount+0x78>
    34c8:	fdc45783          	lhu	a5,-36(s0)
    34cc:	8395                	srli	a5,a5,0x5
    34ce:	fef41723          	sh	a5,-18(s0)
    34d2:	fdc45783          	lhu	a5,-36(s0)
    34d6:	8bfd                	andi	a5,a5,31
    34d8:	e791                	bnez	a5,34e4 <SetEPRxCount+0x62>
    34da:	fee45783          	lhu	a5,-18(s0)
    34de:	17fd                	addi	a5,a5,-1
    34e0:	fef41723          	sh	a5,-18(s0)
    34e4:	fee45783          	lhu	a5,-18(s0)
    34e8:	00a79713          	slli	a4,a5,0xa
    34ec:	67a1                	lui	a5,0x8
    34ee:	8fd9                	or	a5,a5,a4
    34f0:	873e                	mv	a4,a5
    34f2:	fe842783          	lw	a5,-24(s0)
    34f6:	c398                	sw	a4,0(a5)
    34f8:	a035                	j	3524 <SetEPRxCount+0xa2>
    34fa:	fdc45783          	lhu	a5,-36(s0)
    34fe:	8385                	srli	a5,a5,0x1
    3500:	fef41723          	sh	a5,-18(s0)
    3504:	fdc45783          	lhu	a5,-36(s0)
    3508:	8b85                	andi	a5,a5,1
    350a:	c791                	beqz	a5,3516 <SetEPRxCount+0x94>
    350c:	fee45783          	lhu	a5,-18(s0)
    3510:	0785                	addi	a5,a5,1
    3512:	fef41723          	sh	a5,-18(s0)
    3516:	fee45783          	lhu	a5,-18(s0)
    351a:	07aa                	slli	a5,a5,0xa
    351c:	873e                	mv	a4,a5
    351e:	fe842783          	lw	a5,-24(s0)
    3522:	c398                	sw	a4,0(a5)
    3524:	fdf44783          	lbu	a5,-33(s0)
    3528:	e3dd                	bnez	a5,35ce <SetEPRxCount+0x14c>
    352a:	200007b7          	lui	a5,0x20000
    352e:	1c078793          	addi	a5,a5,448 # 200001c0 <Device_Property>
    3532:	02c7c703          	lbu	a4,44(a5)
    3536:	03e00793          	li	a5,62
    353a:	04e7fa63          	bgeu	a5,a4,358e <SetEPRxCount+0x10c>
    353e:	200007b7          	lui	a5,0x20000
    3542:	1c078793          	addi	a5,a5,448 # 200001c0 <Device_Property>
    3546:	02c7c783          	lbu	a5,44(a5)
    354a:	8395                	srli	a5,a5,0x5
    354c:	0ff7f793          	andi	a5,a5,255
    3550:	fef41623          	sh	a5,-20(s0)
    3554:	200007b7          	lui	a5,0x20000
    3558:	1c078793          	addi	a5,a5,448 # 200001c0 <Device_Property>
    355c:	02c7c783          	lbu	a5,44(a5)
    3560:	8bfd                	andi	a5,a5,31
    3562:	e791                	bnez	a5,356e <SetEPRxCount+0xec>
    3564:	fec45783          	lhu	a5,-20(s0)
    3568:	17fd                	addi	a5,a5,-1
    356a:	fef41623          	sh	a5,-20(s0)
    356e:	fec45783          	lhu	a5,-20(s0)
    3572:	07aa                	slli	a5,a5,0xa
    3574:	01079713          	slli	a4,a5,0x10
    3578:	8741                	srai	a4,a4,0x10
    357a:	77e1                	lui	a5,0xffff8
    357c:	8fd9                	or	a5,a5,a4
    357e:	07c2                	slli	a5,a5,0x10
    3580:	87c1                	srai	a5,a5,0x10
    3582:	01079713          	slli	a4,a5,0x10
    3586:	8341                	srli	a4,a4,0x10
    3588:	84e19623          	sh	a4,-1972(gp) # 20000284 <Ep0RxBlks>
    358c:	a089                	j	35ce <SetEPRxCount+0x14c>
    358e:	200007b7          	lui	a5,0x20000
    3592:	1c078793          	addi	a5,a5,448 # 200001c0 <Device_Property>
    3596:	02c7c783          	lbu	a5,44(a5)
    359a:	8385                	srli	a5,a5,0x1
    359c:	0ff7f793          	andi	a5,a5,255
    35a0:	fef41623          	sh	a5,-20(s0)
    35a4:	200007b7          	lui	a5,0x20000
    35a8:	1c078793          	addi	a5,a5,448 # 200001c0 <Device_Property>
    35ac:	02c7c783          	lbu	a5,44(a5)
    35b0:	8b85                	andi	a5,a5,1
    35b2:	c791                	beqz	a5,35be <SetEPRxCount+0x13c>
    35b4:	fec45783          	lhu	a5,-20(s0)
    35b8:	0785                	addi	a5,a5,1
    35ba:	fef41623          	sh	a5,-20(s0)
    35be:	fec45783          	lhu	a5,-20(s0)
    35c2:	07aa                	slli	a5,a5,0xa
    35c4:	01079713          	slli	a4,a5,0x10
    35c8:	8341                	srli	a4,a4,0x10
    35ca:	84e19623          	sh	a4,-1972(gp) # 20000284 <Ep0RxBlks>
    35ce:	0001                	nop
    35d0:	5432                	lw	s0,44(sp)
    35d2:	6145                	addi	sp,sp,48
    35d4:	8082                	ret

000035d6 <GetEPRxCount>:
    35d6:	1101                	addi	sp,sp,-32
    35d8:	ce22                	sw	s0,28(sp)
    35da:	1000                	addi	s0,sp,32
    35dc:	87aa                	mv	a5,a0
    35de:	fef407a3          	sb	a5,-17(s0)
    35e2:	400067b7          	lui	a5,0x40006
    35e6:	c5078793          	addi	a5,a5,-944 # 40005c50 <_eusrstack+0x20003450>
    35ea:	439c                	lw	a5,0(a5)
    35ec:	07c2                	slli	a5,a5,0x10
    35ee:	83c1                	srli	a5,a5,0x10
    35f0:	873e                	mv	a4,a5
    35f2:	fef44783          	lbu	a5,-17(s0)
    35f6:	078e                	slli	a5,a5,0x3
    35f8:	973e                	add	a4,a4,a5
    35fa:	200037b7          	lui	a5,0x20003
    35fe:	0799                	addi	a5,a5,6
    3600:	97ba                	add	a5,a5,a4
    3602:	0786                	slli	a5,a5,0x1
    3604:	439c                	lw	a5,0(a5)
    3606:	07c2                	slli	a5,a5,0x10
    3608:	83c1                	srli	a5,a5,0x10
    360a:	3ff7f793          	andi	a5,a5,1023
    360e:	07c2                	slli	a5,a5,0x10
    3610:	83c1                	srli	a5,a5,0x10
    3612:	853e                	mv	a0,a5
    3614:	4472                	lw	s0,28(sp)
    3616:	6105                	addi	sp,sp,32
    3618:	8082                	ret

0000361a <ByteSwap>:
    361a:	7179                	addi	sp,sp,-48
    361c:	d622                	sw	s0,44(sp)
    361e:	1800                	addi	s0,sp,48
    3620:	87aa                	mv	a5,a0
    3622:	fcf41f23          	sh	a5,-34(s0)
    3626:	fde45783          	lhu	a5,-34(s0)
    362a:	fef407a3          	sb	a5,-17(s0)
    362e:	fde45783          	lhu	a5,-34(s0)
    3632:	83a1                	srli	a5,a5,0x8
    3634:	07c2                	slli	a5,a5,0x10
    3636:	83c1                	srli	a5,a5,0x10
    3638:	01079713          	slli	a4,a5,0x10
    363c:	8741                	srai	a4,a4,0x10
    363e:	fef44783          	lbu	a5,-17(s0)
    3642:	07a2                	slli	a5,a5,0x8
    3644:	07c2                	slli	a5,a5,0x10
    3646:	87c1                	srai	a5,a5,0x10
    3648:	8fd9                	or	a5,a5,a4
    364a:	07c2                	slli	a5,a5,0x10
    364c:	87c1                	srai	a5,a5,0x10
    364e:	fef41623          	sh	a5,-20(s0)
    3652:	fec45783          	lhu	a5,-20(s0)
    3656:	853e                	mv	a0,a5
    3658:	5432                	lw	s0,44(sp)
    365a:	6145                	addi	sp,sp,48
    365c:	8082                	ret

0000365e <USB_SIL_Init>:
    365e:	1141                	addi	sp,sp,-16
    3660:	c622                	sw	s0,12(sp)
    3662:	0800                	addi	s0,sp,16
    3664:	400067b7          	lui	a5,0x40006
    3668:	c4478793          	addi	a5,a5,-956 # 40005c44 <_eusrstack+0x20003444>
    366c:	0007a023          	sw	zero,0(a5)
    3670:	7771                	lui	a4,0xffffc
    3672:	f0070713          	addi	a4,a4,-256 # ffffbf00 <_eusrstack+0xdfff9700>
    3676:	84e19023          	sh	a4,-1984(gp) # 20000278 <wInterrupt_Mask>
    367a:	8401d703          	lhu	a4,-1984(gp) # 20000278 <wInterrupt_Mask>
    367e:	400067b7          	lui	a5,0x40006
    3682:	c4078793          	addi	a5,a5,-960 # 40005c40 <_eusrstack+0x20003440>
    3686:	c398                	sw	a4,0(a5)
    3688:	4781                	li	a5,0
    368a:	853e                	mv	a0,a5
    368c:	4432                	lw	s0,12(sp)
    368e:	0141                	addi	sp,sp,16
    3690:	8082                	ret

00003692 <USB_SIL_Write>:
    3692:	1101                	addi	sp,sp,-32
    3694:	ce06                	sw	ra,28(sp)
    3696:	cc22                	sw	s0,24(sp)
    3698:	1000                	addi	s0,sp,32
    369a:	87aa                	mv	a5,a0
    369c:	feb42423          	sw	a1,-24(s0)
    36a0:	fec42223          	sw	a2,-28(s0)
    36a4:	fef407a3          	sb	a5,-17(s0)
    36a8:	fef44783          	lbu	a5,-17(s0)
    36ac:	07f7f793          	andi	a5,a5,127
    36b0:	0ff7f793          	andi	a5,a5,255
    36b4:	853e                	mv	a0,a5
    36b6:	d11ff0ef          	jal	ra,33c6 <GetEPTxAddr>
    36ba:	87aa                	mv	a5,a0
    36bc:	873e                	mv	a4,a5
    36be:	fe442783          	lw	a5,-28(s0)
    36c2:	07c2                	slli	a5,a5,0x10
    36c4:	83c1                	srli	a5,a5,0x10
    36c6:	863e                	mv	a2,a5
    36c8:	85ba                	mv	a1,a4
    36ca:	fe842503          	lw	a0,-24(s0)
    36ce:	bb9fe0ef          	jal	ra,2286 <UserToPMABufferCopy>
    36d2:	fef44783          	lbu	a5,-17(s0)
    36d6:	07f7f793          	andi	a5,a5,127
    36da:	0ff7f793          	andi	a5,a5,255
    36de:	fe442703          	lw	a4,-28(s0)
    36e2:	0742                	slli	a4,a4,0x10
    36e4:	8341                	srli	a4,a4,0x10
    36e6:	85ba                	mv	a1,a4
    36e8:	853e                	mv	a0,a5
    36ea:	d53ff0ef          	jal	ra,343c <SetEPTxCount>
    36ee:	4781                	li	a5,0
    36f0:	853e                	mv	a0,a5
    36f2:	40f2                	lw	ra,28(sp)
    36f4:	4462                	lw	s0,24(sp)
    36f6:	6105                	addi	sp,sp,32
    36f8:	8082                	ret

000036fa <ADC1_2_IRQHandler>:
    36fa:	a001                	j	36fa <ADC1_2_IRQHandler>

000036fc <handle_reset>:
    36fc:	1fffd197          	auipc	gp,0x1fffd
    3700:	33c18193          	addi	gp,gp,828 # 20000a38 <__global_pointer$>
    3704:	1ffff117          	auipc	sp,0x1ffff
    3708:	0fc10113          	addi	sp,sp,252 # 20002800 <_eusrstack>
    370c:	00001517          	auipc	a0,0x1
    3710:	08c50513          	addi	a0,a0,140 # 4798 <_data_lma>
    3714:	1fffd597          	auipc	a1,0x1fffd
    3718:	8ec58593          	addi	a1,a1,-1812 # 20000000 <_data_vma>
    371c:	83018613          	addi	a2,gp,-2000 # 20000268 <_edata>
    3720:	00c5fa63          	bgeu	a1,a2,3734 <handle_reset+0x38>
    3724:	00052283          	lw	t0,0(a0)
    3728:	0055a023          	sw	t0,0(a1)
    372c:	0511                	addi	a0,a0,4
    372e:	0591                	addi	a1,a1,4
    3730:	fec5eae3          	bltu	a1,a2,3724 <handle_reset+0x28>
    3734:	83018513          	addi	a0,gp,-2000 # 20000268 <_edata>
    3738:	d6818593          	addi	a1,gp,-664 # 200007a0 <_ebss>
    373c:	00b57763          	bgeu	a0,a1,374a <handle_reset+0x4e>
    3740:	00052023          	sw	zero,0(a0)
    3744:	0511                	addi	a0,a0,4
    3746:	feb56de3          	bltu	a0,a1,3740 <handle_reset+0x44>
    374a:	42fd                	li	t0,31
    374c:	bc029073          	csrw	0xbc0,t0
    3750:	428d                	li	t0,3
    3752:	80429073          	csrw	0x804,t0
    3756:	08800293          	li	t0,136
    375a:	30029073          	csrw	mstatus,t0
    375e:	ffffd297          	auipc	t0,0xffffd
    3762:	8a628293          	addi	t0,t0,-1882 # 4 <_einit>
    3766:	0032e293          	ori	t0,t0,3
    376a:	30529073          	csrw	mtvec,t0
    376e:	00001297          	auipc	t0,0x1
    3772:	dc228293          	addi	t0,t0,-574 # 4530 <main>
    3776:	34129073          	csrw	mepc,t0
    377a:	30200073          	mret

0000377e <EXTI_Init>:
    377e:	7179                	addi	sp,sp,-48
    3780:	d622                	sw	s0,44(sp)
    3782:	1800                	addi	s0,sp,48
    3784:	fca42e23          	sw	a0,-36(s0)
    3788:	fe042623          	sw	zero,-20(s0)
    378c:	400107b7          	lui	a5,0x40010
    3790:	40078793          	addi	a5,a5,1024 # 40010400 <_eusrstack+0x2000dc00>
    3794:	fef42623          	sw	a5,-20(s0)
    3798:	fdc42783          	lw	a5,-36(s0)
    379c:	47dc                	lw	a5,12(a5)
    379e:	12078063          	beqz	a5,38be <EXTI_Init+0x140>
    37a2:	400107b7          	lui	a5,0x40010
    37a6:	40078793          	addi	a5,a5,1024 # 40010400 <_eusrstack+0x2000dc00>
    37aa:	4394                	lw	a3,0(a5)
    37ac:	fdc42783          	lw	a5,-36(s0)
    37b0:	439c                	lw	a5,0(a5)
    37b2:	fff7c713          	not	a4,a5
    37b6:	400107b7          	lui	a5,0x40010
    37ba:	40078793          	addi	a5,a5,1024 # 40010400 <_eusrstack+0x2000dc00>
    37be:	8f75                	and	a4,a4,a3
    37c0:	c398                	sw	a4,0(a5)
    37c2:	400107b7          	lui	a5,0x40010
    37c6:	40078793          	addi	a5,a5,1024 # 40010400 <_eusrstack+0x2000dc00>
    37ca:	43d4                	lw	a3,4(a5)
    37cc:	fdc42783          	lw	a5,-36(s0)
    37d0:	439c                	lw	a5,0(a5)
    37d2:	fff7c713          	not	a4,a5
    37d6:	400107b7          	lui	a5,0x40010
    37da:	40078793          	addi	a5,a5,1024 # 40010400 <_eusrstack+0x2000dc00>
    37de:	8f75                	and	a4,a4,a3
    37e0:	c3d8                	sw	a4,4(a5)
    37e2:	fdc42783          	lw	a5,-36(s0)
    37e6:	43dc                	lw	a5,4(a5)
    37e8:	fec42703          	lw	a4,-20(s0)
    37ec:	97ba                	add	a5,a5,a4
    37ee:	fef42623          	sw	a5,-20(s0)
    37f2:	fec42783          	lw	a5,-20(s0)
    37f6:	4394                	lw	a3,0(a5)
    37f8:	fdc42783          	lw	a5,-36(s0)
    37fc:	4398                	lw	a4,0(a5)
    37fe:	fec42783          	lw	a5,-20(s0)
    3802:	8f55                	or	a4,a4,a3
    3804:	c398                	sw	a4,0(a5)
    3806:	400107b7          	lui	a5,0x40010
    380a:	40078793          	addi	a5,a5,1024 # 40010400 <_eusrstack+0x2000dc00>
    380e:	4794                	lw	a3,8(a5)
    3810:	fdc42783          	lw	a5,-36(s0)
    3814:	439c                	lw	a5,0(a5)
    3816:	fff7c713          	not	a4,a5
    381a:	400107b7          	lui	a5,0x40010
    381e:	40078793          	addi	a5,a5,1024 # 40010400 <_eusrstack+0x2000dc00>
    3822:	8f75                	and	a4,a4,a3
    3824:	c798                	sw	a4,8(a5)
    3826:	400107b7          	lui	a5,0x40010
    382a:	40078793          	addi	a5,a5,1024 # 40010400 <_eusrstack+0x2000dc00>
    382e:	47d4                	lw	a3,12(a5)
    3830:	fdc42783          	lw	a5,-36(s0)
    3834:	439c                	lw	a5,0(a5)
    3836:	fff7c713          	not	a4,a5
    383a:	400107b7          	lui	a5,0x40010
    383e:	40078793          	addi	a5,a5,1024 # 40010400 <_eusrstack+0x2000dc00>
    3842:	8f75                	and	a4,a4,a3
    3844:	c7d8                	sw	a4,12(a5)
    3846:	fdc42783          	lw	a5,-36(s0)
    384a:	4798                	lw	a4,8(a5)
    384c:	47c1                	li	a5,16
    384e:	02f71f63          	bne	a4,a5,388c <EXTI_Init+0x10e>
    3852:	400107b7          	lui	a5,0x40010
    3856:	40078793          	addi	a5,a5,1024 # 40010400 <_eusrstack+0x2000dc00>
    385a:	4794                	lw	a3,8(a5)
    385c:	fdc42783          	lw	a5,-36(s0)
    3860:	4398                	lw	a4,0(a5)
    3862:	400107b7          	lui	a5,0x40010
    3866:	40078793          	addi	a5,a5,1024 # 40010400 <_eusrstack+0x2000dc00>
    386a:	8f55                	or	a4,a4,a3
    386c:	c798                	sw	a4,8(a5)
    386e:	400107b7          	lui	a5,0x40010
    3872:	40078793          	addi	a5,a5,1024 # 40010400 <_eusrstack+0x2000dc00>
    3876:	47d4                	lw	a3,12(a5)
    3878:	fdc42783          	lw	a5,-36(s0)
    387c:	4398                	lw	a4,0(a5)
    387e:	400107b7          	lui	a5,0x40010
    3882:	40078793          	addi	a5,a5,1024 # 40010400 <_eusrstack+0x2000dc00>
    3886:	8f55                	or	a4,a4,a3
    3888:	c7d8                	sw	a4,12(a5)
    388a:	a8b1                	j	38e6 <EXTI_Init+0x168>
    388c:	400107b7          	lui	a5,0x40010
    3890:	40078793          	addi	a5,a5,1024 # 40010400 <_eusrstack+0x2000dc00>
    3894:	fef42623          	sw	a5,-20(s0)
    3898:	fdc42783          	lw	a5,-36(s0)
    389c:	479c                	lw	a5,8(a5)
    389e:	fec42703          	lw	a4,-20(s0)
    38a2:	97ba                	add	a5,a5,a4
    38a4:	fef42623          	sw	a5,-20(s0)
    38a8:	fec42783          	lw	a5,-20(s0)
    38ac:	4394                	lw	a3,0(a5)
    38ae:	fdc42783          	lw	a5,-36(s0)
    38b2:	4398                	lw	a4,0(a5)
    38b4:	fec42783          	lw	a5,-20(s0)
    38b8:	8f55                	or	a4,a4,a3
    38ba:	c398                	sw	a4,0(a5)
    38bc:	a02d                	j	38e6 <EXTI_Init+0x168>
    38be:	fdc42783          	lw	a5,-36(s0)
    38c2:	43dc                	lw	a5,4(a5)
    38c4:	fec42703          	lw	a4,-20(s0)
    38c8:	97ba                	add	a5,a5,a4
    38ca:	fef42623          	sw	a5,-20(s0)
    38ce:	fec42783          	lw	a5,-20(s0)
    38d2:	4394                	lw	a3,0(a5)
    38d4:	fdc42783          	lw	a5,-36(s0)
    38d8:	439c                	lw	a5,0(a5)
    38da:	fff7c713          	not	a4,a5
    38de:	fec42783          	lw	a5,-20(s0)
    38e2:	8f75                	and	a4,a4,a3
    38e4:	c398                	sw	a4,0(a5)
    38e6:	0001                	nop
    38e8:	5432                	lw	s0,44(sp)
    38ea:	6145                	addi	sp,sp,48
    38ec:	8082                	ret

000038ee <EXTI_ClearITPendingBit>:
    38ee:	1101                	addi	sp,sp,-32
    38f0:	ce22                	sw	s0,28(sp)
    38f2:	1000                	addi	s0,sp,32
    38f4:	fea42623          	sw	a0,-20(s0)
    38f8:	400107b7          	lui	a5,0x40010
    38fc:	40078793          	addi	a5,a5,1024 # 40010400 <_eusrstack+0x2000dc00>
    3900:	fec42703          	lw	a4,-20(s0)
    3904:	cbd8                	sw	a4,20(a5)
    3906:	0001                	nop
    3908:	4472                	lw	s0,28(sp)
    390a:	6105                	addi	sp,sp,32
    390c:	8082                	ret

0000390e <NVIC_SetPriority>:
    390e:	1101                	addi	sp,sp,-32
    3910:	ce22                	sw	s0,28(sp)
    3912:	1000                	addi	s0,sp,32
    3914:	fea42623          	sw	a0,-20(s0)
    3918:	87ae                	mv	a5,a1
    391a:	fef405a3          	sb	a5,-21(s0)
    391e:	feb44703          	lbu	a4,-21(s0)
    3922:	479d                	li	a5,7
    3924:	00e7f563          	bgeu	a5,a4,392e <NVIC_SetPriority+0x20>
    3928:	479d                	li	a5,7
    392a:	fef405a3          	sb	a5,-21(s0)
    392e:	e000e6b7          	lui	a3,0xe000e
    3932:	feb44783          	lbu	a5,-21(s0)
    3936:	0796                	slli	a5,a5,0x5
    3938:	0ff7f713          	andi	a4,a5,255
    393c:	fec42783          	lw	a5,-20(s0)
    3940:	97b6                	add	a5,a5,a3
    3942:	40e78023          	sb	a4,1024(a5)
    3946:	0001                	nop
    3948:	4472                	lw	s0,28(sp)
    394a:	6105                	addi	sp,sp,32
    394c:	8082                	ret

0000394e <NVIC_Init>:
    394e:	7179                	addi	sp,sp,-48
    3950:	d606                	sw	ra,44(sp)
    3952:	d422                	sw	s0,40(sp)
    3954:	1800                	addi	s0,sp,48
    3956:	fca42e23          	sw	a0,-36(s0)
    395a:	8741a703          	lw	a4,-1932(gp) # 200002ac <NVIC_Priority_Group>
    395e:	4785                	li	a5,1
    3960:	04f71d63          	bne	a4,a5,39ba <NVIC_Init+0x6c>
    3964:	fdc42783          	lw	a5,-36(s0)
    3968:	3398                	lbu	a4,1(a5)
    396a:	4785                	li	a5,1
    396c:	02f71663          	bne	a4,a5,3998 <NVIC_Init+0x4a>
    3970:	fdc42783          	lw	a5,-36(s0)
    3974:	239c                	lbu	a5,0(a5)
    3976:	873e                	mv	a4,a5
    3978:	fdc42783          	lw	a5,-36(s0)
    397c:	23bc                	lbu	a5,2(a5)
    397e:	0796                	slli	a5,a5,0x5
    3980:	07e2                	slli	a5,a5,0x18
    3982:	87e1                	srai	a5,a5,0x18
    3984:	f807e793          	ori	a5,a5,-128
    3988:	07e2                	slli	a5,a5,0x18
    398a:	87e1                	srai	a5,a5,0x18
    398c:	0ff7f793          	andi	a5,a5,255
    3990:	85be                	mv	a1,a5
    3992:	853a                	mv	a0,a4
    3994:	3fad                	jal	390e <NVIC_SetPriority>
    3996:	a015                	j	39ba <NVIC_Init+0x6c>
    3998:	fdc42783          	lw	a5,-36(s0)
    399c:	339c                	lbu	a5,1(a5)
    399e:	ef91                	bnez	a5,39ba <NVIC_Init+0x6c>
    39a0:	fdc42783          	lw	a5,-36(s0)
    39a4:	239c                	lbu	a5,0(a5)
    39a6:	873e                	mv	a4,a5
    39a8:	fdc42783          	lw	a5,-36(s0)
    39ac:	23bc                	lbu	a5,2(a5)
    39ae:	0796                	slli	a5,a5,0x5
    39b0:	0ff7f793          	andi	a5,a5,255
    39b4:	85be                	mv	a1,a5
    39b6:	853a                	mv	a0,a4
    39b8:	3f99                	jal	390e <NVIC_SetPriority>
    39ba:	fdc42783          	lw	a5,-36(s0)
    39be:	43dc                	lw	a5,4(a5)
    39c0:	c79d                	beqz	a5,39ee <NVIC_Init+0xa0>
    39c2:	fdc42783          	lw	a5,-36(s0)
    39c6:	239c                	lbu	a5,0(a5)
    39c8:	fef42623          	sw	a5,-20(s0)
    39cc:	fec42783          	lw	a5,-20(s0)
    39d0:	8bfd                	andi	a5,a5,31
    39d2:	4705                	li	a4,1
    39d4:	00f716b3          	sll	a3,a4,a5
    39d8:	e000e737          	lui	a4,0xe000e
    39dc:	fec42783          	lw	a5,-20(s0)
    39e0:	8395                	srli	a5,a5,0x5
    39e2:	04078793          	addi	a5,a5,64
    39e6:	078a                	slli	a5,a5,0x2
    39e8:	97ba                	add	a5,a5,a4
    39ea:	c394                	sw	a3,0(a5)
    39ec:	a035                	j	3a18 <NVIC_Init+0xca>
    39ee:	fdc42783          	lw	a5,-36(s0)
    39f2:	239c                	lbu	a5,0(a5)
    39f4:	fef42423          	sw	a5,-24(s0)
    39f8:	fe842783          	lw	a5,-24(s0)
    39fc:	8bfd                	andi	a5,a5,31
    39fe:	4705                	li	a4,1
    3a00:	00f716b3          	sll	a3,a4,a5
    3a04:	e000e737          	lui	a4,0xe000e
    3a08:	fe842783          	lw	a5,-24(s0)
    3a0c:	8395                	srli	a5,a5,0x5
    3a0e:	06078793          	addi	a5,a5,96
    3a12:	078a                	slli	a5,a5,0x2
    3a14:	97ba                	add	a5,a5,a4
    3a16:	c394                	sw	a3,0(a5)
    3a18:	0001                	nop
    3a1a:	50b2                	lw	ra,44(sp)
    3a1c:	5422                	lw	s0,40(sp)
    3a1e:	6145                	addi	sp,sp,48
    3a20:	8082                	ret

00003a22 <RCC_APB2PeriphClockCmd>:
    3a22:	1101                	addi	sp,sp,-32
    3a24:	ce22                	sw	s0,28(sp)
    3a26:	1000                	addi	s0,sp,32
    3a28:	fea42623          	sw	a0,-20(s0)
    3a2c:	feb42423          	sw	a1,-24(s0)
    3a30:	fe842783          	lw	a5,-24(s0)
    3a34:	cb99                	beqz	a5,3a4a <RCC_APB2PeriphClockCmd+0x28>
    3a36:	400217b7          	lui	a5,0x40021
    3a3a:	4f94                	lw	a3,24(a5)
    3a3c:	400217b7          	lui	a5,0x40021
    3a40:	fec42703          	lw	a4,-20(s0)
    3a44:	8f55                	or	a4,a4,a3
    3a46:	cf98                	sw	a4,24(a5)
    3a48:	a821                	j	3a60 <RCC_APB2PeriphClockCmd+0x3e>
    3a4a:	400217b7          	lui	a5,0x40021
    3a4e:	4f94                	lw	a3,24(a5)
    3a50:	fec42783          	lw	a5,-20(s0)
    3a54:	fff7c713          	not	a4,a5
    3a58:	400217b7          	lui	a5,0x40021
    3a5c:	8f75                	and	a4,a4,a3
    3a5e:	cf98                	sw	a4,24(a5)
    3a60:	0001                	nop
    3a62:	4472                	lw	s0,28(sp)
    3a64:	6105                	addi	sp,sp,32
    3a66:	8082                	ret

00003a68 <SysTick_Handler>:
    3a68:	1141                	addi	sp,sp,-16
    3a6a:	c622                	sw	s0,12(sp)
    3a6c:	c43a                	sw	a4,8(sp)
    3a6e:	c23e                	sw	a5,4(sp)
    3a70:	0800                	addi	s0,sp,16
    3a72:	e000f7b7          	lui	a5,0xe000f
    3a76:	43d8                	lw	a4,4(a5)
    3a78:	e000f7b7          	lui	a5,0xe000f
    3a7c:	9b79                	andi	a4,a4,-2
    3a7e:	c3d8                	sw	a4,4(a5)
    3a80:	8781a783          	lw	a5,-1928(gp) # 200002b0 <SysTimer_ms>
    3a84:	00178713          	addi	a4,a5,1 # e000f001 <_eusrstack+0xc000c801>
    3a88:	86e1ac23          	sw	a4,-1928(gp) # 200002b0 <SysTimer_ms>
    3a8c:	87c1a783          	lw	a5,-1924(gp) # 200002b4 <Delay_counter_ms>
    3a90:	c799                	beqz	a5,3a9e <SysTick_Handler+0x36>
    3a92:	87c1a783          	lw	a5,-1924(gp) # 200002b4 <Delay_counter_ms>
    3a96:	fff78713          	addi	a4,a5,-1
    3a9a:	86e1ae23          	sw	a4,-1924(gp) # 200002b4 <Delay_counter_ms>
    3a9e:	8801a783          	lw	a5,-1920(gp) # 200002b8 <Timeout_counter_ms>
    3aa2:	c799                	beqz	a5,3ab0 <SysTick_Handler+0x48>
    3aa4:	8801a783          	lw	a5,-1920(gp) # 200002b8 <Timeout_counter_ms>
    3aa8:	fff78713          	addi	a4,a5,-1
    3aac:	88e1a023          	sw	a4,-1920(gp) # 200002b8 <Timeout_counter_ms>
    3ab0:	0001                	nop
    3ab2:	4432                	lw	s0,12(sp)
    3ab4:	4722                	lw	a4,8(sp)
    3ab6:	4792                	lw	a5,4(sp)
    3ab8:	0141                	addi	sp,sp,16
    3aba:	30200073          	mret

00003abe <USART1_IRQHandler>:
    3abe:	1141                	addi	sp,sp,-16
    3ac0:	c622                	sw	s0,12(sp)
    3ac2:	c436                	sw	a3,8(sp)
    3ac4:	c23a                	sw	a4,4(sp)
    3ac6:	c03e                	sw	a5,0(sp)
    3ac8:	0800                	addi	s0,sp,16
    3aca:	400147b7          	lui	a5,0x40014
    3ace:	80078793          	addi	a5,a5,-2048 # 40013800 <_eusrstack+0x20011000>
    3ad2:	239e                	lhu	a5,0(a5)
    3ad4:	07c2                	slli	a5,a5,0x10
    3ad6:	83c1                	srli	a5,a5,0x10
    3ad8:	0207f793          	andi	a5,a5,32
    3adc:	cba1                	beqz	a5,3b2c <USART1_IRQHandler+0x6e>
    3ade:	d1418793          	addi	a5,gp,-748 # 2000074c <husart1>
    3ae2:	2bda                	lhu	a4,20(a5)
    3ae4:	47cd                	li	a5,19
    3ae6:	02e7ef63          	bltu	a5,a4,3b24 <USART1_IRQHandler+0x66>
    3aea:	400147b7          	lui	a5,0x40014
    3aee:	80078793          	addi	a5,a5,-2048 # 40013800 <_eusrstack+0x20011000>
    3af2:	23de                	lhu	a5,4(a5)
    3af4:	01079713          	slli	a4,a5,0x10
    3af8:	8341                	srli	a4,a4,0x10
    3afa:	d1418793          	addi	a5,gp,-748 # 2000074c <husart1>
    3afe:	2bde                	lhu	a5,20(a5)
    3b00:	86be                	mv	a3,a5
    3b02:	0ff77713          	andi	a4,a4,255
    3b06:	d1418793          	addi	a5,gp,-748 # 2000074c <husart1>
    3b0a:	97b6                	add	a5,a5,a3
    3b0c:	a398                	sb	a4,0(a5)
    3b0e:	d1418793          	addi	a5,gp,-748 # 2000074c <husart1>
    3b12:	2bde                	lhu	a5,20(a5)
    3b14:	0785                	addi	a5,a5,1
    3b16:	01079713          	slli	a4,a5,0x10
    3b1a:	8341                	srli	a4,a4,0x10
    3b1c:	d1418793          	addi	a5,gp,-748 # 2000074c <husart1>
    3b20:	abda                	sh	a4,20(a5)
    3b22:	a029                	j	3b2c <USART1_IRQHandler+0x6e>
    3b24:	d1418793          	addi	a5,gp,-748 # 2000074c <husart1>
    3b28:	00079a23          	sh	zero,20(a5)
    3b2c:	400147b7          	lui	a5,0x40014
    3b30:	80078793          	addi	a5,a5,-2048 # 40013800 <_eusrstack+0x20011000>
    3b34:	239e                	lhu	a5,0(a5)
    3b36:	07c2                	slli	a5,a5,0x10
    3b38:	83c1                	srli	a5,a5,0x10
    3b3a:	8bc1                	andi	a5,a5,16
    3b3c:	c385                	beqz	a5,3b5c <USART1_IRQHandler+0x9e>
    3b3e:	400147b7          	lui	a5,0x40014
    3b42:	80078793          	addi	a5,a5,-2048 # 40013800 <_eusrstack+0x20011000>
    3b46:	23de                	lhu	a5,4(a5)
    3b48:	d1418793          	addi	a5,gp,-748 # 2000074c <husart1>
    3b4c:	2bda                	lhu	a4,20(a5)
    3b4e:	d1418793          	addi	a5,gp,-748 # 2000074c <husart1>
    3b52:	abfa                	sh	a4,22(a5)
    3b54:	d1418793          	addi	a5,gp,-748 # 2000074c <husart1>
    3b58:	00079a23          	sh	zero,20(a5)
    3b5c:	0001                	nop
    3b5e:	4432                	lw	s0,12(sp)
    3b60:	46a2                	lw	a3,8(sp)
    3b62:	4712                	lw	a4,4(sp)
    3b64:	4782                	lw	a5,0(sp)
    3b66:	0141                	addi	sp,sp,16
    3b68:	30200073          	mret

00003b6c <USART2_IRQHandler>:
    3b6c:	1141                	addi	sp,sp,-16
    3b6e:	c622                	sw	s0,12(sp)
    3b70:	c436                	sw	a3,8(sp)
    3b72:	c23a                	sw	a4,4(sp)
    3b74:	c03e                	sw	a5,0(sp)
    3b76:	0800                	addi	s0,sp,16
    3b78:	400047b7          	lui	a5,0x40004
    3b7c:	40078793          	addi	a5,a5,1024 # 40004400 <_eusrstack+0x20001c00>
    3b80:	239e                	lhu	a5,0(a5)
    3b82:	07c2                	slli	a5,a5,0x10
    3b84:	83c1                	srli	a5,a5,0x10
    3b86:	0207f793          	andi	a5,a5,32
    3b8a:	cba1                	beqz	a5,3bda <USART2_IRQHandler+0x6e>
    3b8c:	d2c18793          	addi	a5,gp,-724 # 20000764 <husart2>
    3b90:	2bda                	lhu	a4,20(a5)
    3b92:	47cd                	li	a5,19
    3b94:	02e7ef63          	bltu	a5,a4,3bd2 <USART2_IRQHandler+0x66>
    3b98:	400047b7          	lui	a5,0x40004
    3b9c:	40078793          	addi	a5,a5,1024 # 40004400 <_eusrstack+0x20001c00>
    3ba0:	23de                	lhu	a5,4(a5)
    3ba2:	01079713          	slli	a4,a5,0x10
    3ba6:	8341                	srli	a4,a4,0x10
    3ba8:	d2c18793          	addi	a5,gp,-724 # 20000764 <husart2>
    3bac:	2bde                	lhu	a5,20(a5)
    3bae:	86be                	mv	a3,a5
    3bb0:	0ff77713          	andi	a4,a4,255
    3bb4:	d2c18793          	addi	a5,gp,-724 # 20000764 <husart2>
    3bb8:	97b6                	add	a5,a5,a3
    3bba:	a398                	sb	a4,0(a5)
    3bbc:	d2c18793          	addi	a5,gp,-724 # 20000764 <husart2>
    3bc0:	2bde                	lhu	a5,20(a5)
    3bc2:	0785                	addi	a5,a5,1
    3bc4:	01079713          	slli	a4,a5,0x10
    3bc8:	8341                	srli	a4,a4,0x10
    3bca:	d2c18793          	addi	a5,gp,-724 # 20000764 <husart2>
    3bce:	abda                	sh	a4,20(a5)
    3bd0:	a029                	j	3bda <USART2_IRQHandler+0x6e>
    3bd2:	d2c18793          	addi	a5,gp,-724 # 20000764 <husart2>
    3bd6:	00079a23          	sh	zero,20(a5)
    3bda:	400047b7          	lui	a5,0x40004
    3bde:	40078793          	addi	a5,a5,1024 # 40004400 <_eusrstack+0x20001c00>
    3be2:	239e                	lhu	a5,0(a5)
    3be4:	07c2                	slli	a5,a5,0x10
    3be6:	83c1                	srli	a5,a5,0x10
    3be8:	8bc1                	andi	a5,a5,16
    3bea:	c385                	beqz	a5,3c0a <USART2_IRQHandler+0x9e>
    3bec:	400047b7          	lui	a5,0x40004
    3bf0:	40078793          	addi	a5,a5,1024 # 40004400 <_eusrstack+0x20001c00>
    3bf4:	23de                	lhu	a5,4(a5)
    3bf6:	d2c18793          	addi	a5,gp,-724 # 20000764 <husart2>
    3bfa:	2bda                	lhu	a4,20(a5)
    3bfc:	d2c18793          	addi	a5,gp,-724 # 20000764 <husart2>
    3c00:	abfa                	sh	a4,22(a5)
    3c02:	d2c18793          	addi	a5,gp,-724 # 20000764 <husart2>
    3c06:	00079a23          	sh	zero,20(a5)
    3c0a:	0001                	nop
    3c0c:	4432                	lw	s0,12(sp)
    3c0e:	46a2                	lw	a3,8(sp)
    3c10:	4712                	lw	a4,4(sp)
    3c12:	4782                	lw	a5,0(sp)
    3c14:	0141                	addi	sp,sp,16
    3c16:	30200073          	mret

00003c1a <USART3_IRQHandler>:
    3c1a:	1141                	addi	sp,sp,-16
    3c1c:	c622                	sw	s0,12(sp)
    3c1e:	c436                	sw	a3,8(sp)
    3c20:	c23a                	sw	a4,4(sp)
    3c22:	c03e                	sw	a5,0(sp)
    3c24:	0800                	addi	s0,sp,16
    3c26:	400057b7          	lui	a5,0x40005
    3c2a:	80078793          	addi	a5,a5,-2048 # 40004800 <_eusrstack+0x20002000>
    3c2e:	239e                	lhu	a5,0(a5)
    3c30:	07c2                	slli	a5,a5,0x10
    3c32:	83c1                	srli	a5,a5,0x10
    3c34:	0207f793          	andi	a5,a5,32
    3c38:	cba1                	beqz	a5,3c88 <USART3_IRQHandler+0x6e>
    3c3a:	d4418793          	addi	a5,gp,-700 # 2000077c <husart3>
    3c3e:	2bda                	lhu	a4,20(a5)
    3c40:	47cd                	li	a5,19
    3c42:	02e7ef63          	bltu	a5,a4,3c80 <USART3_IRQHandler+0x66>
    3c46:	400057b7          	lui	a5,0x40005
    3c4a:	80078793          	addi	a5,a5,-2048 # 40004800 <_eusrstack+0x20002000>
    3c4e:	23de                	lhu	a5,4(a5)
    3c50:	01079713          	slli	a4,a5,0x10
    3c54:	8341                	srli	a4,a4,0x10
    3c56:	d4418793          	addi	a5,gp,-700 # 2000077c <husart3>
    3c5a:	2bde                	lhu	a5,20(a5)
    3c5c:	86be                	mv	a3,a5
    3c5e:	0ff77713          	andi	a4,a4,255
    3c62:	d4418793          	addi	a5,gp,-700 # 2000077c <husart3>
    3c66:	97b6                	add	a5,a5,a3
    3c68:	a398                	sb	a4,0(a5)
    3c6a:	d4418793          	addi	a5,gp,-700 # 2000077c <husart3>
    3c6e:	2bde                	lhu	a5,20(a5)
    3c70:	0785                	addi	a5,a5,1
    3c72:	01079713          	slli	a4,a5,0x10
    3c76:	8341                	srli	a4,a4,0x10
    3c78:	d4418793          	addi	a5,gp,-700 # 2000077c <husart3>
    3c7c:	abda                	sh	a4,20(a5)
    3c7e:	a029                	j	3c88 <USART3_IRQHandler+0x6e>
    3c80:	d4418793          	addi	a5,gp,-700 # 2000077c <husart3>
    3c84:	00079a23          	sh	zero,20(a5)
    3c88:	400057b7          	lui	a5,0x40005
    3c8c:	80078793          	addi	a5,a5,-2048 # 40004800 <_eusrstack+0x20002000>
    3c90:	239e                	lhu	a5,0(a5)
    3c92:	07c2                	slli	a5,a5,0x10
    3c94:	83c1                	srli	a5,a5,0x10
    3c96:	8bc1                	andi	a5,a5,16
    3c98:	c385                	beqz	a5,3cb8 <USART3_IRQHandler+0x9e>
    3c9a:	400057b7          	lui	a5,0x40005
    3c9e:	80078793          	addi	a5,a5,-2048 # 40004800 <_eusrstack+0x20002000>
    3ca2:	23de                	lhu	a5,4(a5)
    3ca4:	d4418793          	addi	a5,gp,-700 # 2000077c <husart3>
    3ca8:	2bda                	lhu	a4,20(a5)
    3caa:	d4418793          	addi	a5,gp,-700 # 2000077c <husart3>
    3cae:	abfa                	sh	a4,22(a5)
    3cb0:	d4418793          	addi	a5,gp,-700 # 2000077c <husart3>
    3cb4:	00079a23          	sh	zero,20(a5)
    3cb8:	0001                	nop
    3cba:	4432                	lw	s0,12(sp)
    3cbc:	46a2                	lw	a3,8(sp)
    3cbe:	4712                	lw	a4,4(sp)
    3cc0:	4782                	lw	a5,0(sp)
    3cc2:	0141                	addi	sp,sp,16
    3cc4:	30200073          	mret

00003cc8 <TIM3_IRQHandler>:
    3cc8:	1141                	addi	sp,sp,-16
    3cca:	c622                	sw	s0,12(sp)
    3ccc:	c43a                	sw	a4,8(sp)
    3cce:	c23e                	sw	a5,4(sp)
    3cd0:	0800                	addi	s0,sp,16
    3cd2:	400007b7          	lui	a5,0x40000
    3cd6:	40078793          	addi	a5,a5,1024 # 40000400 <_eusrstack+0x1fffdc00>
    3cda:	2b9e                	lhu	a5,16(a5)
    3cdc:	07c2                	slli	a5,a5,0x10
    3cde:	83c1                	srli	a5,a5,0x10
    3ce0:	8b85                	andi	a5,a5,1
    3ce2:	c38d                	beqz	a5,3d04 <TIM3_IRQHandler+0x3c>
    3ce4:	400007b7          	lui	a5,0x40000
    3ce8:	40078793          	addi	a5,a5,1024 # 40000400 <_eusrstack+0x1fffdc00>
    3cec:	2b9e                	lhu	a5,16(a5)
    3cee:	01079713          	slli	a4,a5,0x10
    3cf2:	8341                	srli	a4,a4,0x10
    3cf4:	400007b7          	lui	a5,0x40000
    3cf8:	40078793          	addi	a5,a5,1024 # 40000400 <_eusrstack+0x1fffdc00>
    3cfc:	9b79                	andi	a4,a4,-2
    3cfe:	0742                	slli	a4,a4,0x10
    3d00:	8341                	srli	a4,a4,0x10
    3d02:	ab9a                	sh	a4,16(a5)
    3d04:	0001                	nop
    3d06:	4432                	lw	s0,12(sp)
    3d08:	4722                	lw	a4,8(sp)
    3d0a:	4792                	lw	a5,4(sp)
    3d0c:	0141                	addi	sp,sp,16
    3d0e:	30200073          	mret

00003d12 <NVIC_SetPriority>:
    3d12:	1101                	addi	sp,sp,-32
    3d14:	ce22                	sw	s0,28(sp)
    3d16:	1000                	addi	s0,sp,32
    3d18:	fea42623          	sw	a0,-20(s0)
    3d1c:	87ae                	mv	a5,a1
    3d1e:	fef405a3          	sb	a5,-21(s0)
    3d22:	feb44703          	lbu	a4,-21(s0)
    3d26:	479d                	li	a5,7
    3d28:	00e7f563          	bgeu	a5,a4,3d32 <NVIC_SetPriority+0x20>
    3d2c:	479d                	li	a5,7
    3d2e:	fef405a3          	sb	a5,-21(s0)
    3d32:	e000e6b7          	lui	a3,0xe000e
    3d36:	feb44783          	lbu	a5,-21(s0)
    3d3a:	0796                	slli	a5,a5,0x5
    3d3c:	0ff7f713          	andi	a4,a5,255
    3d40:	fec42783          	lw	a5,-20(s0)
    3d44:	97b6                	add	a5,a5,a3
    3d46:	40e78023          	sb	a4,1024(a5)
    3d4a:	0001                	nop
    3d4c:	4472                	lw	s0,28(sp)
    3d4e:	6105                	addi	sp,sp,32
    3d50:	8082                	ret

00003d52 <RVMSIS_Debug_init>:
    3d52:	1141                	addi	sp,sp,-16
    3d54:	c622                	sw	s0,12(sp)
    3d56:	0800                	addi	s0,sp,16
    3d58:	400217b7          	lui	a5,0x40021
    3d5c:	4f98                	lw	a4,24(a5)
    3d5e:	400217b7          	lui	a5,0x40021
    3d62:	00476713          	ori	a4,a4,4
    3d66:	cf98                	sw	a4,24(a5)
    3d68:	400217b7          	lui	a5,0x40021
    3d6c:	4f98                	lw	a4,24(a5)
    3d6e:	400217b7          	lui	a5,0x40021
    3d72:	00176713          	ori	a4,a4,1
    3d76:	cf98                	sw	a4,24(a5)
    3d78:	400107b7          	lui	a5,0x40010
    3d7c:	43d4                	lw	a3,4(a5)
    3d7e:	400107b7          	lui	a5,0x40010
    3d82:	f9000737          	lui	a4,0xf9000
    3d86:	177d                	addi	a4,a4,-1
    3d88:	8f75                	and	a4,a4,a3
    3d8a:	c3d8                	sw	a4,4(a5)
    3d8c:	400117b7          	lui	a5,0x40011
    3d90:	80078793          	addi	a5,a5,-2048 # 40010800 <_eusrstack+0x2000e000>
    3d94:	6759                	lui	a4,0x16
    3d96:	cf98                	sw	a4,24(a5)
    3d98:	400117b7          	lui	a5,0x40011
    3d9c:	80078793          	addi	a5,a5,-2048 # 40010800 <_eusrstack+0x2000e000>
    3da0:	6719                	lui	a4,0x6
    3da2:	cf98                	sw	a4,24(a5)
    3da4:	400117b7          	lui	a5,0x40011
    3da8:	80078793          	addi	a5,a5,-2048 # 40010800 <_eusrstack+0x2000e000>
    3dac:	6759                	lui	a4,0x16
    3dae:	cf98                	sw	a4,24(a5)
    3db0:	400117b7          	lui	a5,0x40011
    3db4:	80078793          	addi	a5,a5,-2048 # 40010800 <_eusrstack+0x2000e000>
    3db8:	4f9c                	lw	a5,24(a5)
    3dba:	0001                	nop
    3dbc:	4432                	lw	s0,12(sp)
    3dbe:	0141                	addi	sp,sp,16
    3dc0:	8082                	ret

00003dc2 <RVMSIS_RCC_SystemClock_144MHz>:
    3dc2:	1141                	addi	sp,sp,-16
    3dc4:	c622                	sw	s0,12(sp)
    3dc6:	0800                	addi	s0,sp,16
    3dc8:	400217b7          	lui	a5,0x40021
    3dcc:	4398                	lw	a4,0(a5)
    3dce:	400217b7          	lui	a5,0x40021
    3dd2:	00176713          	ori	a4,a4,1
    3dd6:	c398                	sw	a4,0(a5)
    3dd8:	0001                	nop
    3dda:	400217b7          	lui	a5,0x40021
    3dde:	439c                	lw	a5,0(a5)
    3de0:	8b89                	andi	a5,a5,2
    3de2:	dfe5                	beqz	a5,3dda <RVMSIS_RCC_SystemClock_144MHz+0x18>
    3de4:	400217b7          	lui	a5,0x40021
    3de8:	4394                	lw	a3,0(a5)
    3dea:	400217b7          	lui	a5,0x40021
    3dee:	fffc0737          	lui	a4,0xfffc0
    3df2:	177d                	addi	a4,a4,-1
    3df4:	8f75                	and	a4,a4,a3
    3df6:	c398                	sw	a4,0(a5)
    3df8:	400217b7          	lui	a5,0x40021
    3dfc:	4394                	lw	a3,0(a5)
    3dfe:	400217b7          	lui	a5,0x40021
    3e02:	6741                	lui	a4,0x10
    3e04:	8f55                	or	a4,a4,a3
    3e06:	c398                	sw	a4,0(a5)
    3e08:	0001                	nop
    3e0a:	400217b7          	lui	a5,0x40021
    3e0e:	4398                	lw	a4,0(a5)
    3e10:	000207b7          	lui	a5,0x20
    3e14:	8ff9                	and	a5,a5,a4
    3e16:	dbf5                	beqz	a5,3e0a <RVMSIS_RCC_SystemClock_144MHz+0x48>
    3e18:	400217b7          	lui	a5,0x40021
    3e1c:	4394                	lw	a3,0(a5)
    3e1e:	400217b7          	lui	a5,0x40021
    3e22:	00080737          	lui	a4,0x80
    3e26:	8f55                	or	a4,a4,a3
    3e28:	c398                	sw	a4,0(a5)
    3e2a:	400217b7          	lui	a5,0x40021
    3e2e:	43dc                	lw	a5,4(a5)
    3e30:	ffc7f713          	andi	a4,a5,-4
    3e34:	400217b7          	lui	a5,0x40021
    3e38:	00176713          	ori	a4,a4,1
    3e3c:	c3d8                	sw	a4,4(a5)
    3e3e:	400217b7          	lui	a5,0x40021
    3e42:	4394                	lw	a3,0(a5)
    3e44:	400217b7          	lui	a5,0x40021
    3e48:	ff000737          	lui	a4,0xff000
    3e4c:	177d                	addi	a4,a4,-1
    3e4e:	8f75                	and	a4,a4,a3
    3e50:	c398                	sw	a4,0(a5)
    3e52:	400217b7          	lui	a5,0x40021
    3e56:	43dc                	lw	a5,4(a5)
    3e58:	f0f7f713          	andi	a4,a5,-241
    3e5c:	400217b7          	lui	a5,0x40021
    3e60:	08076713          	ori	a4,a4,128
    3e64:	c3d8                	sw	a4,4(a5)
    3e66:	400227b7          	lui	a5,0x40022
    3e6a:	4b94                	lw	a3,16(a5)
    3e6c:	400227b7          	lui	a5,0x40022
    3e70:	fe000737          	lui	a4,0xfe000
    3e74:	177d                	addi	a4,a4,-1
    3e76:	8f75                	and	a4,a4,a3
    3e78:	cb98                	sw	a4,16(a5)
    3e7a:	400217b7          	lui	a5,0x40021
    3e7e:	43dc                	lw	a5,4(a5)
    3e80:	8ff7f713          	andi	a4,a5,-1793
    3e84:	400217b7          	lui	a5,0x40021
    3e88:	40076713          	ori	a4,a4,1024
    3e8c:	c3d8                	sw	a4,4(a5)
    3e8e:	400217b7          	lui	a5,0x40021
    3e92:	43d4                	lw	a3,4(a5)
    3e94:	400217b7          	lui	a5,0x40021
    3e98:	7771                	lui	a4,0xffffc
    3e9a:	7ff70713          	addi	a4,a4,2047 # ffffc7ff <_eusrstack+0xdfff9fff>
    3e9e:	8f75                	and	a4,a4,a3
    3ea0:	c3d8                	sw	a4,4(a5)
    3ea2:	400217b7          	lui	a5,0x40021
    3ea6:	43d8                	lw	a4,4(a5)
    3ea8:	77d1                	lui	a5,0xffff4
    3eaa:	17fd                	addi	a5,a5,-1
    3eac:	00f776b3          	and	a3,a4,a5
    3eb0:	400217b7          	lui	a5,0x40021
    3eb4:	6721                	lui	a4,0x8
    3eb6:	8f55                	or	a4,a4,a3
    3eb8:	c3d8                	sw	a4,4(a5)
    3eba:	400217b7          	lui	a5,0x40021
    3ebe:	43d4                	lw	a3,4(a5)
    3ec0:	400217b7          	lui	a5,0x40021
    3ec4:	7701                	lui	a4,0xfffe0
    3ec6:	177d                	addi	a4,a4,-1
    3ec8:	8f75                	and	a4,a4,a3
    3eca:	c3d8                	sw	a4,4(a5)
    3ecc:	400217b7          	lui	a5,0x40021
    3ed0:	43d4                	lw	a3,4(a5)
    3ed2:	400217b7          	lui	a5,0x40021
    3ed6:	6741                	lui	a4,0x10
    3ed8:	8f55                	or	a4,a4,a3
    3eda:	c3d8                	sw	a4,4(a5)
    3edc:	400217b7          	lui	a5,0x40021
    3ee0:	43d4                	lw	a3,4(a5)
    3ee2:	400217b7          	lui	a5,0x40021
    3ee6:	003c0737          	lui	a4,0x3c0
    3eea:	8f55                	or	a4,a4,a3
    3eec:	c3d8                	sw	a4,4(a5)
    3eee:	400217b7          	lui	a5,0x40021
    3ef2:	43d8                	lw	a4,4(a5)
    3ef4:	ff4007b7          	lui	a5,0xff400
    3ef8:	17fd                	addi	a5,a5,-1
    3efa:	00f776b3          	and	a3,a4,a5
    3efe:	400217b7          	lui	a5,0x40021
    3f02:	00800737          	lui	a4,0x800
    3f06:	8f55                	or	a4,a4,a3
    3f08:	c3d8                	sw	a4,4(a5)
    3f0a:	400217b7          	lui	a5,0x40021
    3f0e:	43d8                	lw	a4,4(a5)
    3f10:	f90007b7          	lui	a5,0xf9000
    3f14:	17fd                	addi	a5,a5,-1
    3f16:	00f776b3          	and	a3,a4,a5
    3f1a:	400217b7          	lui	a5,0x40021
    3f1e:	06000737          	lui	a4,0x6000
    3f22:	8f55                	or	a4,a4,a3
    3f24:	c3d8                	sw	a4,4(a5)
    3f26:	400217b7          	lui	a5,0x40021
    3f2a:	4394                	lw	a3,0(a5)
    3f2c:	400217b7          	lui	a5,0x40021
    3f30:	01000737          	lui	a4,0x1000
    3f34:	8f55                	or	a4,a4,a3
    3f36:	c398                	sw	a4,0(a5)
    3f38:	400217b7          	lui	a5,0x40021
    3f3c:	43dc                	lw	a5,4(a5)
    3f3e:	ffc7f713          	andi	a4,a5,-4
    3f42:	400217b7          	lui	a5,0x40021
    3f46:	00276713          	ori	a4,a4,2
    3f4a:	c3d8                	sw	a4,4(a5)
    3f4c:	0001                	nop
    3f4e:	400217b7          	lui	a5,0x40021
    3f52:	4398                	lw	a4,0(a5)
    3f54:	020007b7          	lui	a5,0x2000
    3f58:	8ff9                	and	a5,a5,a4
    3f5a:	dbf5                	beqz	a5,3f4e <RVMSIS_RCC_SystemClock_144MHz+0x18c>
    3f5c:	0001                	nop
    3f5e:	4432                	lw	s0,12(sp)
    3f60:	0141                	addi	sp,sp,16
    3f62:	8082                	ret

00003f64 <RVMSIS_SysTick_Timer_init>:
    3f64:	1101                	addi	sp,sp,-32
    3f66:	ce06                	sw	ra,28(sp)
    3f68:	cc22                	sw	s0,24(sp)
    3f6a:	1000                	addi	s0,sp,32
    3f6c:	e000f7b7          	lui	a5,0xe000f
    3f70:	4398                	lw	a4,0(a5)
    3f72:	e000f7b7          	lui	a5,0xe000f
    3f76:	9b79                	andi	a4,a4,-2
    3f78:	c398                	sw	a4,0(a5)
    3f7a:	e000f7b7          	lui	a5,0xe000f
    3f7e:	4398                	lw	a4,0(a5)
    3f80:	e000f7b7          	lui	a5,0xe000f
    3f84:	00276713          	ori	a4,a4,2
    3f88:	c398                	sw	a4,0(a5)
    3f8a:	e000f7b7          	lui	a5,0xe000f
    3f8e:	4398                	lw	a4,0(a5)
    3f90:	e000f7b7          	lui	a5,0xe000f
    3f94:	9b6d                	andi	a4,a4,-5
    3f96:	c398                	sw	a4,0(a5)
    3f98:	e000f7b7          	lui	a5,0xe000f
    3f9c:	4398                	lw	a4,0(a5)
    3f9e:	e000f7b7          	lui	a5,0xe000f
    3fa2:	00876713          	ori	a4,a4,8
    3fa6:	c398                	sw	a4,0(a5)
    3fa8:	e000f7b7          	lui	a5,0xe000f
    3fac:	4398                	lw	a4,0(a5)
    3fae:	e000f7b7          	lui	a5,0xe000f
    3fb2:	01076713          	ori	a4,a4,16
    3fb6:	c398                	sw	a4,0(a5)
    3fb8:	e000f7b7          	lui	a5,0xe000f
    3fbc:	4398                	lw	a4,0(a5)
    3fbe:	e000f7b7          	lui	a5,0xe000f
    3fc2:	02076713          	ori	a4,a4,32
    3fc6:	c398                	sw	a4,0(a5)
    3fc8:	e000f737          	lui	a4,0xe000f
    3fcc:	6789                	lui	a5,0x2
    3fce:	32778793          	addi	a5,a5,807 # 2327 <UserToPMABufferCopy+0xa1>
    3fd2:	4801                	li	a6,0
    3fd4:	cb1c                	sw	a5,16(a4)
    3fd6:	01072a23          	sw	a6,20(a4) # e000f014 <_eusrstack+0xc000c814>
    3fda:	47b1                	li	a5,12
    3fdc:	fef42623          	sw	a5,-20(s0)
    3fe0:	fec42783          	lw	a5,-20(s0)
    3fe4:	8bfd                	andi	a5,a5,31
    3fe6:	4705                	li	a4,1
    3fe8:	00f716b3          	sll	a3,a4,a5
    3fec:	e000e737          	lui	a4,0xe000e
    3ff0:	fec42783          	lw	a5,-20(s0)
    3ff4:	8395                	srli	a5,a5,0x5
    3ff6:	04078793          	addi	a5,a5,64
    3ffa:	078a                	slli	a5,a5,0x2
    3ffc:	97ba                	add	a5,a5,a4
    3ffe:	c394                	sw	a3,0(a5)
    4000:	459d                	li	a1,7
    4002:	4531                	li	a0,12
    4004:	d0fff0ef          	jal	ra,3d12 <NVIC_SetPriority>
    4008:	e000f7b7          	lui	a5,0xe000f
    400c:	4398                	lw	a4,0(a5)
    400e:	e000f7b7          	lui	a5,0xe000f
    4012:	00176713          	ori	a4,a4,1
    4016:	c398                	sw	a4,0(a5)
    4018:	0001                	nop
    401a:	40f2                	lw	ra,28(sp)
    401c:	4462                	lw	s0,24(sp)
    401e:	6105                	addi	sp,sp,32
    4020:	8082                	ret

00004022 <Delay_ms>:
    4022:	1101                	addi	sp,sp,-32
    4024:	ce22                	sw	s0,28(sp)
    4026:	1000                	addi	s0,sp,32
    4028:	fea42623          	sw	a0,-20(s0)
    402c:	fec42703          	lw	a4,-20(s0)
    4030:	86e1ae23          	sw	a4,-1924(gp) # 200002b4 <Delay_counter_ms>
    4034:	0001                	nop
    4036:	87c1a783          	lw	a5,-1924(gp) # 200002b4 <Delay_counter_ms>
    403a:	fff5                	bnez	a5,4036 <Delay_ms+0x14>
    403c:	0001                	nop
    403e:	4472                	lw	s0,28(sp)
    4040:	6105                	addi	sp,sp,32
    4042:	8082                	ret

00004044 <RVMSIS_GPIO_MODE_Set>:
    4044:	7179                	addi	sp,sp,-48
    4046:	d622                	sw	s0,44(sp)
    4048:	1800                	addi	s0,sp,48
    404a:	fca42e23          	sw	a0,-36(s0)
    404e:	87ae                	mv	a5,a1
    4050:	8736                	mv	a4,a3
    4052:	fcf40da3          	sb	a5,-37(s0)
    4056:	87b2                	mv	a5,a2
    4058:	fcf40d23          	sb	a5,-38(s0)
    405c:	87ba                	mv	a5,a4
    405e:	fcf40ca3          	sb	a5,-39(s0)
    4062:	fe0407a3          	sb	zero,-17(s0)
    4066:	fda44783          	lbu	a5,-38(s0)
    406a:	c789                	beqz	a5,4074 <RVMSIS_GPIO_MODE_Set+0x30>
    406c:	4705                	li	a4,1
    406e:	02e78e63          	beq	a5,a4,40aa <RVMSIS_GPIO_MODE_Set+0x66>
    4072:	a8a5                	j	40ea <RVMSIS_GPIO_MODE_Set+0xa6>
    4074:	fdb44783          	lbu	a5,-37(s0)
    4078:	078a                	slli	a5,a5,0x2
    407a:	fef407a3          	sb	a5,-17(s0)
    407e:	fdc42783          	lw	a5,-36(s0)
    4082:	4398                	lw	a4,0(a5)
    4084:	fef44783          	lbu	a5,-17(s0)
    4088:	468d                	li	a3,3
    408a:	00f697b3          	sll	a5,a3,a5
    408e:	fff7c793          	not	a5,a5
    4092:	8ff9                	and	a5,a5,a4
    4094:	fd944683          	lbu	a3,-39(s0)
    4098:	fef44703          	lbu	a4,-17(s0)
    409c:	00e69733          	sll	a4,a3,a4
    40a0:	8f5d                	or	a4,a4,a5
    40a2:	fdc42783          	lw	a5,-36(s0)
    40a6:	c398                	sw	a4,0(a5)
    40a8:	a089                	j	40ea <RVMSIS_GPIO_MODE_Set+0xa6>
    40aa:	fdb44783          	lbu	a5,-37(s0)
    40ae:	17e1                	addi	a5,a5,-8
    40b0:	fcf40da3          	sb	a5,-37(s0)
    40b4:	fdb44783          	lbu	a5,-37(s0)
    40b8:	078a                	slli	a5,a5,0x2
    40ba:	fef407a3          	sb	a5,-17(s0)
    40be:	fdc42783          	lw	a5,-36(s0)
    40c2:	43d8                	lw	a4,4(a5)
    40c4:	fef44783          	lbu	a5,-17(s0)
    40c8:	468d                	li	a3,3
    40ca:	00f697b3          	sll	a5,a3,a5
    40ce:	fff7c793          	not	a5,a5
    40d2:	8ff9                	and	a5,a5,a4
    40d4:	fd944683          	lbu	a3,-39(s0)
    40d8:	fef44703          	lbu	a4,-17(s0)
    40dc:	00e69733          	sll	a4,a3,a4
    40e0:	8f5d                	or	a4,a4,a5
    40e2:	fdc42783          	lw	a5,-36(s0)
    40e6:	c3d8                	sw	a4,4(a5)
    40e8:	0001                	nop
    40ea:	0001                	nop
    40ec:	5432                	lw	s0,44(sp)
    40ee:	6145                	addi	sp,sp,48
    40f0:	8082                	ret

000040f2 <RVMSIS_GPIO_SPEED_Set>:
    40f2:	7179                	addi	sp,sp,-48
    40f4:	d606                	sw	ra,44(sp)
    40f6:	d422                	sw	s0,40(sp)
    40f8:	1800                	addi	s0,sp,48
    40fa:	fca42e23          	sw	a0,-36(s0)
    40fe:	87ae                	mv	a5,a1
    4100:	8732                	mv	a4,a2
    4102:	fcf40da3          	sb	a5,-37(s0)
    4106:	87ba                	mv	a5,a4
    4108:	fcf40d23          	sb	a5,-38(s0)
    410c:	fe0407a3          	sb	zero,-17(s0)
    4110:	fdb44703          	lbu	a4,-37(s0)
    4114:	479d                	li	a5,7
    4116:	00e7e563          	bltu	a5,a4,4120 <RVMSIS_GPIO_SPEED_Set+0x2e>
    411a:	fe0407a3          	sb	zero,-17(s0)
    411e:	a021                	j	4126 <RVMSIS_GPIO_SPEED_Set+0x34>
    4120:	4785                	li	a5,1
    4122:	fef407a3          	sb	a5,-17(s0)
    4126:	fda44783          	lbu	a5,-38(s0)
    412a:	ef89                	bnez	a5,4144 <RVMSIS_GPIO_SPEED_Set+0x52>
    412c:	fef44703          	lbu	a4,-17(s0)
    4130:	fdb44783          	lbu	a5,-37(s0)
    4134:	4681                	li	a3,0
    4136:	863a                	mv	a2,a4
    4138:	85be                	mv	a1,a5
    413a:	fdc42503          	lw	a0,-36(s0)
    413e:	f07ff0ef          	jal	ra,4044 <RVMSIS_GPIO_MODE_Set>
    4142:	a09d                	j	41a8 <RVMSIS_GPIO_SPEED_Set+0xb6>
    4144:	fda44703          	lbu	a4,-38(s0)
    4148:	4785                	li	a5,1
    414a:	00f71e63          	bne	a4,a5,4166 <RVMSIS_GPIO_SPEED_Set+0x74>
    414e:	fef44703          	lbu	a4,-17(s0)
    4152:	fdb44783          	lbu	a5,-37(s0)
    4156:	4685                	li	a3,1
    4158:	863a                	mv	a2,a4
    415a:	85be                	mv	a1,a5
    415c:	fdc42503          	lw	a0,-36(s0)
    4160:	ee5ff0ef          	jal	ra,4044 <RVMSIS_GPIO_MODE_Set>
    4164:	a091                	j	41a8 <RVMSIS_GPIO_SPEED_Set+0xb6>
    4166:	fda44703          	lbu	a4,-38(s0)
    416a:	4789                	li	a5,2
    416c:	00f71e63          	bne	a4,a5,4188 <RVMSIS_GPIO_SPEED_Set+0x96>
    4170:	fef44703          	lbu	a4,-17(s0)
    4174:	fdb44783          	lbu	a5,-37(s0)
    4178:	4689                	li	a3,2
    417a:	863a                	mv	a2,a4
    417c:	85be                	mv	a1,a5
    417e:	fdc42503          	lw	a0,-36(s0)
    4182:	ec3ff0ef          	jal	ra,4044 <RVMSIS_GPIO_MODE_Set>
    4186:	a00d                	j	41a8 <RVMSIS_GPIO_SPEED_Set+0xb6>
    4188:	fda44703          	lbu	a4,-38(s0)
    418c:	478d                	li	a5,3
    418e:	00f71d63          	bne	a4,a5,41a8 <RVMSIS_GPIO_SPEED_Set+0xb6>
    4192:	fef44703          	lbu	a4,-17(s0)
    4196:	fdb44783          	lbu	a5,-37(s0)
    419a:	468d                	li	a3,3
    419c:	863a                	mv	a2,a4
    419e:	85be                	mv	a1,a5
    41a0:	fdc42503          	lw	a0,-36(s0)
    41a4:	ea1ff0ef          	jal	ra,4044 <RVMSIS_GPIO_MODE_Set>
    41a8:	0001                	nop
    41aa:	50b2                	lw	ra,44(sp)
    41ac:	5422                	lw	s0,40(sp)
    41ae:	6145                	addi	sp,sp,48
    41b0:	8082                	ret

000041b2 <RVMSIS_GPIO_CNF_Set>:
    41b2:	1101                	addi	sp,sp,-32
    41b4:	ce22                	sw	s0,28(sp)
    41b6:	1000                	addi	s0,sp,32
    41b8:	fea42623          	sw	a0,-20(s0)
    41bc:	87ae                	mv	a5,a1
    41be:	8732                	mv	a4,a2
    41c0:	fed42223          	sw	a3,-28(s0)
    41c4:	fef405a3          	sb	a5,-21(s0)
    41c8:	87ba                	mv	a5,a4
    41ca:	fef40523          	sb	a5,-22(s0)
    41ce:	feb44783          	lbu	a5,-21(s0)
    41d2:	c789                	beqz	a5,41dc <RVMSIS_GPIO_CNF_Set+0x2a>
    41d4:	4705                	li	a4,1
    41d6:	02e78d63          	beq	a5,a4,4210 <RVMSIS_GPIO_CNF_Set+0x5e>
    41da:	a09d                	j	4240 <RVMSIS_GPIO_CNF_Set+0x8e>
    41dc:	fec42783          	lw	a5,-20(s0)
    41e0:	4398                	lw	a4,0(a5)
    41e2:	fe442783          	lw	a5,-28(s0)
    41e6:	239c                	lbu	a5,0(a5)
    41e8:	86be                	mv	a3,a5
    41ea:	478d                	li	a5,3
    41ec:	00d797b3          	sll	a5,a5,a3
    41f0:	fff7c793          	not	a5,a5
    41f4:	8ff9                	and	a5,a5,a4
    41f6:	fea44703          	lbu	a4,-22(s0)
    41fa:	fe442683          	lw	a3,-28(s0)
    41fe:	2294                	lbu	a3,0(a3)
    4200:	00d71733          	sll	a4,a4,a3
    4204:	8f5d                	or	a4,a4,a5
    4206:	fec42783          	lw	a5,-20(s0)
    420a:	c398                	sw	a4,0(a5)
    420c:	0001                	nop
    420e:	a80d                	j	4240 <RVMSIS_GPIO_CNF_Set+0x8e>
    4210:	fec42783          	lw	a5,-20(s0)
    4214:	43d8                	lw	a4,4(a5)
    4216:	fe442783          	lw	a5,-28(s0)
    421a:	239c                	lbu	a5,0(a5)
    421c:	86be                	mv	a3,a5
    421e:	478d                	li	a5,3
    4220:	00d797b3          	sll	a5,a5,a3
    4224:	fff7c793          	not	a5,a5
    4228:	8ff9                	and	a5,a5,a4
    422a:	fea44703          	lbu	a4,-22(s0)
    422e:	fe442683          	lw	a3,-28(s0)
    4232:	2294                	lbu	a3,0(a3)
    4234:	00d71733          	sll	a4,a4,a3
    4238:	8f5d                	or	a4,a4,a5
    423a:	fec42783          	lw	a5,-20(s0)
    423e:	c3d8                	sw	a4,4(a5)
    4240:	0001                	nop
    4242:	4472                	lw	s0,28(sp)
    4244:	6105                	addi	sp,sp,32
    4246:	8082                	ret

00004248 <RVMSIS_GPIO_Reg_Set>:
    4248:	1101                	addi	sp,sp,-32
    424a:	ce06                	sw	ra,28(sp)
    424c:	cc22                	sw	s0,24(sp)
    424e:	1000                	addi	s0,sp,32
    4250:	fea42623          	sw	a0,-20(s0)
    4254:	feb42423          	sw	a1,-24(s0)
    4258:	fef42023          	sw	a5,-32(s0)
    425c:	87b2                	mv	a5,a2
    425e:	fef403a3          	sb	a5,-25(s0)
    4262:	87b6                	mv	a5,a3
    4264:	fef40323          	sb	a5,-26(s0)
    4268:	87ba                	mv	a5,a4
    426a:	fef402a3          	sb	a5,-27(s0)
    426e:	fe744783          	lbu	a5,-25(s0)
    4272:	4705                	li	a4,1
    4274:	04e78763          	beq	a5,a4,42c2 <RVMSIS_GPIO_Reg_Set+0x7a>
    4278:	4709                	li	a4,2
    427a:	08e78463          	beq	a5,a4,4302 <RVMSIS_GPIO_Reg_Set+0xba>
    427e:	14079463          	bnez	a5,43c6 <RVMSIS_GPIO_Reg_Set+0x17e>
    4282:	fe644783          	lbu	a5,-26(s0)
    4286:	c789                	beqz	a5,4290 <RVMSIS_GPIO_Reg_Set+0x48>
    4288:	4705                	li	a4,1
    428a:	00e78f63          	beq	a5,a4,42a8 <RVMSIS_GPIO_Reg_Set+0x60>
    428e:	aa25                	j	43c6 <RVMSIS_GPIO_Reg_Set+0x17e>
    4290:	fe042703          	lw	a4,-32(s0)
    4294:	fe544783          	lbu	a5,-27(s0)
    4298:	86ba                	mv	a3,a4
    429a:	4601                	li	a2,0
    429c:	85be                	mv	a1,a5
    429e:	fec42503          	lw	a0,-20(s0)
    42a2:	f11ff0ef          	jal	ra,41b2 <RVMSIS_GPIO_CNF_Set>
    42a6:	a829                	j	42c0 <RVMSIS_GPIO_Reg_Set+0x78>
    42a8:	fe042703          	lw	a4,-32(s0)
    42ac:	fe544783          	lbu	a5,-27(s0)
    42b0:	86ba                	mv	a3,a4
    42b2:	4605                	li	a2,1
    42b4:	85be                	mv	a1,a5
    42b6:	fec42503          	lw	a0,-20(s0)
    42ba:	ef9ff0ef          	jal	ra,41b2 <RVMSIS_GPIO_CNF_Set>
    42be:	0001                	nop
    42c0:	a219                	j	43c6 <RVMSIS_GPIO_Reg_Set+0x17e>
    42c2:	fe644783          	lbu	a5,-26(s0)
    42c6:	c789                	beqz	a5,42d0 <RVMSIS_GPIO_Reg_Set+0x88>
    42c8:	4705                	li	a4,1
    42ca:	00e78f63          	beq	a5,a4,42e8 <RVMSIS_GPIO_Reg_Set+0xa0>
    42ce:	a8e5                	j	43c6 <RVMSIS_GPIO_Reg_Set+0x17e>
    42d0:	fe042703          	lw	a4,-32(s0)
    42d4:	fe544783          	lbu	a5,-27(s0)
    42d8:	86ba                	mv	a3,a4
    42da:	4609                	li	a2,2
    42dc:	85be                	mv	a1,a5
    42de:	fec42503          	lw	a0,-20(s0)
    42e2:	ed1ff0ef          	jal	ra,41b2 <RVMSIS_GPIO_CNF_Set>
    42e6:	a829                	j	4300 <RVMSIS_GPIO_Reg_Set+0xb8>
    42e8:	fe042703          	lw	a4,-32(s0)
    42ec:	fe544783          	lbu	a5,-27(s0)
    42f0:	86ba                	mv	a3,a4
    42f2:	460d                	li	a2,3
    42f4:	85be                	mv	a1,a5
    42f6:	fec42503          	lw	a0,-20(s0)
    42fa:	eb9ff0ef          	jal	ra,41b2 <RVMSIS_GPIO_CNF_Set>
    42fe:	0001                	nop
    4300:	a0d9                	j	43c6 <RVMSIS_GPIO_Reg_Set+0x17e>
    4302:	fe644783          	lbu	a5,-26(s0)
    4306:	470d                	li	a4,3
    4308:	02e78c63          	beq	a5,a4,4340 <RVMSIS_GPIO_Reg_Set+0xf8>
    430c:	470d                	li	a4,3
    430e:	00f74663          	blt	a4,a5,431a <RVMSIS_GPIO_Reg_Set+0xd2>
    4312:	4709                	li	a4,2
    4314:	00e78a63          	beq	a5,a4,4328 <RVMSIS_GPIO_Reg_Set+0xe0>
    4318:	a075                	j	43c4 <RVMSIS_GPIO_Reg_Set+0x17c>
    431a:	4711                	li	a4,4
    431c:	02e78e63          	beq	a5,a4,4358 <RVMSIS_GPIO_Reg_Set+0x110>
    4320:	4715                	li	a4,5
    4322:	06e78763          	beq	a5,a4,4390 <RVMSIS_GPIO_Reg_Set+0x148>
    4326:	a879                	j	43c4 <RVMSIS_GPIO_Reg_Set+0x17c>
    4328:	fe042703          	lw	a4,-32(s0)
    432c:	fe544783          	lbu	a5,-27(s0)
    4330:	86ba                	mv	a3,a4
    4332:	4601                	li	a2,0
    4334:	85be                	mv	a1,a5
    4336:	fec42503          	lw	a0,-20(s0)
    433a:	e79ff0ef          	jal	ra,41b2 <RVMSIS_GPIO_CNF_Set>
    433e:	a059                	j	43c4 <RVMSIS_GPIO_Reg_Set+0x17c>
    4340:	fe042703          	lw	a4,-32(s0)
    4344:	fe544783          	lbu	a5,-27(s0)
    4348:	86ba                	mv	a3,a4
    434a:	4605                	li	a2,1
    434c:	85be                	mv	a1,a5
    434e:	fec42503          	lw	a0,-20(s0)
    4352:	e61ff0ef          	jal	ra,41b2 <RVMSIS_GPIO_CNF_Set>
    4356:	a0bd                	j	43c4 <RVMSIS_GPIO_Reg_Set+0x17c>
    4358:	fe042703          	lw	a4,-32(s0)
    435c:	fe544783          	lbu	a5,-27(s0)
    4360:	86ba                	mv	a3,a4
    4362:	4609                	li	a2,2
    4364:	85be                	mv	a1,a5
    4366:	fec42503          	lw	a0,-20(s0)
    436a:	e49ff0ef          	jal	ra,41b2 <RVMSIS_GPIO_CNF_Set>
    436e:	fec42783          	lw	a5,-20(s0)
    4372:	47d8                	lw	a4,12(a5)
    4374:	fe842783          	lw	a5,-24(s0)
    4378:	239c                	lbu	a5,0(a5)
    437a:	86be                	mv	a3,a5
    437c:	4785                	li	a5,1
    437e:	00d797b3          	sll	a5,a5,a3
    4382:	fff7c793          	not	a5,a5
    4386:	8f7d                	and	a4,a4,a5
    4388:	fec42783          	lw	a5,-20(s0)
    438c:	c7d8                	sw	a4,12(a5)
    438e:	a81d                	j	43c4 <RVMSIS_GPIO_Reg_Set+0x17c>
    4390:	fe042703          	lw	a4,-32(s0)
    4394:	fe544783          	lbu	a5,-27(s0)
    4398:	86ba                	mv	a3,a4
    439a:	4609                	li	a2,2
    439c:	85be                	mv	a1,a5
    439e:	fec42503          	lw	a0,-20(s0)
    43a2:	e11ff0ef          	jal	ra,41b2 <RVMSIS_GPIO_CNF_Set>
    43a6:	fec42783          	lw	a5,-20(s0)
    43aa:	47d8                	lw	a4,12(a5)
    43ac:	fe842783          	lw	a5,-24(s0)
    43b0:	239c                	lbu	a5,0(a5)
    43b2:	86be                	mv	a3,a5
    43b4:	4785                	li	a5,1
    43b6:	00d797b3          	sll	a5,a5,a3
    43ba:	8f5d                	or	a4,a4,a5
    43bc:	fec42783          	lw	a5,-20(s0)
    43c0:	c7d8                	sw	a4,12(a5)
    43c2:	0001                	nop
    43c4:	0001                	nop
    43c6:	0001                	nop
    43c8:	40f2                	lw	ra,28(sp)
    43ca:	4462                	lw	s0,24(sp)
    43cc:	6105                	addi	sp,sp,32
    43ce:	8082                	ret

000043d0 <RVMSIS_GPIO_init>:
    43d0:	7179                	addi	sp,sp,-48
    43d2:	d606                	sw	ra,44(sp)
    43d4:	d422                	sw	s0,40(sp)
    43d6:	1800                	addi	s0,sp,48
    43d8:	fca42e23          	sw	a0,-36(s0)
    43dc:	87ae                	mv	a5,a1
    43de:	fcf40da3          	sb	a5,-37(s0)
    43e2:	87b2                	mv	a5,a2
    43e4:	fcf40d23          	sb	a5,-38(s0)
    43e8:	87b6                	mv	a5,a3
    43ea:	fcf40ca3          	sb	a5,-39(s0)
    43ee:	87ba                	mv	a5,a4
    43f0:	fcf40c23          	sb	a5,-40(s0)
    43f4:	fe0407a3          	sb	zero,-17(s0)
    43f8:	fdc42703          	lw	a4,-36(s0)
    43fc:	400117b7          	lui	a5,0x40011
    4400:	80078793          	addi	a5,a5,-2048 # 40010800 <_eusrstack+0x2000e000>
    4404:	00f71b63          	bne	a4,a5,441a <RVMSIS_GPIO_init+0x4a>
    4408:	400217b7          	lui	a5,0x40021
    440c:	4f98                	lw	a4,24(a5)
    440e:	400217b7          	lui	a5,0x40021
    4412:	00476713          	ori	a4,a4,4
    4416:	cf98                	sw	a4,24(a5)
    4418:	a051                	j	449c <RVMSIS_GPIO_init+0xcc>
    441a:	fdc42703          	lw	a4,-36(s0)
    441e:	400117b7          	lui	a5,0x40011
    4422:	c0078793          	addi	a5,a5,-1024 # 40010c00 <_eusrstack+0x2000e400>
    4426:	00f71b63          	bne	a4,a5,443c <RVMSIS_GPIO_init+0x6c>
    442a:	400217b7          	lui	a5,0x40021
    442e:	4f98                	lw	a4,24(a5)
    4430:	400217b7          	lui	a5,0x40021
    4434:	00876713          	ori	a4,a4,8
    4438:	cf98                	sw	a4,24(a5)
    443a:	a08d                	j	449c <RVMSIS_GPIO_init+0xcc>
    443c:	fdc42703          	lw	a4,-36(s0)
    4440:	400117b7          	lui	a5,0x40011
    4444:	00f71b63          	bne	a4,a5,445a <RVMSIS_GPIO_init+0x8a>
    4448:	400217b7          	lui	a5,0x40021
    444c:	4f98                	lw	a4,24(a5)
    444e:	400217b7          	lui	a5,0x40021
    4452:	01076713          	ori	a4,a4,16
    4456:	cf98                	sw	a4,24(a5)
    4458:	a091                	j	449c <RVMSIS_GPIO_init+0xcc>
    445a:	fdc42703          	lw	a4,-36(s0)
    445e:	400117b7          	lui	a5,0x40011
    4462:	40078793          	addi	a5,a5,1024 # 40011400 <_eusrstack+0x2000ec00>
    4466:	00f71b63          	bne	a4,a5,447c <RVMSIS_GPIO_init+0xac>
    446a:	400217b7          	lui	a5,0x40021
    446e:	4f98                	lw	a4,24(a5)
    4470:	400217b7          	lui	a5,0x40021
    4474:	02076713          	ori	a4,a4,32
    4478:	cf98                	sw	a4,24(a5)
    447a:	a00d                	j	449c <RVMSIS_GPIO_init+0xcc>
    447c:	fdc42703          	lw	a4,-36(s0)
    4480:	400127b7          	lui	a5,0x40012
    4484:	80078793          	addi	a5,a5,-2048 # 40011800 <_eusrstack+0x2000f000>
    4488:	00f71a63          	bne	a4,a5,449c <RVMSIS_GPIO_init+0xcc>
    448c:	400217b7          	lui	a5,0x40021
    4490:	4f98                	lw	a4,24(a5)
    4492:	400217b7          	lui	a5,0x40021
    4496:	04076713          	ori	a4,a4,64
    449a:	cf98                	sw	a4,24(a5)
    449c:	fdb44783          	lbu	a5,-37(s0)
    44a0:	fd844703          	lbu	a4,-40(s0)
    44a4:	863a                	mv	a2,a4
    44a6:	85be                	mv	a1,a5
    44a8:	fdc42503          	lw	a0,-36(s0)
    44ac:	c47ff0ef          	jal	ra,40f2 <RVMSIS_GPIO_SPEED_Set>
    44b0:	fdb44703          	lbu	a4,-37(s0)
    44b4:	479d                	li	a5,7
    44b6:	02e7ea63          	bltu	a5,a4,44ea <RVMSIS_GPIO_init+0x11a>
    44ba:	fdb44783          	lbu	a5,-37(s0)
    44be:	078a                	slli	a5,a5,0x2
    44c0:	0ff7f793          	andi	a5,a5,255
    44c4:	0789                	addi	a5,a5,2
    44c6:	0ff7f793          	andi	a5,a5,255
    44ca:	fef407a3          	sb	a5,-17(s0)
    44ce:	fef40793          	addi	a5,s0,-17
    44d2:	fd944683          	lbu	a3,-39(s0)
    44d6:	fda44603          	lbu	a2,-38(s0)
    44da:	fdb40593          	addi	a1,s0,-37
    44de:	4701                	li	a4,0
    44e0:	fdc42503          	lw	a0,-36(s0)
    44e4:	d65ff0ef          	jal	ra,4248 <RVMSIS_GPIO_Reg_Set>
    44e8:	a83d                	j	4526 <RVMSIS_GPIO_init+0x156>
    44ea:	fdb44783          	lbu	a5,-37(s0)
    44ee:	17e1                	addi	a5,a5,-8
    44f0:	0ff7f793          	andi	a5,a5,255
    44f4:	fcf40da3          	sb	a5,-37(s0)
    44f8:	fdb44783          	lbu	a5,-37(s0)
    44fc:	078a                	slli	a5,a5,0x2
    44fe:	0ff7f793          	andi	a5,a5,255
    4502:	0789                	addi	a5,a5,2
    4504:	0ff7f793          	andi	a5,a5,255
    4508:	fef407a3          	sb	a5,-17(s0)
    450c:	fef40793          	addi	a5,s0,-17
    4510:	fd944683          	lbu	a3,-39(s0)
    4514:	fda44603          	lbu	a2,-38(s0)
    4518:	fdb40593          	addi	a1,s0,-37
    451c:	4705                	li	a4,1
    451e:	fdc42503          	lw	a0,-36(s0)
    4522:	d27ff0ef          	jal	ra,4248 <RVMSIS_GPIO_Reg_Set>
    4526:	0001                	nop
    4528:	50b2                	lw	ra,44(sp)
    452a:	5422                	lw	s0,40(sp)
    452c:	6145                	addi	sp,sp,48
    452e:	8082                	ret

00004530 <main>:
    4530:	1141                	addi	sp,sp,-16
    4532:	c606                	sw	ra,12(sp)
    4534:	c422                	sw	s0,8(sp)
    4536:	0800                	addi	s0,sp,16
    4538:	81bff0ef          	jal	ra,3d52 <RVMSIS_Debug_init>
    453c:	887ff0ef          	jal	ra,3dc2 <RVMSIS_RCC_SystemClock_144MHz>
    4540:	a25ff0ef          	jal	ra,3f64 <RVMSIS_SysTick_Timer_init>
    4544:	470d                	li	a4,3
    4546:	4681                	li	a3,0
    4548:	4601                	li	a2,0
    454a:	45b5                	li	a1,13
    454c:	40011537          	lui	a0,0x40011
    4550:	e81ff0ef          	jal	ra,43d0 <RVMSIS_GPIO_init>
    4554:	400117b7          	lui	a5,0x40011
    4558:	6709                	lui	a4,0x2
    455a:	cb98                	sw	a4,16(a5)
    455c:	bd1fb0ef          	jal	ra,12c <Set_USBConfig>
    4560:	b0efd0ef          	jal	ra,186e <USB_Init>
    4564:	c29fb0ef          	jal	ra,18c <USB_Interrupts_Config>
    4568:	8641a703          	lw	a4,-1948(gp) # 2000029c <bDeviceState>
    456c:	4795                	li	a5,5
    456e:	fef71de3          	bne	a4,a5,4568 <main+0x38>
    4572:	400117b7          	lui	a5,0x40011
    4576:	20000737          	lui	a4,0x20000
    457a:	cb98                	sw	a4,16(a5)
    457c:	d5c18783          	lb	a5,-676(gp) # 20000794 <Gamepad_data>
    4580:	0ff7f793          	andi	a5,a5,255
    4584:	0785                	addi	a5,a5,1
    4586:	0ff7f793          	andi	a5,a5,255
    458a:	01879713          	slli	a4,a5,0x18
    458e:	8761                	srai	a4,a4,0x18
    4590:	d4e18e23          	sb	a4,-676(gp) # 20000794 <Gamepad_data>
    4594:	d5c18793          	addi	a5,gp,-676 # 20000794 <Gamepad_data>
    4598:	00178783          	lb	a5,1(a5) # 40011001 <_eusrstack+0x2000e801>
    459c:	0ff7f793          	andi	a5,a5,255
    45a0:	0785                	addi	a5,a5,1
    45a2:	0ff7f793          	andi	a5,a5,255
    45a6:	01879713          	slli	a4,a5,0x18
    45aa:	8761                	srai	a4,a4,0x18
    45ac:	d5c18793          	addi	a5,gp,-676 # 20000794 <Gamepad_data>
    45b0:	b398                	sb	a4,1(a5)
    45b2:	d5c18793          	addi	a5,gp,-676 # 20000794 <Gamepad_data>
    45b6:	00278783          	lb	a5,2(a5)
    45ba:	0ff7f793          	andi	a5,a5,255
    45be:	0785                	addi	a5,a5,1
    45c0:	0ff7f793          	andi	a5,a5,255
    45c4:	01879713          	slli	a4,a5,0x18
    45c8:	8761                	srai	a4,a4,0x18
    45ca:	d5c18793          	addi	a5,gp,-676 # 20000794 <Gamepad_data>
    45ce:	a3b8                	sb	a4,2(a5)
    45d0:	d5c18793          	addi	a5,gp,-676 # 20000794 <Gamepad_data>
    45d4:	00378783          	lb	a5,3(a5)
    45d8:	0ff7f793          	andi	a5,a5,255
    45dc:	0785                	addi	a5,a5,1
    45de:	0ff7f793          	andi	a5,a5,255
    45e2:	01879713          	slli	a4,a5,0x18
    45e6:	8761                	srai	a4,a4,0x18
    45e8:	d5c18793          	addi	a5,gp,-676 # 20000794 <Gamepad_data>
    45ec:	b3b8                	sb	a4,3(a5)
    45ee:	d5c18793          	addi	a5,gp,-676 # 20000794 <Gamepad_data>
    45f2:	00478783          	lb	a5,4(a5)
    45f6:	0ff7f793          	andi	a5,a5,255
    45fa:	0785                	addi	a5,a5,1
    45fc:	0ff7f793          	andi	a5,a5,255
    4600:	01879713          	slli	a4,a5,0x18
    4604:	8761                	srai	a4,a4,0x18
    4606:	d5c18793          	addi	a5,gp,-676 # 20000794 <Gamepad_data>
    460a:	a3d8                	sb	a4,4(a5)
    460c:	d5c18793          	addi	a5,gp,-676 # 20000794 <Gamepad_data>
    4610:	00578783          	lb	a5,5(a5)
    4614:	0ff7f793          	andi	a5,a5,255
    4618:	0785                	addi	a5,a5,1
    461a:	0ff7f793          	andi	a5,a5,255
    461e:	01879713          	slli	a4,a5,0x18
    4622:	8761                	srai	a4,a4,0x18
    4624:	d5c18793          	addi	a5,gp,-676 # 20000794 <Gamepad_data>
    4628:	b3d8                	sb	a4,5(a5)
    462a:	d5c18793          	addi	a5,gp,-676 # 20000794 <Gamepad_data>
    462e:	23fc                	lbu	a5,6(a5)
    4630:	0785                	addi	a5,a5,1
    4632:	0ff7f713          	andi	a4,a5,255
    4636:	d5c18793          	addi	a5,gp,-676 # 20000794 <Gamepad_data>
    463a:	a3f8                	sb	a4,6(a5)
    463c:	d5c18713          	addi	a4,gp,-676 # 20000794 <Gamepad_data>
    4640:	4358                	lw	a4,4(a4)
    4642:	8361                	srli	a4,a4,0x18
    4644:	d5c18793          	addi	a5,gp,-676 # 20000794 <Gamepad_data>
    4648:	479c                	lw	a5,8(a5)
    464a:	0ff7f793          	andi	a5,a5,255
    464e:	07a2                	slli	a5,a5,0x8
    4650:	8fd9                	or	a5,a5,a4
    4652:	07c2                	slli	a5,a5,0x10
    4654:	83c1                	srli	a5,a5,0x10
    4656:	0785                	addi	a5,a5,1
    4658:	01079713          	slli	a4,a5,0x10
    465c:	8341                	srli	a4,a4,0x10
    465e:	d5c18793          	addi	a5,gp,-676 # 20000794 <Gamepad_data>
    4662:	0ff77593          	andi	a1,a4,255
    4666:	33f4                	lbu	a3,7(a5)
    4668:	8a81                	andi	a3,a3,0
    466a:	8636                	mv	a2,a3
    466c:	86ae                	mv	a3,a1
    466e:	8ed1                	or	a3,a3,a2
    4670:	b3f4                	sb	a3,7(a5)
    4672:	8321                	srli	a4,a4,0x8
    4674:	01071613          	slli	a2,a4,0x10
    4678:	8241                	srli	a2,a2,0x10
    467a:	2798                	lbu	a4,8(a5)
    467c:	8b01                	andi	a4,a4,0
    467e:	86ba                	mv	a3,a4
    4680:	8732                	mv	a4,a2
    4682:	8f55                	or	a4,a4,a3
    4684:	a798                	sb	a4,8(a5)
    4686:	d5c18713          	addi	a4,gp,-676 # 20000794 <Gamepad_data>
    468a:	4358                	lw	a4,4(a4)
    468c:	8361                	srli	a4,a4,0x18
    468e:	d5c18793          	addi	a5,gp,-676 # 20000794 <Gamepad_data>
    4692:	479c                	lw	a5,8(a5)
    4694:	0ff7f793          	andi	a5,a5,255
    4698:	07a2                	slli	a5,a5,0x8
    469a:	8fd9                	or	a5,a5,a4
    469c:	01079713          	slli	a4,a5,0x10
    46a0:	8341                	srli	a4,a4,0x10
    46a2:	7ff00793          	li	a5,2047
    46a6:	00e7fa63          	bgeu	a5,a4,46ba <main+0x18a>
    46aa:	d5c18793          	addi	a5,gp,-676 # 20000794 <Gamepad_data>
    46ae:	33f8                	lbu	a4,7(a5)
    46b0:	8b01                	andi	a4,a4,0
    46b2:	b3f8                	sb	a4,7(a5)
    46b4:	2798                	lbu	a4,8(a5)
    46b6:	8b01                	andi	a4,a4,0
    46b8:	a798                	sb	a4,8(a5)
    46ba:	4625                	li	a2,9
    46bc:	d5c18593          	addi	a1,gp,-676 # 20000794 <Gamepad_data>
    46c0:	4509                	li	a0,2
    46c2:	94cfd0ef          	jal	ra,180e <USBD_ENDPx_DataUp>
    46c6:	b54d                	j	4568 <main+0x38>

000046c8 <strlen>:
    46c8:	87aa                	mv	a5,a0
    46ca:	0785                	addi	a5,a5,1
    46cc:	fff7c703          	lbu	a4,-1(a5)
    46d0:	ff6d                	bnez	a4,46ca <strlen+0x2>
    46d2:	40a78533          	sub	a0,a5,a0
    46d6:	157d                	addi	a0,a0,-1
    46d8:	8082                	ret
	...

000046dc <USBD_DeviceDescriptor>:
    46dc:	0112 0110 0000 4000 0483 3210 0100 0201     .......@...2....
    46ec:	0103 0000                                   ....

000046f0 <USBD_ConfigDescriptor>:
    46f0:	0209 0029 0101 8003 0932 0004 0200 0003     ..).....2.......
    4700:	0000 2109 0111 0100 4c22 0700 0105 4003     ...!...."L.....@
    4710:	0500 0507 0382 0040 0005 0000               ......@.....

0000471c <USBD_StringSerial>:
    471c:	0316 0030 0031 0032 0033 0034 0035 0036     ..0.1.2.3.4.5.6.
    472c:	0037 0038 0039 0000                         7.8.9...

00004734 <USBD_HidRepDesc>:
    4734:	0105 0509 01a1 3009 3109 3209 3309 3409     .......0.1.2.3.4
    4744:	3509 8015 7f25 0695 0875 0281 3909 1465     .5..%...u....9e.
    4754:	0015 0725 0035 3b46 9501 7501 8104 9502     ..%.5.F;...u....
    4764:	7504 8101 0501 1909 2901 150b 2500 7501     .u.......)...%.u
    4774:	9501 810b 9502 7505 8101 c001 2db4 0000     .......u.....-..
    4784:	2dcc 0000 2ddc 0000 2dec 0000 2e16 0000     .-...-...-......
    4794:	2e4e 0000                                   N...
